 sipecho

 Timestamp is 54dd983c (Fri Feb 13 14:22:52 2015)

 Preferred load address is 00400000

 Start         Length     Name                   Class
 0001:00000000 00067731H .textbss                DATA
 0002:00000000 000d46e4H .text$mn                CODE
 0002:000d46f0 00001161H .text$x                 CODE
 0003:00000000 00000104H .CRT$XCA                DATA
 0003:00000104 00000104H .CRT$XCZ                DATA
 0003:00000208 00000104H .CRT$XIA                DATA
 0003:0000030c 00000113H .CRT$XIC                DATA
 0003:00000420 00000104H .CRT$XIY                DATA
 0003:00000524 00000104H .CRT$XIZ                DATA
 0003:00000628 00000104H .CRT$XPA                DATA
 0003:0000072c 00000109H .CRT$XPX                DATA
 0003:00000838 00000104H .CRT$XPXA               DATA
 0003:0000093c 00000104H .CRT$XPZ                DATA
 0003:00000a40 00000104H .CRT$XTA                DATA
 0003:00000b44 00000104H .CRT$XTZ                DATA
 0003:00000c50 00028b25H .rdata                  DATA
 0003:00029778 000001c9H .rdata$debug            DATA
 0003:00029944 00000563H .rdata$r                DATA
 0003:00029ea8 00000104H .rtc$IAA                DATA
 0003:00029fac 00000104H .rtc$IZZ                DATA
 0003:0002a0b0 00000104H .rtc$TAA                DATA
 0003:0002a1b4 00000104H .rtc$TZZ                DATA
 0003:0002a2b8 00000e4eH .xdata$x                DATA
 0003:0002b106 00000000H .edata                  DATA
 0004:00000000 0000370dH .data                   DATA
 0004:00003710 00000293H .data$r                 DATA
 0004:000039c0 00007264H .bss                    DATA
 0005:00000000 00000314H .idata$5                DATA
 0005:00000314 0000003cH .idata$2                DATA
 0005:00000350 00000014H .idata$3                DATA
 0005:00000364 00000314H .idata$4                DATA
 0005:00000678 000009f0H .idata$6                DATA

  Address         Publics by Value              Rva+Base       Lib:Object

 0000:00000000       ___safe_se_handler_table   00000000     <absolute>
 0000:00000000       ___guard_fids_count        00000000     <absolute>
 0000:00000000       __except_list              00000000     <absolute>
 0000:00000000       ___safe_se_handler_count   00000000     <absolute>
 0000:00000000       ___guard_flags             00000000     <absolute>
 0000:00000000       ___guard_fids_table        00000000     <absolute>
 0000:00000000       ___ImageBase               00400000     <linker-defined>
 0001:00000000       __enc$textbss$begin        00401000     <linker-defined>
 0001:00067731       __enc$textbss$end          00468731     <linker-defined>
 0002:000050a0       _get_snd_options           0046e0a0 f   sipecho.obj
 0002:00005400       _dump_pool_usage           0046e400 f   sipecho.obj
 0002:000064f0       _main                      0046f4f0 f   sipecho.obj
 0002:0000be30       _pjsip_create_sdp_body     00474e30 f   pjsip-ua-i386-win32-vc8-debug:sip_inv.obj
 0002:0000bf20       _pjsip_dlg_get_inv_session 00474f20 f   pjsip-ua-i386-win32-vc8-debug:sip_inv.obj
 0002:0000bf50       _pjsip_inv_answer          00474f50 f   pjsip-ua-i386-win32-vc8-debug:sip_inv.obj
 0002:0000c140       _pjsip_inv_cancel_reinvite 00475140 f   pjsip-ua-i386-win32-vc8-debug:sip_inv.obj
 0002:0000c2e0       _pjsip_inv_create_ack      004752e0 f   pjsip-ua-i386-win32-vc8-debug:sip_inv.obj
 0002:0000c470       _pjsip_inv_create_uac      00475470 f   pjsip-ua-i386-win32-vc8-debug:sip_inv.obj
 0002:0000c740       _pjsip_inv_create_uas      00475740 f   pjsip-ua-i386-win32-vc8-debug:sip_inv.obj
 0002:0000cbd0       _pjsip_inv_end_session     00475bd0 f   pjsip-ua-i386-win32-vc8-debug:sip_inv.obj
 0002:0000cf10       _pjsip_inv_initial_answer  00475f10 f   pjsip-ua-i386-win32-vc8-debug:sip_inv.obj
 0002:0000d190       _pjsip_inv_invite          00476190 f   pjsip-ua-i386-win32-vc8-debug:sip_inv.obj
 0002:0000d5c0       _pjsip_inv_process_redirect 004765c0 f   pjsip-ua-i386-win32-vc8-debug:sip_inv.obj
 0002:0000db20       _pjsip_inv_reinvite        00476b20 f   pjsip-ua-i386-win32-vc8-debug:sip_inv.obj
 0002:0000de20       _pjsip_inv_send_msg        00476e20 f   pjsip-ua-i386-win32-vc8-debug:sip_inv.obj
 0002:0000e180       _pjsip_inv_set_local_sdp   00477180 f   pjsip-ua-i386-win32-vc8-debug:sip_inv.obj
 0002:0000e2c0       _pjsip_inv_set_sdp_answer  004772c0 f   pjsip-ua-i386-win32-vc8-debug:sip_inv.obj
 0002:0000e370       _pjsip_inv_state_name      00477370 f   pjsip-ua-i386-win32-vc8-debug:sip_inv.obj
 0002:0000e3e0       _pjsip_inv_terminate       004773e0 f   pjsip-ua-i386-win32-vc8-debug:sip_inv.obj
 0002:0000e4e0       _pjsip_inv_uac_restart     004774e0 f   pjsip-ua-i386-win32-vc8-debug:sip_inv.obj
 0002:0000e5c0       _pjsip_inv_update          004775c0 f   pjsip-ua-i386-win32-vc8-debug:sip_inv.obj
 0002:0000e990       _pjsip_inv_usage_init      00477990 f   pjsip-ua-i386-win32-vc8-debug:sip_inv.obj
 0002:0000eaf0       _pjsip_inv_usage_instance  00477af0 f   pjsip-ua-i386-win32-vc8-debug:sip_inv.obj
 0002:0000eb10       _pjsip_inv_verify_request  00477b10 f   pjsip-ua-i386-win32-vc8-debug:sip_inv.obj
 0002:0000eb60       _pjsip_inv_verify_request2 00477b60 f   pjsip-ua-i386-win32-vc8-debug:sip_inv.obj
 0002:0000ebb0       _pjsip_inv_verify_request3 00477bb0 f   pjsip-ua-i386-win32-vc8-debug:sip_inv.obj
 0002:0000fd60       _pjsip_rdata_get_sdp_info  00478d60 f   pjsip-ua-i386-win32-vc8-debug:sip_inv.obj
 0002:00010c70       _pjsip_100rel_attach       00479c70 f   pjsip-ua-i386-win32-vc8-debug:sip_100rel.obj
 0002:00010d50       _pjsip_100rel_create_prack 00479d50 f   pjsip-ua-i386-win32-vc8-debug:sip_100rel.obj
 0002:00011260       _pjsip_100rel_end_session  0047a260 f   pjsip-ua-i386-win32-vc8-debug:sip_100rel.obj
 0002:00011320       _pjsip_100rel_init_module  0047a320 f   pjsip-ua-i386-win32-vc8-debug:sip_100rel.obj
 0002:00011360       _pjsip_100rel_is_reliable  0047a360 f   pjsip-ua-i386-win32-vc8-debug:sip_100rel.obj
 0002:00011420       _pjsip_100rel_on_rx_prack  0047a420 f   pjsip-ua-i386-win32-vc8-debug:sip_100rel.obj
 0002:00011790       _pjsip_100rel_send_prack   0047a790 f   pjsip-ua-i386-win32-vc8-debug:sip_100rel.obj
 0002:00011840       _pjsip_100rel_tx_response  0047a840 f   pjsip-ua-i386-win32-vc8-debug:sip_100rel.obj
 0002:00012020       _pjsip_get_prack_method    0047b020 f   pjsip-ua-i386-win32-vc8-debug:sip_100rel.obj
 0002:00012ac0       _pjsip_min_se_hdr_create   0047bac0 f   pjsip-ua-i386-win32-vc8-debug:sip_timer.obj
 0002:00012ba0       _pjsip_sess_expires_hdr_create 0047bba0 f   pjsip-ua-i386-win32-vc8-debug:sip_timer.obj
 0002:00012c90       _pjsip_timer_end_session   0047bc90 f   pjsip-ua-i386-win32-vc8-debug:sip_timer.obj
 0002:00012d20       _pjsip_timer_handle_refresh_error 0047bd20 f   pjsip-ua-i386-win32-vc8-debug:sip_timer.obj
 0002:00012f70       _pjsip_timer_init_module   0047bf70 f   pjsip-ua-i386-win32-vc8-debug:sip_timer.obj
 0002:000130f0       _pjsip_timer_init_session  0047c0f0 f   pjsip-ua-i386-win32-vc8-debug:sip_timer.obj
 0002:000132a0       _pjsip_timer_process_req   0047c2a0 f   pjsip-ua-i386-win32-vc8-debug:sip_timer.obj
 0002:000136b0       _pjsip_timer_process_resp  0047c6b0 f   pjsip-ua-i386-win32-vc8-debug:sip_timer.obj
 0002:00013db0       _pjsip_timer_setting_default 0047cdb0 f   pjsip-ua-i386-win32-vc8-debug:sip_timer.obj
 0002:00013df0       _pjsip_timer_update_req    0047cdf0 f   pjsip-ua-i386-win32-vc8-debug:sip_timer.obj
 0002:00013fa0       _pjsip_timer_update_resp   0047cfa0 f   pjsip-ua-i386-win32-vc8-debug:sip_timer.obj
 0002:00017900       _pjsip_accept_hdr_create   00480900 f   pjsip-core-i386-win32-vc8-debug:sip_msg.obj
 0002:00017950       _pjsip_accept_hdr_init     00480950 f   pjsip-core-i386-win32-vc8-debug:sip_msg.obj
 0002:000179a0       _pjsip_allow_hdr_create    004809a0 f   pjsip-core-i386-win32-vc8-debug:sip_msg.obj
 0002:000179f0       _pjsip_allow_hdr_init      004809f0 f   pjsip-core-i386-win32-vc8-debug:sip_msg.obj
 0002:00017a40       _pjsip_cid_hdr_create      00480a40 f   pjsip-core-i386-win32-vc8-debug:sip_msg.obj
 0002:00017a80       _pjsip_cid_hdr_init        00480a80 f   pjsip-core-i386-win32-vc8-debug:sip_msg.obj
 0002:00017ac0       _pjsip_clen_hdr_create     00480ac0 f   pjsip-core-i386-win32-vc8-debug:sip_msg.obj
 0002:00017b00       _pjsip_clen_hdr_init       00480b00 f   pjsip-core-i386-win32-vc8-debug:sip_msg.obj
 0002:00017b50       _pjsip_clone_text_data     00480b50 f   pjsip-core-i386-win32-vc8-debug:sip_msg.obj
 0002:00017bb0       _pjsip_contact_hdr_create  00480bb0 f   pjsip-core-i386-win32-vc8-debug:sip_msg.obj
 0002:00017bf0       _pjsip_contact_hdr_init    00480bf0 f   pjsip-core-i386-win32-vc8-debug:sip_msg.obj
 0002:00017c60       _pjsip_cseq_hdr_create     00480c60 f   pjsip-core-i386-win32-vc8-debug:sip_msg.obj
 0002:00017ca0       _pjsip_cseq_hdr_init       00480ca0 f   pjsip-core-i386-win32-vc8-debug:sip_msg.obj
 0002:00017d10       _pjsip_ctype_hdr_create    00480d10 f   pjsip-core-i386-win32-vc8-debug:sip_msg.obj
 0002:00017d50       _pjsip_ctype_hdr_init      00480d50 f   pjsip-core-i386-win32-vc8-debug:sip_msg.obj
 0002:00017db0       _pjsip_expires_hdr_create  00480db0 f   pjsip-core-i386-win32-vc8-debug:sip_msg.obj
 0002:00017e00       _pjsip_expires_hdr_init    00480e00 f   pjsip-core-i386-win32-vc8-debug:sip_msg.obj
 0002:00017e50       _pjsip_from_hdr_create     00480e50 f   pjsip-core-i386-win32-vc8-debug:sip_msg.obj
 0002:00017e90       _pjsip_from_hdr_init       00480e90 f   pjsip-core-i386-win32-vc8-debug:sip_msg.obj
 0002:00017ef0       _pjsip_fromto_hdr_set_from 00480ef0 f   pjsip-core-i386-win32-vc8-debug:sip_msg.obj
 0002:00017f70       _pjsip_fromto_hdr_set_to   00480f70 f   pjsip-core-i386-win32-vc8-debug:sip_msg.obj
 0002:00017ff0       _pjsip_generic_array_hdr_create 00480ff0 f   pjsip-core-i386-win32-vc8-debug:sip_msg.obj
 0002:00018040       _pjsip_generic_array_hdr_init 00481040 f   pjsip-core-i386-win32-vc8-debug:sip_msg.obj
 0002:000180c0       _pjsip_generic_int_hdr_create 004810c0 f   pjsip-core-i386-win32-vc8-debug:sip_msg.obj
 0002:00018110       _pjsip_generic_int_hdr_init 00481110 f   pjsip-core-i386-win32-vc8-debug:sip_msg.obj
 0002:00018190       _pjsip_generic_string_hdr_create 00481190 f   pjsip-core-i386-win32-vc8-debug:sip_msg.obj
 0002:000181e0       _pjsip_generic_string_hdr_init 004811e0 f   pjsip-core-i386-win32-vc8-debug:sip_msg.obj
 0002:00018270       _pjsip_generic_string_hdr_init2 00481270 f   pjsip-core-i386-win32-vc8-debug:sip_msg.obj
 0002:00018310       _pjsip_get_ack_method      00481310 f   pjsip-core-i386-win32-vc8-debug:sip_msg.obj
 0002:00018330       _pjsip_get_bye_method      00481330 f   pjsip-core-i386-win32-vc8-debug:sip_msg.obj
 0002:00018350       _pjsip_get_cancel_method   00481350 f   pjsip-core-i386-win32-vc8-debug:sip_msg.obj
 0002:00018370       _pjsip_get_invite_method   00481370 f   pjsip-core-i386-win32-vc8-debug:sip_msg.obj
 0002:00018390       _pjsip_get_options_method  00481390 f   pjsip-core-i386-win32-vc8-debug:sip_msg.obj
 0002:000183b0       _pjsip_get_register_method 004813b0 f   pjsip-core-i386-win32-vc8-debug:sip_msg.obj
 0002:000183d0       _pjsip_get_status_text     004813d0 f   pjsip-core-i386-win32-vc8-debug:sip_msg.obj
 0002:00018440       _pjsip_hdr_clone           00481440 f   pjsip-core-i386-win32-vc8-debug:sip_msg.obj
 0002:00018480       _pjsip_hdr_print_on        00481480 f   pjsip-core-i386-win32-vc8-debug:sip_msg.obj
 0002:000184c0       _pjsip_hdr_shallow_clone   004814c0 f   pjsip-core-i386-win32-vc8-debug:sip_msg.obj
 0002:00018500       _pjsip_max_fwd_hdr_create  00481500 f   pjsip-core-i386-win32-vc8-debug:sip_msg.obj
 0002:00018550       _pjsip_max_fwd_hdr_init    00481550 f   pjsip-core-i386-win32-vc8-debug:sip_msg.obj
 0002:000185a0       _pjsip_media_type_cmp      004815a0 f   pjsip-core-i386-win32-vc8-debug:sip_msg.obj
 0002:000186b0       _pjsip_media_type_cp       004816b0 f   pjsip-core-i386-win32-vc8-debug:sip_msg.obj
 0002:00018780       _pjsip_media_type_init     00481780 f   pjsip-core-i386-win32-vc8-debug:sip_msg.obj
 0002:000187f0       _pjsip_media_type_init2    004817f0 f   pjsip-core-i386-win32-vc8-debug:sip_msg.obj
 0002:00018890       _pjsip_media_type_print    00481890 f   pjsip-core-i386-win32-vc8-debug:sip_msg.obj
 0002:000188c0       _pjsip_method_cmp          004818c0 f   pjsip-core-i386-win32-vc8-debug:sip_msg.obj
 0002:00018940       _pjsip_method_copy         00481940 f   pjsip-core-i386-win32-vc8-debug:sip_msg.obj
 0002:000189b0       _pjsip_method_init         004819b0 f   pjsip-core-i386-win32-vc8-debug:sip_msg.obj
 0002:000189f0       _pjsip_method_init_np      004819f0 f   pjsip-core-i386-win32-vc8-debug:sip_msg.obj
 0002:00018ac0       _pjsip_method_set          00481ac0 f   pjsip-core-i386-win32-vc8-debug:sip_msg.obj
 0002:00018b30       _pjsip_min_expires_hdr_create 00481b30 f   pjsip-core-i386-win32-vc8-debug:sip_msg.obj
 0002:00018b80       _pjsip_min_expires_hdr_init 00481b80 f   pjsip-core-i386-win32-vc8-debug:sip_msg.obj
 0002:00018c00       _pjsip_msg_body_clone      00481c00 f   pjsip-core-i386-win32-vc8-debug:sip_msg.obj
 0002:00018ca0       _pjsip_msg_body_copy       00481ca0 f   pjsip-core-i386-win32-vc8-debug:sip_msg.obj
 0002:00018d70       _pjsip_msg_body_create     00481d70 f   pjsip-core-i386-win32-vc8-debug:sip_msg.obj
 0002:00018f00       _pjsip_msg_clone           00481f00 f   pjsip-core-i386-win32-vc8-debug:sip_msg.obj
 0002:00019030       _pjsip_msg_create          00482030 f   pjsip-core-i386-win32-vc8-debug:sip_msg.obj
 0002:00019090       _pjsip_msg_find_hdr        00482090 f   pjsip-core-i386-win32-vc8-debug:sip_msg.obj
 0002:00019100       _pjsip_msg_find_hdr_by_name 00482100 f   pjsip-core-i386-win32-vc8-debug:sip_msg.obj
 0002:00019180       _pjsip_msg_find_hdr_by_names 00482180 f   pjsip-core-i386-win32-vc8-debug:sip_msg.obj
 0002:00019220       _pjsip_msg_find_remove_hdr 00482220 f   pjsip-core-i386-win32-vc8-debug:sip_msg.obj
 0002:00019270       _pjsip_msg_print           00482270 f   pjsip-core-i386-win32-vc8-debug:sip_msg.obj
 0002:00019860       _pjsip_print_text_body     00482860 f   pjsip-core-i386-win32-vc8-debug:sip_msg.obj
 0002:000198b0       _pjsip_require_hdr_create  004828b0 f   pjsip-core-i386-win32-vc8-debug:sip_msg.obj
 0002:00019900       _pjsip_require_hdr_init    00482900 f   pjsip-core-i386-win32-vc8-debug:sip_msg.obj
 0002:00019950       _pjsip_retry_after_hdr_create 00482950 f   pjsip-core-i386-win32-vc8-debug:sip_msg.obj
 0002:000199a0       _pjsip_retry_after_hdr_init 004829a0 f   pjsip-core-i386-win32-vc8-debug:sip_msg.obj
 0002:00019a10       _pjsip_route_hdr_create    00482a10 f   pjsip-core-i386-win32-vc8-debug:sip_msg.obj
 0002:00019a50       _pjsip_route_hdr_init      00482a50 f   pjsip-core-i386-win32-vc8-debug:sip_msg.obj
 0002:00019ab0       _pjsip_routing_hdr_set_route 00482ab0 f   pjsip-core-i386-win32-vc8-debug:sip_msg.obj
 0002:00019b20       _pjsip_routing_hdr_set_rr  00482b20 f   pjsip-core-i386-win32-vc8-debug:sip_msg.obj
 0002:00019b90       _pjsip_rr_hdr_create       00482b90 f   pjsip-core-i386-win32-vc8-debug:sip_msg.obj
 0002:00019bd0       _pjsip_rr_hdr_init         00482bd0 f   pjsip-core-i386-win32-vc8-debug:sip_msg.obj
 0002:00019c30       _pjsip_supported_hdr_create 00482c30 f   pjsip-core-i386-win32-vc8-debug:sip_msg.obj
 0002:00019c80       _pjsip_supported_hdr_init  00482c80 f   pjsip-core-i386-win32-vc8-debug:sip_msg.obj
 0002:00019cd0       _pjsip_to_hdr_create       00482cd0 f   pjsip-core-i386-win32-vc8-debug:sip_msg.obj
 0002:00019d10       _pjsip_to_hdr_init         00482d10 f   pjsip-core-i386-win32-vc8-debug:sip_msg.obj
 0002:00019d70       _pjsip_unsupported_hdr_create 00482d70 f   pjsip-core-i386-win32-vc8-debug:sip_msg.obj
 0002:00019dc0       _pjsip_unsupported_hdr_init 00482dc0 f   pjsip-core-i386-win32-vc8-debug:sip_msg.obj
 0002:00019eb0       _pjsip_via_hdr_create      00482eb0 f   pjsip-core-i386-win32-vc8-debug:sip_msg.obj
 0002:00019ef0       _pjsip_via_hdr_init        00482ef0 f   pjsip-core-i386-win32-vc8-debug:sip_msg.obj
 0002:00019f70       _pjsip_warning_hdr_create  00482f70 f   pjsip-core-i386-win32-vc8-debug:sip_msg.obj
 0002:0001a020       _pjsip_warning_hdr_create_from_status 00483020 f   pjsip-core-i386-win32-vc8-debug:sip_msg.obj
 0002:0001a840       _pjsip_rx_data_clone       00483840 f   pjsip-core-i386-win32-vc8-debug:sip_transport.obj
 0002:0001ac60       _pjsip_rx_data_free_cloned 00483c60 f   pjsip-core-i386-win32-vc8-debug:sip_transport.obj
 0002:0001ace0       _pjsip_rx_data_get_info    00483ce0 f   pjsip-core-i386-win32-vc8-debug:sip_transport.obj
 0002:0001adf0       _pjsip_tpmgr_acquire_transport 00483df0 f   pjsip-core-i386-win32-vc8-debug:sip_transport.obj
 0002:0001ae30       _pjsip_tpmgr_acquire_transport2 00483e30 f   pjsip-core-i386-win32-vc8-debug:sip_transport.obj
 0002:0001b250       _pjsip_tpmgr_create        00484250 f   pjsip-core-i386-win32-vc8-debug:sip_transport.obj
 0002:0001b450       _pjsip_tpmgr_destroy       00484450 f   pjsip-core-i386-win32-vc8-debug:sip_transport.obj
 0002:0001b6a0       _pjsip_tpmgr_dump_transports 004846a0 f   pjsip-core-i386-win32-vc8-debug:sip_transport.obj
 0002:0001b8c0       _pjsip_tpmgr_find_local_addr 004848c0 f   pjsip-core-i386-win32-vc8-debug:sip_transport.obj
 0002:0001b940       _pjsip_tpmgr_find_local_addr2 00484940 f   pjsip-core-i386-win32-vc8-debug:sip_transport.obj
 0002:0001bee0       _pjsip_tpmgr_fla2_param_default 00484ee0 f   pjsip-core-i386-win32-vc8-debug:sip_transport.obj
 0002:0001bf10       _pjsip_tpmgr_get_state_cb  00484f10 f   pjsip-core-i386-win32-vc8-debug:sip_transport.obj
 0002:0001bf70       _pjsip_tpmgr_get_transport_count 00484f70 f   pjsip-core-i386-win32-vc8-debug:sip_transport.obj
 0002:0001c000       _pjsip_tpmgr_receive_packet 00485000 f   pjsip-core-i386-win32-vc8-debug:sip_transport.obj
 0002:0001c600       _pjsip_tpmgr_register_tpfactory 00485600 f   pjsip-core-i386-win32-vc8-debug:sip_transport.obj
 0002:0001c6e0       _pjsip_tpmgr_send_raw      004856e0 f   pjsip-core-i386-win32-vc8-debug:sip_transport.obj
 0002:0001c8e0       _pjsip_tpmgr_set_state_cb  004858e0 f   pjsip-core-i386-win32-vc8-debug:sip_transport.obj
 0002:0001c950       _pjsip_tpmgr_unregister_tpfactory 00485950 f   pjsip-core-i386-win32-vc8-debug:sip_transport.obj
 0002:0001c9e0       _pjsip_tpselector_add_ref  004859e0 f   pjsip-core-i386-win32-vc8-debug:sip_transport.obj
 0002:0001ca20       _pjsip_tpselector_dec_ref  00485a20 f   pjsip-core-i386-win32-vc8-debug:sip_transport.obj
 0002:0001ca60       _pjsip_transport_add_ref   00485a60 f   pjsip-core-i386-win32-vc8-debug:sip_transport.obj
 0002:0001cb70       _pjsip_transport_add_state_listener 00485b70 f   pjsip-core-i386-win32-vc8-debug:sip_transport.obj
 0002:0001ccc0       _pjsip_transport_dec_ref   00485cc0 f   pjsip-core-i386-win32-vc8-debug:sip_transport.obj
 0002:0001cea0       _pjsip_transport_destroy   00485ea0 f   pjsip-core-i386-win32-vc8-debug:sip_transport.obj
 0002:0001cf80       _pjsip_transport_get_default_port_for_type 00485f80 f   pjsip-core-i386-win32-vc8-debug:sip_transport.obj
 0002:0001cfb0       _pjsip_transport_get_flag_from_type 00485fb0 f   pjsip-core-i386-win32-vc8-debug:sip_transport.obj
 0002:0001cfe0       _pjsip_transport_get_type_desc 00485fe0 f   pjsip-core-i386-win32-vc8-debug:sip_transport.obj
 0002:0001d010       _pjsip_transport_get_type_from_flag 00486010 f   pjsip-core-i386-win32-vc8-debug:sip_transport.obj
 0002:0001d0a0       _pjsip_transport_get_type_from_name 004860a0 f   pjsip-core-i386-win32-vc8-debug:sip_transport.obj
 0002:0001d150       _pjsip_transport_get_type_name 00486150 f   pjsip-core-i386-win32-vc8-debug:sip_transport.obj
 0002:0001d180       _pjsip_transport_register  00486180 f   pjsip-core-i386-win32-vc8-debug:sip_transport.obj
 0002:0001d2b0       _pjsip_transport_register_type 004862b0 f   pjsip-core-i386-win32-vc8-debug:sip_transport.obj
 0002:0001d460       _pjsip_transport_remove_state_listener 00486460 f   pjsip-core-i386-win32-vc8-debug:sip_transport.obj
 0002:0001d5e0       _pjsip_transport_send      004865e0 f   pjsip-core-i386-win32-vc8-debug:sip_transport.obj
 0002:0001d890       _pjsip_transport_shutdown  00486890 f   pjsip-core-i386-win32-vc8-debug:sip_transport.obj
 0002:0001da10       _pjsip_transport_type_get_af 00486a10 f   pjsip-core-i386-win32-vc8-debug:sip_transport.obj
 0002:0001da50       _pjsip_tx_data_add_ref     00486a50 f   pjsip-core-i386-win32-vc8-debug:sip_transport.obj
 0002:0001da80       _pjsip_tx_data_create      00486a80 f   pjsip-core-i386-win32-vc8-debug:sip_transport.obj
 0002:0001dc60       _pjsip_tx_data_dec_ref     00486c60 f   pjsip-core-i386-win32-vc8-debug:sip_transport.obj
 0002:0001dcf0       _pjsip_tx_data_encode      00486cf0 f   pjsip-core-i386-win32-vc8-debug:sip_transport.obj
 0002:0001deb0       _pjsip_tx_data_get_info    00486eb0 f   pjsip-core-i386-win32-vc8-debug:sip_transport.obj
 0002:0001dfa0       _pjsip_tx_data_invalidate_msg 00486fa0 f   pjsip-core-i386-win32-vc8-debug:sip_transport.obj
 0002:0001dfe0       _pjsip_tx_data_is_valid    00486fe0 f   pjsip-core-i386-win32-vc8-debug:sip_transport.obj
 0002:0001e030       _pjsip_tx_data_set_transport 00487030 f   pjsip-core-i386-win32-vc8-debug:sip_transport.obj
 0002:0001e9e0       _pjsip_endpt_acquire_transport 004879e0 f   pjsip-core-i386-win32-vc8-debug:sip_endpoint.obj
 0002:0001ea20       _pjsip_endpt_acquire_transport2 00487a20 f   pjsip-core-i386-win32-vc8-debug:sip_endpoint.obj
 0002:0001ea70       _pjsip_endpt_add_capability 00487a70 f   pjsip-core-i386-win32-vc8-debug:sip_endpoint.obj
 0002:0001ec70       _pjsip_endpt_atexit        00487c70 f   pjsip-core-i386-win32-vc8-debug:sip_endpoint.obj
 0002:0001ed40       _pjsip_endpt_cancel_timer  00487d40 f   pjsip-core-i386-win32-vc8-debug:sip_endpoint.obj
 0002:0001ed80       _pjsip_endpt_create        00487d80 f   pjsip-core-i386-win32-vc8-debug:sip_endpoint.obj
 0002:0001f260       _pjsip_endpt_create_pool   00488260 f   pjsip-core-i386-win32-vc8-debug:sip_endpoint.obj
 0002:0001f2e0       _pjsip_endpt_create_resolver 004882e0 f   pjsip-core-i386-win32-vc8-debug:sip_endpoint.obj
 0002:0001f370       _pjsip_endpt_create_tdata  00488370 f   pjsip-core-i386-win32-vc8-debug:sip_endpoint.obj
 0002:0001f3a0       _pjsip_endpt_destroy       004883a0 f   pjsip-core-i386-win32-vc8-debug:sip_endpoint.obj
 0002:0001f560       _pjsip_endpt_dump          00488560 f   pjsip-core-i386-win32-vc8-debug:sip_endpoint.obj
 0002:0001f6e0       _pjsip_endpt_get_capability 004886e0 f   pjsip-core-i386-win32-vc8-debug:sip_endpoint.obj
 0002:0001f7d0       _pjsip_endpt_get_ioqueue   004887d0 f   pjsip-core-i386-win32-vc8-debug:sip_endpoint.obj
 0002:0001f7f0       _pjsip_endpt_get_request_headers 004887f0 f   pjsip-core-i386-win32-vc8-debug:sip_endpoint.obj
 0002:0001f810       _pjsip_endpt_get_resolver  00488810 f   pjsip-core-i386-win32-vc8-debug:sip_endpoint.obj
 0002:0001f880       _pjsip_endpt_get_timer_heap 00488880 f   pjsip-core-i386-win32-vc8-debug:sip_endpoint.obj
 0002:0001f8a0       _pjsip_endpt_get_tpmgr     004888a0 f   pjsip-core-i386-win32-vc8-debug:sip_endpoint.obj
 0002:0001f8c0       _pjsip_endpt_handle_events 004888c0 f   pjsip-core-i386-win32-vc8-debug:sip_endpoint.obj
 0002:0001f8f0       _pjsip_endpt_handle_events2 004888f0 f   pjsip-core-i386-win32-vc8-debug:sip_endpoint.obj
 0002:0001fab0       _pjsip_endpt_has_capability 00488ab0 f   pjsip-core-i386-win32-vc8-debug:sip_endpoint.obj
 0002:0001fb80       _pjsip_endpt_log_error     00488b80 f   pjsip-core-i386-win32-vc8-debug:sip_endpoint.obj
 0002:0001fd50       _pjsip_endpt_name          00488d50 f   pjsip-core-i386-win32-vc8-debug:sip_endpoint.obj
 0002:0001fd70       _pjsip_endpt_process_rx_data 00488d70 f   pjsip-core-i386-win32-vc8-debug:sip_endpoint.obj
 0002:00020040       _pjsip_endpt_register_module 00489040 f   pjsip-core-i386-win32-vc8-debug:sip_endpoint.obj
 0002:00020300       _pjsip_endpt_release_pool  00489300 f   pjsip-core-i386-win32-vc8-debug:sip_endpoint.obj
 0002:00020330       _pjsip_endpt_resolve       00489330 f   pjsip-core-i386-win32-vc8-debug:sip_endpoint.obj
 0002:00020370       _pjsip_endpt_schedule_timer 00489370 f   pjsip-core-i386-win32-vc8-debug:sip_endpoint.obj
 0002:000203b0       _pjsip_endpt_set_resolver  004893b0 f   pjsip-core-i386-win32-vc8-debug:sip_endpoint.obj
 0002:000203e0       _pjsip_endpt_unregister_module 004893e0 f   pjsip-core-i386-win32-vc8-debug:sip_endpoint.obj
 0002:000205e0       _pjsip_process_rdata_param_default 004895e0 f   pjsip-core-i386-win32-vc8-debug:sip_endpoint.obj
 0002:00020ee0       _pjsip_endpt_create_ack    00489ee0 f   pjsip-core-i386-win32-vc8-debug:sip_util.obj
 0002:00021290       _pjsip_endpt_create_cancel 0048a290 f   pjsip-core-i386-win32-vc8-debug:sip_util.obj
 0002:000216e0       _pjsip_endpt_create_request 0048a6e0 f   pjsip-core-i386-win32-vc8-debug:sip_util.obj
 0002:00021ac0       _pjsip_endpt_create_request_from_hdr 0048aac0 f   pjsip-core-i386-win32-vc8-debug:sip_util.obj
 0002:00021df0       _pjsip_endpt_create_response 0048adf0 f   pjsip-core-i386-win32-vc8-debug:sip_util.obj
 0002:00022290       _pjsip_endpt_respond_stateless 0048b290 f   pjsip-core-i386-win32-vc8-debug:sip_util.obj
 0002:00022530       _pjsip_endpt_send_raw      0048b530 f   pjsip-core-i386-win32-vc8-debug:sip_util.obj
 0002:00022590       _pjsip_endpt_send_raw_to_uri 0048b590 f   pjsip-core-i386-win32-vc8-debug:sip_util.obj
 0002:000227f0       _pjsip_endpt_send_request_stateless 0048b7f0 f   pjsip-core-i386-win32-vc8-debug:sip_util.obj
 0002:00022980       _pjsip_endpt_send_response 0048b980 f   pjsip-core-i386-win32-vc8-debug:sip_util.obj
 0002:00022b10       _pjsip_endpt_send_response2 0048bb10 f   pjsip-core-i386-win32-vc8-debug:sip_util.obj
 0002:00022bb0       _pjsip_event_str           0048bbb0 f   pjsip-core-i386-win32-vc8-debug:sip_util.obj
 0002:00022bd0       _pjsip_get_request_dest    0048bbd0 f   pjsip-core-i386-win32-vc8-debug:sip_util.obj
 0002:00022cf0       _pjsip_get_response_addr   0048bcf0 f   pjsip-core-i386-win32-vc8-debug:sip_util.obj
 0002:00023160       _pjsip_process_route_set   0048c160 f   pjsip-core-i386-win32-vc8-debug:sip_util.obj
 0002:00023500       _pjsip_restore_strict_route_set 0048c500 f   pjsip-core-i386-win32-vc8-debug:sip_util.obj
 0002:00023640       _pjsip_target_assign_status 0048c640 f   pjsip-core-i386-win32-vc8-debug:sip_util.obj
 0002:000236f0       _pjsip_target_set_add_from_msg 0048c6f0 f   pjsip-core-i386-win32-vc8-debug:sip_util.obj
 0002:00023810       _pjsip_target_set_add_uri  0048c810 f   pjsip-core-i386-win32-vc8-debug:sip_util.obj
 0002:00023990       _pjsip_target_set_get_next 0048c990 f   pjsip-core-i386-win32-vc8-debug:sip_util.obj
 0002:00023a30       _pjsip_target_set_set_current 0048ca30 f   pjsip-core-i386-win32-vc8-debug:sip_util.obj
 0002:00024990       _pjsip_endpt_respond       0048d990 f   pjsip-core-i386-win32-vc8-debug:sip_util_statefull.obj
 0002:00024b90       _pjsip_endpt_send_request  0048db90 f   pjsip-core-i386-win32-vc8-debug:sip_util_statefull.obj
 0002:00025210       _pjsip_udp_transport_attach 0048e210 f   pjsip-core-i386-win32-vc8-debug:sip_transport_udp.obj
 0002:00025250       _pjsip_udp_transport_attach2 0048e250 f   pjsip-core-i386-win32-vc8-debug:sip_transport_udp.obj
 0002:00025290       _pjsip_udp_transport_get_socket 0048e290 f   pjsip-core-i386-win32-vc8-debug:sip_transport_udp.obj
 0002:00025300       _pjsip_udp_transport_pause 0048e300 f   pjsip-core-i386-win32-vc8-debug:sip_transport_udp.obj
 0002:00025530       _pjsip_udp_transport_restart 0048e530 f   pjsip-core-i386-win32-vc8-debug:sip_transport_udp.obj
 0002:00025880       _pjsip_udp_transport_start 0048e880 f   pjsip-core-i386-win32-vc8-debug:sip_transport_udp.obj
 0002:000259b0       _pjsip_udp_transport_start6 0048e9b0 f   pjsip-core-i386-win32-vc8-debug:sip_transport_udp.obj
 0002:00027c50       _pjsip_tcp_transport_cfg_default 00490c50 f   pjsip-core-i386-win32-vc8-debug:sip_transport_tcp.obj
 0002:00027cc0       _pjsip_tcp_transport_start 00490cc0 f   pjsip-core-i386-win32-vc8-debug:sip_transport_tcp.obj
 0002:00027d00       _pjsip_tcp_transport_start2 00490d00 f   pjsip-core-i386-win32-vc8-debug:sip_transport_tcp.obj
 0002:00027dd0       _pjsip_tcp_transport_start3 00490dd0 f   pjsip-core-i386-win32-vc8-debug:sip_transport_tcp.obj
 0002:0002c210       _pjsip_rdata_get_tsx       00495210 f   pjsip-core-i386-win32-vc8-debug:sip_transaction.obj
 0002:0002c240       _pjsip_role_name           00495240 f   pjsip-core-i386-win32-vc8-debug:sip_transaction.obj
 0002:0002c260       _pjsip_tsx_create_key      00495260 f   pjsip-core-i386-win32-vc8-debug:sip_transaction.obj
 0002:0002c300       _pjsip_tsx_create_uac      00495300 f   pjsip-core-i386-win32-vc8-debug:sip_transaction.obj
 0002:0002c330       _pjsip_tsx_create_uac2     00495330 f   pjsip-core-i386-win32-vc8-debug:sip_transaction.obj
 0002:0002c800       _pjsip_tsx_create_uas      00495800 f   pjsip-core-i386-win32-vc8-debug:sip_transaction.obj
 0002:0002c830       _pjsip_tsx_create_uas2     00495830 f   pjsip-core-i386-win32-vc8-debug:sip_transaction.obj
 0002:0002cd10       _pjsip_tsx_layer_destroy   00495d10 f   pjsip-core-i386-win32-vc8-debug:sip_transaction.obj
 0002:0002cd90       _pjsip_tsx_layer_dump      00495d90 f   pjsip-core-i386-win32-vc8-debug:sip_transaction.obj
 0002:0002cf60       _pjsip_tsx_layer_find_tsx  00495f60 f   pjsip-core-i386-win32-vc8-debug:sip_transaction.obj
 0002:0002d030       _pjsip_tsx_layer_get_tsx_count 00496030 f   pjsip-core-i386-win32-vc8-debug:sip_transaction.obj
 0002:0002d0d0       _pjsip_tsx_layer_init_module 004960d0 f   pjsip-core-i386-win32-vc8-debug:sip_transaction.obj
 0002:0002d380       _pjsip_tsx_layer_instance  00496380 f   pjsip-core-i386-win32-vc8-debug:sip_transaction.obj
 0002:0002d3a0       _pjsip_tsx_recv_msg        004963a0 f   pjsip-core-i386-win32-vc8-debug:sip_transaction.obj
 0002:0002d480       _pjsip_tsx_retransmit_no_state 00496480 f   pjsip-core-i386-win32-vc8-debug:sip_transaction.obj
 0002:0002d510       _pjsip_tsx_send_msg        00496510 f   pjsip-core-i386-win32-vc8-debug:sip_transaction.obj
 0002:0002d660       _pjsip_tsx_set_timeout     00496660 f   pjsip-core-i386-win32-vc8-debug:sip_transaction.obj
 0002:0002d7d0       _pjsip_tsx_set_transport   004967d0 f   pjsip-core-i386-win32-vc8-debug:sip_transaction.obj
 0002:0002d8b0       _pjsip_tsx_state_str       004968b0 f   pjsip-core-i386-win32-vc8-debug:sip_transaction.obj
 0002:0002d8d0       _pjsip_tsx_stop_retransmit 004968d0 f   pjsip-core-i386-win32-vc8-debug:sip_transaction.obj
 0002:0002da00       _pjsip_tsx_terminate       00496a00 f   pjsip-core-i386-win32-vc8-debug:sip_transaction.obj
 0002:000304e0       _pjsip_rdata_get_dlg       004994e0 f   pjsip-core-i386-win32-vc8-debug:sip_ua_layer.obj
 0002:00030510       _pjsip_tsx_get_dlg         00499510 f   pjsip-core-i386-win32-vc8-debug:sip_ua_layer.obj
 0002:00030540       _pjsip_ua_destroy          00499540 f   pjsip-core-i386-win32-vc8-debug:sip_ua_layer.obj
 0002:000305c0       _pjsip_ua_dump             004995c0 f   pjsip-core-i386-win32-vc8-debug:sip_ua_layer.obj
 0002:00030840       _pjsip_ua_find_dialog      00499840 f   pjsip-core-i386-win32-vc8-debug:sip_ua_layer.obj
 0002:00030a70       _pjsip_ua_get_dlg_set_count 00499a70 f   pjsip-core-i386-win32-vc8-debug:sip_ua_layer.obj
 0002:00030b10       _pjsip_ua_get_endpt        00499b10 f   pjsip-core-i386-win32-vc8-debug:sip_ua_layer.obj
 0002:00030b60       _pjsip_ua_init_module      00499b60 f   pjsip-core-i386-win32-vc8-debug:sip_ua_layer.obj
 0002:00030c00       _pjsip_ua_instance         00499c00 f   pjsip-core-i386-win32-vc8-debug:sip_ua_layer.obj
 0002:00030c20       _pjsip_ua_register_dlg     00499c20 f   pjsip-core-i386-win32-vc8-debug:sip_ua_layer.obj
 0002:00030f20       _pjsip_ua_unregister_dlg   00499f20 f   pjsip-core-i386-win32-vc8-debug:sip_ua_layer.obj
 0002:00031c90       _pjsip_dlg_add_usage       0049ac90 f   pjsip-core-i386-win32-vc8-debug:sip_dialog.obj
 0002:00031f50       _pjsip_dlg_create_request  0049af50 f   pjsip-core-i386-win32-vc8-debug:sip_dialog.obj
 0002:000320e0       _pjsip_dlg_create_response 0049b0e0 f   pjsip-core-i386-win32-vc8-debug:sip_dialog.obj
 0002:00032180       _pjsip_dlg_create_uac      0049b180 f   pjsip-core-i386-win32-vc8-debug:sip_dialog.obj
 0002:00032910       _pjsip_dlg_create_uas      0049b910 f   pjsip-core-i386-win32-vc8-debug:sip_dialog.obj
 0002:00033260       _pjsip_dlg_dec_lock        0049c260 f   pjsip-core-i386-win32-vc8-debug:sip_dialog.obj
 0002:00033380       _pjsip_dlg_dec_session     0049c380 f   pjsip-core-i386-win32-vc8-debug:sip_dialog.obj
 0002:00033470       _pjsip_dlg_fork            0049c470 f   pjsip-core-i386-win32-vc8-debug:sip_dialog.obj
 0002:00033a40       _pjsip_dlg_get_mod_data    0049ca40 f   pjsip-core-i386-win32-vc8-debug:sip_dialog.obj
 0002:00033af0       _pjsip_dlg_get_remote_cap_hdr 0049caf0 f   pjsip-core-i386-win32-vc8-debug:sip_dialog.obj
 0002:00033c50       _pjsip_dlg_has_usage       0049cc50 f   pjsip-core-i386-win32-vc8-debug:sip_dialog.obj
 0002:00033ce0       _pjsip_dlg_inc_lock        0049cce0 f   pjsip-core-i386-win32-vc8-debug:sip_dialog.obj
 0002:00033d40       _pjsip_dlg_inc_session     0049cd40 f   pjsip-core-i386-win32-vc8-debug:sip_dialog.obj
 0002:00033e40       _pjsip_dlg_modify_response 0049ce40 f   pjsip-core-i386-win32-vc8-debug:sip_dialog.obj
 0002:000340a0       _pjsip_dlg_on_rx_request   0049d0a0 f   pjsip-core-i386-win32-vc8-debug:sip_dialog.obj
 0002:00034590       _pjsip_dlg_on_rx_response  0049d590 f   pjsip-core-i386-win32-vc8-debug:sip_dialog.obj
 0002:00034bc0       _pjsip_dlg_on_tsx_state    0049dbc0 f   pjsip-core-i386-win32-vc8-debug:sip_dialog.obj
 0002:00034d50       _pjsip_dlg_remote_has_cap  0049dd50 f   pjsip-core-i386-win32-vc8-debug:sip_dialog.obj
 0002:00034e70       _pjsip_dlg_remove_remote_cap_hdr 0049de70 f   pjsip-core-i386-win32-vc8-debug:sip_dialog.obj
 0002:00034fa0       _pjsip_dlg_respond         0049dfa0 f   pjsip-core-i386-win32-vc8-debug:sip_dialog.obj
 0002:00035220       _pjsip_dlg_send_request    0049e220 f   pjsip-core-i386-win32-vc8-debug:sip_dialog.obj
 0002:00035620       _pjsip_dlg_send_response   0049e620 f   pjsip-core-i386-win32-vc8-debug:sip_dialog.obj
 0002:000359b0       _pjsip_dlg_set_mod_data    0049e9b0 f   pjsip-core-i386-win32-vc8-debug:sip_dialog.obj
 0002:00035a70       _pjsip_dlg_set_remote_cap_hdr 0049ea70 f   pjsip-core-i386-win32-vc8-debug:sip_dialog.obj
 0002:00035c40       _pjsip_dlg_set_route_set   0049ec40 f   pjsip-core-i386-win32-vc8-debug:sip_dialog.obj
 0002:00035d50       _pjsip_dlg_set_transport   0049ed50 f   pjsip-core-i386-win32-vc8-debug:sip_dialog.obj
 0002:00035e20       _pjsip_dlg_set_via_sent_by 0049ee20 f   pjsip-core-i386-win32-vc8-debug:sip_dialog.obj
 0002:00035f00       _pjsip_dlg_terminate       0049ef00 f   pjsip-core-i386-win32-vc8-debug:sip_dialog.obj
 0002:00035fc0       _pjsip_dlg_try_inc_lock    0049efc0 f   pjsip-core-i386-win32-vc8-debug:sip_dialog.obj
 0002:00036040       _pjsip_dlg_update_remote_cap 0049f040 f   pjsip-core-i386-win32-vc8-debug:sip_dialog.obj
 0002:000362a0       _pjsip_method_creates_dialog 0049f2a0 f   pjsip-core-i386-win32-vc8-debug:sip_dialog.obj
 0002:00036e90       _pjsip_auth_clt_clone      0049fe90 f   pjsip-core-i386-win32-vc8-debug:sip_auth_client.obj
 0002:00037090       _pjsip_auth_clt_get_prefs  004a0090 f   pjsip-core-i386-win32-vc8-debug:sip_auth_client.obj
 0002:00037110       _pjsip_auth_clt_init       004a0110 f   pjsip-core-i386-win32-vc8-debug:sip_auth_client.obj
 0002:000371e0       _pjsip_auth_clt_init_req   004a01e0 f   pjsip-core-i386-win32-vc8-debug:sip_auth_client.obj
 0002:00037570       _pjsip_auth_clt_pref_dup   004a0570 f   pjsip-core-i386-win32-vc8-debug:sip_auth_client.obj
 0002:000375c0       _pjsip_auth_clt_reinit_req 004a05c0 f   pjsip-core-i386-win32-vc8-debug:sip_auth_client.obj
 0002:00037a30       _pjsip_auth_clt_set_credentials 004a0a30 f   pjsip-core-i386-win32-vc8-debug:sip_auth_client.obj
 0002:00037eb0       _pjsip_auth_clt_set_prefs  004a0eb0 f   pjsip-core-i386-win32-vc8-debug:sip_auth_client.obj
 0002:00037f60       _pjsip_auth_create_digest  004a0f60 f   pjsip-core-i386-win32-vc8-debug:sip_auth_client.obj
 0002:000383a0       _pjsip_cred_info_cmp       004a13a0 f   pjsip-core-i386-win32-vc8-debug:sip_auth_client.obj
 0002:00038530       _pjsip_cred_info_dup       004a1530 f   pjsip-core-i386-win32-vc8-debug:sip_auth_client.obj
 0002:00038f60       _deinit_sip_parser         004a1f60 f   pjsip-core-i386-win32-vc8-debug:sip_parser.obj
 0002:0003a5d0       _init_sip_parser           004a35d0 f   pjsip-core-i386-win32-vc8-debug:sip_parser.obj
 0002:0003da10       _pjsip_concat_param_imp    004a6a10 f   pjsip-core-i386-win32-vc8-debug:sip_parser.obj
 0002:0003db50       _pjsip_find_msg            004a6b50 f   pjsip-core-i386-win32-vc8-debug:sip_parser.obj
 0002:0003ded0       _pjsip_parse_end_hdr_imp   004a6ed0 f   pjsip-core-i386-win32-vc8-debug:sip_parser.obj
 0002:0003df00       _pjsip_parse_generic_array_hdr_imp 004a6f00 f   pjsip-core-i386-win32-vc8-debug:sip_parser.obj
 0002:0003df30       _pjsip_parse_hdr           004a6f30 f   pjsip-core-i386-win32-vc8-debug:sip_parser.obj
 0002:0003e0a0       _pjsip_parse_headers       004a70a0 f   pjsip-core-i386-win32-vc8-debug:sip_parser.obj
 0002:0003e3b0       _pjsip_parse_msg           004a73b0 f   pjsip-core-i386-win32-vc8-debug:sip_parser.obj
 0002:0003e430       _pjsip_parse_param_imp     004a7430 f   pjsip-core-i386-win32-vc8-debug:sip_parser.obj
 0002:0003e480       _pjsip_parse_rdata         004a7480 f   pjsip-core-i386-win32-vc8-debug:sip_parser.obj
 0002:0003e510       _pjsip_parse_status_line   004a7510 f   pjsip-core-i386-win32-vc8-debug:sip_parser.obj
 0002:0003e610       _pjsip_parse_uri           004a7610 f   pjsip-core-i386-win32-vc8-debug:sip_parser.obj
 0002:0003e730       _pjsip_parse_uri_param_imp 004a7730 f   pjsip-core-i386-win32-vc8-debug:sip_parser.obj
 0002:0003e780       _pjsip_parser_const        004a7780 f   pjsip-core-i386-win32-vc8-debug:sip_parser.obj
 0002:0003e7a0       _pjsip_register_hdr_parser 004a77a0 f   pjsip-core-i386-win32-vc8-debug:sip_parser.obj
 0002:0003e920       _pjsip_register_uri_parser 004a7920 f   pjsip-core-i386-win32-vc8-debug:sip_parser.obj
 0002:0003f5a0       _pjsip_multipart_add_part  004a85a0 f   pjsip-core-i386-win32-vc8-debug:sip_multipart.obj
 0002:0003f6f0       _pjsip_multipart_clone_part 004a86f0 f   pjsip-core-i386-win32-vc8-debug:sip_multipart.obj
 0002:0003f790       _pjsip_multipart_create    004a8790 f   pjsip-core-i386-win32-vc8-debug:sip_multipart.obj
 0002:0003f980       _pjsip_multipart_create_part 004a8980 f   pjsip-core-i386-win32-vc8-debug:sip_multipart.obj
 0002:0003f9c0       _pjsip_multipart_find_part 004a89c0 f   pjsip-core-i386-win32-vc8-debug:sip_multipart.obj
 0002:0003fae0       _pjsip_multipart_get_first_part 004a8ae0 f   pjsip-core-i386-win32-vc8-debug:sip_multipart.obj
 0002:0003fbb0       _pjsip_multipart_get_next_part 004a8bb0 f   pjsip-core-i386-win32-vc8-debug:sip_multipart.obj
 0002:0003fcf0       _pjsip_multipart_parse     004a8cf0 f   pjsip-core-i386-win32-vc8-debug:sip_multipart.obj
 0002:000415e0       _pjsip_name_addr_assign    004aa5e0 f   pjsip-core-i386-win32-vc8-debug:sip_uri.obj
 0002:00041640       _pjsip_name_addr_create    004aa640 f   pjsip-core-i386-win32-vc8-debug:sip_uri.obj
 0002:00041680       _pjsip_name_addr_init      004aa680 f   pjsip-core-i386-win32-vc8-debug:sip_uri.obj
 0002:000416d0       _pjsip_other_uri_create    004aa6d0 f   pjsip-core-i386-win32-vc8-debug:sip_uri.obj
 0002:00041710       _pjsip_param_clone         004aa710 f   pjsip-core-i386-win32-vc8-debug:sip_uri.obj
 0002:000417d0       _pjsip_param_cmp           004aa7d0 f   pjsip-core-i386-win32-vc8-debug:sip_uri.obj
 0002:000418b0       _pjsip_param_find          004aa8b0 f   pjsip-core-i386-win32-vc8-debug:sip_uri.obj
 0002:00041910       _pjsip_param_print_on      004aa910 f   pjsip-core-i386-win32-vc8-debug:sip_uri.obj
 0002:00041ac0       _pjsip_param_shallow_clone 004aaac0 f   pjsip-core-i386-win32-vc8-debug:sip_uri.obj
 0002:00041b60       _pjsip_sip_uri_assign      004aab60 f   pjsip-core-i386-win32-vc8-debug:sip_uri.obj
 0002:00041cd0       _pjsip_sip_uri_create      004aacd0 f   pjsip-core-i386-win32-vc8-debug:sip_uri.obj
 0002:00041d20       _pjsip_sip_uri_init        004aad20 f   pjsip-core-i386-win32-vc8-debug:sip_uri.obj
 0002:00041d90       _pjsip_sip_uri_set_secure  004aad90 f   pjsip-core-i386-win32-vc8-debug:sip_uri.obj
 0002:00042210       _pjsip_resolve             004ab210 f   pjsip-core-i386-win32-vc8-debug:sip_resolve.obj
 0002:00042cb0       _pjsip_resolver_create     004abcb0 f   pjsip-core-i386-win32-vc8-debug:sip_resolve.obj
 0002:00042d40       _pjsip_resolver_destroy    004abd40 f   pjsip-core-i386-win32-vc8-debug:sip_resolve.obj
 0002:00042d80       _pjsip_resolver_get_resolver 004abd80 f   pjsip-core-i386-win32-vc8-debug:sip_resolve.obj
 0002:00042da0       _pjsip_resolver_set_resolver 004abda0 f   pjsip-core-i386-win32-vc8-debug:sip_resolve.obj
 0002:00043030       _pjsip_strerror            004ac030 f   pjsip-core-i386-win32-vc8-debug:sip_errno.obj
 0002:00043a40       _pjsip_tel_nb_cmp          004aca40 f   pjsip-core-i386-win32-vc8-debug:sip_tel_uri.obj
 0002:00043c00       _pjsip_tel_uri_create      004acc00 f   pjsip-core-i386-win32-vc8-debug:sip_tel_uri.obj
 0002:00043c50       _pjsip_tel_uri_subsys_init 004acc50 f   pjsip-core-i386-win32-vc8-debug:sip_tel_uri.obj
 0002:00044ea0       _pjsip_authorization_hdr_create 004adea0 f   pjsip-core-i386-win32-vc8-debug:sip_auth_msg.obj
 0002:00044f00       _pjsip_proxy_authenticate_hdr_create 004adf00 f   pjsip-core-i386-win32-vc8-debug:sip_auth_msg.obj
 0002:00044f60       _pjsip_proxy_authorization_hdr_create 004adf60 f   pjsip-core-i386-win32-vc8-debug:sip_auth_msg.obj
 0002:00044fc0       _pjsip_www_authenticate_hdr_create 004adfc0 f   pjsip-core-i386-win32-vc8-debug:sip_auth_msg.obj
 0002:00046a10       _pjsip_auth_deinit_parser  004afa10 f   pjsip-core-i386-win32-vc8-debug:sip_auth_parser.obj
 0002:00046a30       _pjsip_auth_init_parser    004afa30 f   pjsip-core-i386-win32-vc8-debug:sip_auth_parser.obj
 0002:00047890       _pjmedia_sdp_attr_add      004b0890 f   pjmedia-i386-win32-vc8-debug:sdp.obj
 0002:00047970       _pjmedia_sdp_attr_clone    004b0970 f   pjmedia-i386-win32-vc8-debug:sdp.obj
 0002:00047a20       _pjmedia_sdp_attr_create   004b0a20 f   pjmedia-i386-win32-vc8-debug:sdp.obj
 0002:00047af0       _pjmedia_sdp_attr_create_rtcp 004b0af0 f   pjmedia-i386-win32-vc8-debug:sdp.obj
 0002:00047c70       _pjmedia_sdp_attr_find     004b0c70 f   pjmedia-i386-win32-vc8-debug:sdp.obj
 0002:00047d40       _pjmedia_sdp_attr_find2    004b0d40 f   pjmedia-i386-win32-vc8-debug:sdp.obj
 0002:00047d90       _pjmedia_sdp_attr_get_fmtp 004b0d90 f   pjmedia-i386-win32-vc8-debug:sdp.obj
 0002:00047ed0       _pjmedia_sdp_attr_get_rtcp 004b0ed0 f   pjmedia-i386-win32-vc8-debug:sdp.obj
 0002:000480e0       _pjmedia_sdp_attr_get_rtpmap 004b10e0 f   pjmedia-i386-win32-vc8-debug:sdp.obj
 0002:00048450       _pjmedia_sdp_attr_remove   004b1450 f   pjmedia-i386-win32-vc8-debug:sdp.obj
 0002:00048560       _pjmedia_sdp_attr_remove_all 004b1560 f   pjmedia-i386-win32-vc8-debug:sdp.obj
 0002:00048680       _pjmedia_sdp_attr_to_rtpmap 004b1680 f   pjmedia-i386-win32-vc8-debug:sdp.obj
 0002:00048770       _pjmedia_sdp_bandw_clone   004b1770 f   pjmedia-i386-win32-vc8-debug:sdp.obj
 0002:000487e0       _pjmedia_sdp_conn_clone    004b17e0 f   pjmedia-i386-win32-vc8-debug:sdp.obj
 0002:000488a0       _pjmedia_sdp_media_add_attr 004b18a0 f   pjmedia-i386-win32-vc8-debug:sdp.obj
 0002:000488e0       _pjmedia_sdp_media_clone   004b18e0 f   pjmedia-i386-win32-vc8-debug:sdp.obj
 0002:00048c40       _pjmedia_sdp_media_clone_deactivate 004b1c40 f   pjmedia-i386-win32-vc8-debug:sdp.obj
 0002:00048ed0       _pjmedia_sdp_media_deactivate 004b1ed0 f   pjmedia-i386-win32-vc8-debug:sdp.obj
 0002:00048f40       _pjmedia_sdp_media_find_attr 004b1f40 f   pjmedia-i386-win32-vc8-debug:sdp.obj
 0002:00048fd0       _pjmedia_sdp_media_find_attr2 004b1fd0 f   pjmedia-i386-win32-vc8-debug:sdp.obj
 0002:00049060       _pjmedia_sdp_media_remove_all_attr 004b2060 f   pjmedia-i386-win32-vc8-debug:sdp.obj
 0002:000490a0       _pjmedia_sdp_media_remove_attr 004b20a0 f   pjmedia-i386-win32-vc8-debug:sdp.obj
 0002:000490e0       _pjmedia_sdp_parse         004b20e0 f   pjmedia-i386-win32-vc8-debug:sdp.obj
 0002:00049760       _pjmedia_sdp_print         004b2760 f   pjmedia-i386-win32-vc8-debug:sdp.obj
 0002:00049790       _pjmedia_sdp_rtpmap_to_attr 004b2790 f   pjmedia-i386-win32-vc8-debug:sdp.obj
 0002:00049a10       _pjmedia_sdp_session_add_attr 004b2a10 f   pjmedia-i386-win32-vc8-debug:sdp.obj
 0002:00049a50       _pjmedia_sdp_session_clone 004b2a50 f   pjmedia-i386-win32-vc8-debug:sdp.obj
 0002:00049d90       _pjmedia_sdp_transport_cmp 004b2d90 f   pjmedia-i386-win32-vc8-debug:sdp.obj
 0002:00049e40       _pjmedia_sdp_validate      004b2e40 f   pjmedia-i386-win32-vc8-debug:sdp.obj
 0002:00049e70       _pjmedia_sdp_validate2     004b2e70 f   pjmedia-i386-win32-vc8-debug:sdp.obj
 0002:0004c050       _pjmedia_sdp_neg_cancel_offer 004b5050 f   pjmedia-i386-win32-vc8-debug:sdp_neg.obj
 0002:0004c160       _pjmedia_sdp_neg_create_w_local_offer 004b5160 f   pjmedia-i386-win32-vc8-debug:sdp_neg.obj
 0002:0004c310       _pjmedia_sdp_neg_create_w_remote_offer 004b5310 f   pjmedia-i386-win32-vc8-debug:sdp_neg.obj
 0002:0004c510       _pjmedia_sdp_neg_fmt_match 004b5510 f   pjmedia-i386-win32-vc8-debug:sdp_neg.obj
 0002:0004c6e0       _pjmedia_sdp_neg_get_active_local 004b56e0 f   pjmedia-i386-win32-vc8-debug:sdp_neg.obj
 0002:0004c7a0       _pjmedia_sdp_neg_get_active_remote 004b57a0 f   pjmedia-i386-win32-vc8-debug:sdp_neg.obj
 0002:0004c860       _pjmedia_sdp_neg_get_neg_local 004b5860 f   pjmedia-i386-win32-vc8-debug:sdp_neg.obj
 0002:0004c920       _pjmedia_sdp_neg_get_neg_remote 004b5920 f   pjmedia-i386-win32-vc8-debug:sdp_neg.obj
 0002:0004c9e0       _pjmedia_sdp_neg_get_state 004b59e0 f   pjmedia-i386-win32-vc8-debug:sdp_neg.obj
 0002:0004ca40       _pjmedia_sdp_neg_has_local_answer 004b5a40 f   pjmedia-i386-win32-vc8-debug:sdp_neg.obj
 0002:0004cab0       _pjmedia_sdp_neg_modify_local_offer 004b5ab0 f   pjmedia-i386-win32-vc8-debug:sdp_neg.obj
 0002:0004cae0       _pjmedia_sdp_neg_modify_local_offer2 004b5ae0 f   pjmedia-i386-win32-vc8-debug:sdp_neg.obj
 0002:0004cf20       _pjmedia_sdp_neg_negotiate 004b5f20 f   pjmedia-i386-win32-vc8-debug:sdp_neg.obj
 0002:0004d170       _pjmedia_sdp_neg_register_fmt_match_cb 004b6170 f   pjmedia-i386-win32-vc8-debug:sdp_neg.obj
 0002:0004d300       _pjmedia_sdp_neg_send_local_offer 004b6300 f   pjmedia-i386-win32-vc8-debug:sdp_neg.obj
 0002:0004d470       _pjmedia_sdp_neg_set_answer_multiple_codecs 004b6470 f   pjmedia-i386-win32-vc8-debug:sdp_neg.obj
 0002:0004d4d0       _pjmedia_sdp_neg_set_local_answer 004b64d0 f   pjmedia-i386-win32-vc8-debug:sdp_neg.obj
 0002:0004d670       _pjmedia_sdp_neg_set_prefer_remote_codec_order 004b6670 f   pjmedia-i386-win32-vc8-debug:sdp_neg.obj
 0002:0004d6d0       _pjmedia_sdp_neg_set_remote_answer 004b66d0 f   pjmedia-i386-win32-vc8-debug:sdp_neg.obj
 0002:0004d7c0       _pjmedia_sdp_neg_set_remote_offer 004b67c0 f   pjmedia-i386-win32-vc8-debug:sdp_neg.obj
 0002:0004d8a0       _pjmedia_sdp_neg_state_str 004b68a0 f   pjmedia-i386-win32-vc8-debug:sdp_neg.obj
 0002:0004d8e0       _pjmedia_sdp_neg_was_answer_remote 004b68e0 f   pjmedia-i386-win32-vc8-debug:sdp_neg.obj
 0002:0004e8b0       _pjlib_util_init           004b78b0 f   pjlib-util-i386-win32-vc8-debug:errno.obj
 0002:0004e910       _pjlib_util_strerror       004b7910 f   pjlib-util-i386-win32-vc8-debug:errno.obj
 0002:0004fab0       _pj_getopt                 004b8ab0 f   pjlib-util-i386-win32-vc8-debug:getopt.obj
 0002:0004faf0       _pj_getopt_long            004b8af0 f   pjlib-util-i386-win32-vc8-debug:getopt.obj
 0002:0004fb60       _pj_cis_add_alpha          004b8b60 f   pjlib-util-i386-win32-vc8-debug:scanner.obj
 0002:0004fba0       _pj_cis_add_cis            004b8ba0 f   pjlib-util-i386-win32-vc8-debug:scanner.obj
 0002:0004fc30       _pj_cis_add_num            004b8c30 f   pjlib-util-i386-win32-vc8-debug:scanner.obj
 0002:0004fc60       _pj_cis_add_range          004b8c60 f   pjlib-util-i386-win32-vc8-debug:scanner.obj
 0002:0004fce0       _pj_cis_add_str            004b8ce0 f   pjlib-util-i386-win32-vc8-debug:scanner.obj
 0002:0004fd50       _pj_cis_buf_init           004b8d50 f   pjlib-util-i386-win32-vc8-debug:scanner.obj
 0002:0004fd90       _pj_cis_del_range          004b8d90 f   pjlib-util-i386-win32-vc8-debug:scanner.obj
 0002:0004fdf0       _pj_cis_del_str            004b8df0 f   pjlib-util-i386-win32-vc8-debug:scanner.obj
 0002:0004fe60       _pj_cis_dup                004b8e60 f   pjlib-util-i386-win32-vc8-debug:scanner.obj
 0002:0004ff50       _pj_cis_init               004b8f50 f   pjlib-util-i386-win32-vc8-debug:scanner.obj
 0002:0004fff0       _pj_cis_invert             004b8ff0 f   pjlib-util-i386-win32-vc8-debug:scanner.obj
 0002:000501b0       _pj_scan_advance_n         004b91b0 f   pjlib-util-i386-win32-vc8-debug:scanner.obj
 0002:00050230       _pj_scan_fini              004b9230 f   pjlib-util-i386-win32-vc8-debug:scanner.obj
 0002:00050260       _pj_scan_get               004b9260 f   pjlib-util-i386-win32-vc8-debug:scanner.obj
 0002:00050360       _pj_scan_get_char          004b9360 f   pjlib-util-i386-win32-vc8-debug:scanner.obj
 0002:000503e0       _pj_scan_get_n             004b93e0 f   pjlib-util-i386-win32-vc8-debug:scanner.obj
 0002:00050480       _pj_scan_get_newline       004b9480 f   pjlib-util-i386-win32-vc8-debug:scanner.obj
 0002:00050540       _pj_scan_get_quote         004b9540 f   pjlib-util-i386-win32-vc8-debug:scanner.obj
 0002:00050590       _pj_scan_get_quotes        004b9590 f   pjlib-util-i386-win32-vc8-debug:scanner.obj
 0002:000507b0       _pj_scan_get_unescape      004b97b0 f   pjlib-util-i386-win32-vc8-debug:scanner.obj
 0002:00050a60       _pj_scan_get_until         004b9a60 f   pjlib-util-i386-win32-vc8-debug:scanner.obj
 0002:00050b30       _pj_scan_get_until_ch      004b9b30 f   pjlib-util-i386-win32-vc8-debug:scanner.obj
 0002:00050bf0       _pj_scan_get_until_chr     004b9bf0 f   pjlib-util-i386-win32-vc8-debug:scanner.obj
 0002:00050ce0       _pj_scan_init              004b9ce0 f   pjlib-util-i386-win32-vc8-debug:scanner.obj
 0002:00050d80       _pj_scan_peek              004b9d80 f   pjlib-util-i386-win32-vc8-debug:scanner.obj
 0002:00050e20       _pj_scan_peek_n            004b9e20 f   pjlib-util-i386-win32-vc8-debug:scanner.obj
 0002:00050e90       _pj_scan_peek_until        004b9e90 f   pjlib-util-i386-win32-vc8-debug:scanner.obj
 0002:00050f30       _pj_scan_restore_state     004b9f30 f   pjlib-util-i386-win32-vc8-debug:scanner.obj
 0002:00050f70       _pj_scan_save_state        004b9f70 f   pjlib-util-i386-win32-vc8-debug:scanner.obj
 0002:00050fb0       _pj_scan_skip_line         004b9fb0 f   pjlib-util-i386-win32-vc8-debug:scanner.obj
 0002:00051030       _pj_scan_skip_whitespace   004ba030 f   pjlib-util-i386-win32-vc8-debug:scanner.obj
 0002:00051290       _pj_scan_strcmp            004ba290 f   pjlib-util-i386-win32-vc8-debug:scanner.obj
 0002:000512f0       _pj_scan_stricmp           004ba2f0 f   pjlib-util-i386-win32-vc8-debug:scanner.obj
 0002:00051350       _pj_scan_stricmp_alnum     004ba350 f   pjlib-util-i386-win32-vc8-debug:scanner.obj
 0002:00051510       _pj_str_unescape           004ba510 f   pjlib-util-i386-win32-vc8-debug:string.obj
 0002:000516b0       _pj_strcpy_unescape        004ba6b0 f   pjlib-util-i386-win32-vc8-debug:string.obj
 0002:000517a0       _pj_strncpy2_escape        004ba7a0 f   pjlib-util-i386-win32-vc8-debug:string.obj
 0002:000518e0       _pj_strncpy_escape         004ba8e0 f   pjlib-util-i386-win32-vc8-debug:string.obj
 0002:000528d0       _pj_dns_parse_a_response   004bb8d0 f   pjlib-util-i386-win32-vc8-debug:resolver.obj
 0002:00052d50       _pj_dns_resolver_add_entry 004bbd50 f   pjlib-util-i386-win32-vc8-debug:resolver.obj
 0002:000530b0       _pj_dns_resolver_cancel_query 004bc0b0 f   pjlib-util-i386-win32-vc8-debug:resolver.obj
 0002:00053180       _pj_dns_resolver_create    004bc180 f   pjlib-util-i386-win32-vc8-debug:resolver.obj
 0002:00053410       _pj_dns_resolver_destroy   004bc410 f   pjlib-util-i386-win32-vc8-debug:resolver.obj
 0002:00053700       _pj_dns_resolver_dump      004bc700 f   pjlib-util-i386-win32-vc8-debug:resolver.obj
 0002:00053b90       _pj_dns_resolver_get_cached_count 004bcb90 f   pjlib-util-i386-win32-vc8-debug:resolver.obj
 0002:00053c30       _pj_dns_resolver_get_settings 004bcc30 f   pjlib-util-i386-win32-vc8-debug:resolver.obj
 0002:00053ce0       _pj_dns_resolver_handle_events 004bcce0 f   pjlib-util-i386-win32-vc8-debug:resolver.obj
 0002:00053d80       _pj_dns_resolver_set_ns    004bcd80 f   pjlib-util-i386-win32-vc8-debug:resolver.obj
 0002:00053f90       _pj_dns_resolver_set_settings 004bcf90 f   pjlib-util-i386-win32-vc8-debug:resolver.obj
 0002:00054040       _pj_dns_resolver_start_query 004bd040 f   pjlib-util-i386-win32-vc8-debug:resolver.obj
 0002:000546d0       _pj_dns_settings_default   004bd6d0 f   pjlib-util-i386-win32-vc8-debug:resolver.obj
 0002:00056c50       _pj_md5_final              004bfc50 f   pjlib-util-i386-win32-vc8-debug:md5.obj
 0002:00056da0       _pj_md5_init               004bfda0 f   pjlib-util-i386-win32-vc8-debug:md5.obj
 0002:00056e40       _pj_md5_update             004bfe40 f   pjlib-util-i386-win32-vc8-debug:md5.obj
 0002:00057e20       _pj_dns_get_type_name      004c0e20 f   pjlib-util-i386-win32-vc8-debug:dns.obj
 0002:00057f20       _pj_dns_init_a_rr          004c0f20 f   pjlib-util-i386-win32-vc8-debug:dns.obj
 0002:00057f90       _pj_dns_init_cname_rr      004c0f90 f   pjlib-util-i386-win32-vc8-debug:dns.obj
 0002:00058010       _pj_dns_init_srv_rr        004c1010 f   pjlib-util-i386-win32-vc8-debug:dns.obj
 0002:000580b0       _pj_dns_make_query         004c10b0 f   pjlib-util-i386-win32-vc8-debug:dns.obj
 0002:00058320       _pj_dns_packet_dup         004c1320 f   pjlib-util-i386-win32-vc8-debug:dns.obj
 0002:00058770       _pj_dns_parse_packet       004c1770 f   pjlib-util-i386-win32-vc8-debug:dns.obj
 0002:0005a1c0       _pj_dns_srv_cancel_query   004c31c0 f   pjlib-util-i386-win32-vc8-debug:srv_resolver.obj
 0002:0005a2e0       _pj_dns_srv_resolve        004c32e0 f   pjlib-util-i386-win32-vc8-debug:srv_resolver.obj
 0002:0005a8a0       _pj_atexit                 004c38a0 f   pjlib-i386-win32-vc8-debug:os_core_win32.obj
 0002:0005a8f0       _pj_atomic_add             004c38f0 f   pjlib-i386-win32-vc8-debug:os_core_win32.obj
 0002:0005a910       _pj_atomic_add_and_get     004c3910 f   pjlib-i386-win32-vc8-debug:os_core_win32.obj
 0002:0005a940       _pj_atomic_create          004c3940 f   pjlib-i386-win32-vc8-debug:os_core_win32.obj
 0002:0005a990       _pj_atomic_dec             004c3990 f   pjlib-i386-win32-vc8-debug:os_core_win32.obj
 0002:0005a9c0       _pj_atomic_dec_and_get     004c39c0 f   pjlib-i386-win32-vc8-debug:os_core_win32.obj
 0002:0005aa00       _pj_atomic_destroy         004c3a00 f   pjlib-i386-win32-vc8-debug:os_core_win32.obj
 0002:0005aa60       _pj_atomic_get             004c3a60 f   pjlib-i386-win32-vc8-debug:os_core_win32.obj
 0002:0005aad0       _pj_atomic_inc             004c3ad0 f   pjlib-i386-win32-vc8-debug:os_core_win32.obj
 0002:0005ab00       _pj_atomic_inc_and_get     004c3b00 f   pjlib-i386-win32-vc8-debug:os_core_win32.obj
 0002:0005ab50       _pj_atomic_set             004c3b50 f   pjlib-i386-win32-vc8-debug:os_core_win32.obj
 0002:0005ac40       _pj_enter_critical_section 004c3c40 f   pjlib-i386-win32-vc8-debug:os_core_win32.obj
 0002:0005ac70       _pj_event_create           004c3c70 f   pjlib-i386-win32-vc8-debug:os_core_win32.obj
 0002:0005ae60       _pj_event_destroy          004c3e60 f   pjlib-i386-win32-vc8-debug:os_core_win32.obj
 0002:0005af50       _pj_event_pulse            004c3f50 f   pjlib-i386-win32-vc8-debug:os_core_win32.obj
 0002:0005b040       _pj_event_reset            004c4040 f   pjlib-i386-win32-vc8-debug:os_core_win32.obj
 0002:0005b130       _pj_event_set              004c4130 f   pjlib-i386-win32-vc8-debug:os_core_win32.obj
 0002:0005b220       _pj_event_trywait          004c4220 f   pjlib-i386-win32-vc8-debug:os_core_win32.obj
 0002:0005b290       _pj_event_wait             004c4290 f   pjlib-i386-win32-vc8-debug:os_core_win32.obj
 0002:0005b430       _pj_getpid                 004c4430 f   pjlib-i386-win32-vc8-debug:os_core_win32.obj
 0002:0005b470       _pj_init                   004c4470 f   pjlib-i386-win32-vc8-debug:os_core_win32.obj
 0002:0005b6d0       _pj_leave_critical_section 004c46d0 f   pjlib-i386-win32-vc8-debug:os_core_win32.obj
 0002:0005b700       _pj_mutex_create           004c4700 f   pjlib-i386-win32-vc8-debug:os_core_win32.obj
 0002:0005b7c0       _pj_mutex_create_recursive 004c47c0 f   pjlib-i386-win32-vc8-debug:os_core_win32.obj
 0002:0005b7f0       _pj_mutex_create_simple    004c47f0 f   pjlib-i386-win32-vc8-debug:os_core_win32.obj
 0002:0005b820       _pj_mutex_destroy          004c4820 f   pjlib-i386-win32-vc8-debug:os_core_win32.obj
 0002:0005b8b0       _pj_mutex_is_locked        004c48b0 f   pjlib-i386-win32-vc8-debug:os_core_win32.obj
 0002:0005b8f0       _pj_mutex_lock             004c48f0 f   pjlib-i386-win32-vc8-debug:os_core_win32.obj
 0002:0005b9c0       _pj_mutex_trylock          004c49c0 f   pjlib-i386-win32-vc8-debug:os_core_win32.obj
 0002:0005bab0       _pj_mutex_unlock           004c4ab0 f   pjlib-i386-win32-vc8-debug:os_core_win32.obj
 0002:0005bbb0       _pj_run_app                004c4bb0 f   pjlib-i386-win32-vc8-debug:os_core_win32.obj
 0002:0005bbe0       _pj_rwmutex_create         004c4be0 f   pjlib-i386-win32-vc8-debug:os_core_win32.obj
 0002:0005bcf0       _pj_rwmutex_destroy        004c4cf0 f   pjlib-i386-win32-vc8-debug:os_core_win32.obj
 0002:0005bd70       _pj_rwmutex_lock_read      004c4d70 f   pjlib-i386-win32-vc8-debug:os_core_win32.obj
 0002:0005bea0       _pj_rwmutex_lock_write     004c4ea0 f   pjlib-i386-win32-vc8-debug:os_core_win32.obj
 0002:0005bf10       _pj_rwmutex_unlock_read    004c4f10 f   pjlib-i386-win32-vc8-debug:os_core_win32.obj
 0002:0005c030       _pj_rwmutex_unlock_write   004c5030 f   pjlib-i386-win32-vc8-debug:os_core_win32.obj
 0002:0005c0d0       _pj_sem_create             004c50d0 f   pjlib-i386-win32-vc8-debug:os_core_win32.obj
 0002:0005c270       _pj_sem_destroy            004c5270 f   pjlib-i386-win32-vc8-debug:os_core_win32.obj
 0002:0005c360       _pj_sem_post               004c5360 f   pjlib-i386-win32-vc8-debug:os_core_win32.obj
 0002:0005c450       _pj_sem_trywait            004c5450 f   pjlib-i386-win32-vc8-debug:os_core_win32.obj
 0002:0005c4d0       _pj_sem_wait               004c54d0 f   pjlib-i386-win32-vc8-debug:os_core_win32.obj
 0002:0005c680       _pj_shutdown               004c5680 f   pjlib-i386-win32-vc8-debug:os_core_win32.obj
 0002:0005c810       _pj_term_get_color         004c5810 f   pjlib-i386-win32-vc8-debug:os_core_win32.obj
 0002:0005c880       _pj_term_set_color         004c5880 f   pjlib-i386-win32-vc8-debug:os_core_win32.obj
 0002:0005c950       _pj_thread_check_stack     004c5950 f   pjlib-i386-win32-vc8-debug:os_core_win32.obj
 0002:0005ca50       _pj_thread_create          004c5a50 f   pjlib-i386-win32-vc8-debug:os_core_win32.obj
 0002:0005cc90       _pj_thread_destroy         004c5c90 f   pjlib-i386-win32-vc8-debug:os_core_win32.obj
 0002:0005cd70       _pj_thread_get_name        004c5d70 f   pjlib-i386-win32-vc8-debug:os_core_win32.obj
 0002:0005cdf0       _pj_thread_get_os_handle   004c5df0 f   pjlib-i386-win32-vc8-debug:os_core_win32.obj
 0002:0005ce50       _pj_thread_get_prio        004c5e50 f   pjlib-i386-win32-vc8-debug:os_core_win32.obj
 0002:0005ce80       _pj_thread_get_prio_max    004c5e80 f   pjlib-i386-win32-vc8-debug:os_core_win32.obj
 0002:0005cea0       _pj_thread_get_prio_min    004c5ea0 f   pjlib-i386-win32-vc8-debug:os_core_win32.obj
 0002:0005cec0       _pj_thread_get_stack_info  004c5ec0 f   pjlib-i386-win32-vc8-debug:os_core_win32.obj
 0002:0005cf20       _pj_thread_get_stack_max_usage 004c5f20 f   pjlib-i386-win32-vc8-debug:os_core_win32.obj
 0002:0005cf40       _pj_thread_init            004c5f40 f   pjlib-i386-win32-vc8-debug:os_core_win32.obj
 0002:0005cfa0       _pj_thread_is_registered   004c5fa0 f   pjlib-i386-win32-vc8-debug:os_core_win32.obj
 0002:0005cff0       _pj_thread_join            004c5ff0 f   pjlib-i386-win32-vc8-debug:os_core_win32.obj
 0002:0005d120       _pj_thread_local_alloc     004c6120 f   pjlib-i386-win32-vc8-debug:os_core_win32.obj
 0002:0005d1e0       _pj_thread_local_free      004c61e0 f   pjlib-i386-win32-vc8-debug:os_core_win32.obj
 0002:0005d220       _pj_thread_local_get       004c6220 f   pjlib-i386-win32-vc8-debug:os_core_win32.obj
 0002:0005d240       _pj_thread_local_set       004c6240 f   pjlib-i386-win32-vc8-debug:os_core_win32.obj
 0002:0005d2d0       _pj_thread_register        004c62d0 f   pjlib-i386-win32-vc8-debug:os_core_win32.obj
 0002:0005d440       _pj_thread_resume          004c6440 f   pjlib-i386-win32-vc8-debug:os_core_win32.obj
 0002:0005d520       _pj_thread_set_prio        004c6520 f   pjlib-i386-win32-vc8-debug:os_core_win32.obj
 0002:0005d630       _pj_thread_sleep           004c6630 f   pjlib-i386-win32-vc8-debug:os_core_win32.obj
 0002:0005d670       _pj_thread_this            004c6670 f   pjlib-i386-win32-vc8-debug:os_core_win32.obj
 0002:0005d850       _pj_errno_clear_handlers   004c6850 f   pjlib-i386-win32-vc8-debug:errno.obj
 0002:0005d8c0       _pj_perror                 004c68c0 f   pjlib-i386-win32-vc8-debug:errno.obj
 0002:0005d910       _pj_perror_1               004c6910 f   pjlib-i386-win32-vc8-debug:errno.obj
 0002:0005d960       _pj_perror_2               004c6960 f   pjlib-i386-win32-vc8-debug:errno.obj
 0002:0005d9b0       _pj_perror_3               004c69b0 f   pjlib-i386-win32-vc8-debug:errno.obj
 0002:0005da00       _pj_perror_4               004c6a00 f   pjlib-i386-win32-vc8-debug:errno.obj
 0002:0005da50       _pj_perror_5               004c6a50 f   pjlib-i386-win32-vc8-debug:errno.obj
 0002:0005db70       _pj_register_strerror      004c6b70 f   pjlib-i386-win32-vc8-debug:errno.obj
 0002:0005dda0       _pj_strerror               004c6da0 f   pjlib-i386-win32-vc8-debug:errno.obj
 0002:0005e100       _pj_list_erase             004c7100 f   pjlib-i386-win32-vc8-debug:list.obj
 0002:0005e140       _pj_list_find_node         004c7140 f   pjlib-i386-win32-vc8-debug:list.obj
 0002:0005e1e0       _pj_list_insert_after      004c71e0 f   pjlib-i386-win32-vc8-debug:list.obj
 0002:0005e230       _pj_list_insert_before     004c7230 f   pjlib-i386-win32-vc8-debug:list.obj
 0002:0005e260       _pj_list_insert_nodes_after 004c7260 f   pjlib-i386-win32-vc8-debug:list.obj
 0002:0005e2c0       _pj_list_insert_nodes_before 004c72c0 f   pjlib-i386-win32-vc8-debug:list.obj
 0002:0005e2f0       _pj_list_merge_first       004c72f0 f   pjlib-i386-win32-vc8-debug:list.obj
 0002:0005e360       _pj_list_merge_last        004c7360 f   pjlib-i386-win32-vc8-debug:list.obj
 0002:0005e3d0       _pj_list_search            004c73d0 f   pjlib-i386-win32-vc8-debug:list.obj
 0002:0005e440       _pj_list_size              004c7440 f   pjlib-i386-win32-vc8-debug:list.obj
 0002:0005e4c0       _pj_getdefaultipinterface  004c74c0 f   pjlib-i386-win32-vc8-debug:sock_common.obj
 0002:0005e540       _pj_gethostaddr            004c7540 f   pjlib-i386-win32-vc8-debug:sock_common.obj
 0002:0005e590       _pj_gethostip              004c7590 f   pjlib-i386-win32-vc8-debug:sock_common.obj
 0002:0005f270       _pj_getipinterface         004c8270 f   pjlib-i386-win32-vc8-debug:sock_common.obj
 0002:0005f4c0       _pj_inet_addr              004c84c0 f   pjlib-i386-win32-vc8-debug:sock_common.obj
 0002:0005f4f0       _pj_inet_addr2             004c84f0 f   pjlib-i386-win32-vc8-debug:sock_common.obj
 0002:0005f530       _pj_inet_ntop2             004c8530 f   pjlib-i386-win32-vc8-debug:sock_common.obj
 0002:0005f620       _pj_sock_bind_random       004c8620 f   pjlib-i386-win32-vc8-debug:sock_common.obj
 0002:0005f7a0       _pj_sock_setsockopt_sobuf  004c87a0 f   pjlib-i386-win32-vc8-debug:sock_common.obj
 0002:0005f9d0       _pj_sockaddr_cmp           004c89d0 f   pjlib-i386-win32-vc8-debug:sock_common.obj
 0002:0005fae0       _pj_sockaddr_copy_addr     004c8ae0 f   pjlib-i386-win32-vc8-debug:sock_common.obj
 0002:0005fb40       _pj_sockaddr_cp            004c8b40 f   pjlib-i386-win32-vc8-debug:sock_common.obj
 0002:0005fb80       _pj_sockaddr_get_addr      004c8b80 f   pjlib-i386-win32-vc8-debug:sock_common.obj
 0002:0005fc50       _pj_sockaddr_get_addr_len  004c8c50 f   pjlib-i386-win32-vc8-debug:sock_common.obj
 0002:0005fd20       _pj_sockaddr_get_len       004c8d20 f   pjlib-i386-win32-vc8-debug:sock_common.obj
 0002:0005fdf0       _pj_sockaddr_get_port      004c8df0 f   pjlib-i386-win32-vc8-debug:sock_common.obj
 0002:0005fee0       _pj_sockaddr_has_addr      004c8ee0 f   pjlib-i386-win32-vc8-debug:sock_common.obj
 0002:0005ffd0       _pj_sockaddr_in_get_addr   004c8fd0 f   pjlib-i386-win32-vc8-debug:sock_common.obj
 0002:00060000       _pj_sockaddr_in_get_port   004c9000 f   pjlib-i386-win32-vc8-debug:sock_common.obj
 0002:00060030       _pj_sockaddr_in_init       004c9030 f   pjlib-i386-win32-vc8-debug:sock_common.obj
 0002:000600e0       _pj_sockaddr_in_set_addr   004c90e0 f   pjlib-i386-win32-vc8-debug:sock_common.obj
 0002:00060110       _pj_sockaddr_in_set_port   004c9110 f   pjlib-i386-win32-vc8-debug:sock_common.obj
 0002:00060140       _pj_sockaddr_in_set_str_addr 004c9140 f   pjlib-i386-win32-vc8-debug:sock_common.obj
 0002:000602a0       _pj_sockaddr_init          004c92a0 f   pjlib-i386-win32-vc8-debug:sock_common.obj
 0002:000603a0       _pj_sockaddr_parse         004c93a0 f   pjlib-i386-win32-vc8-debug:sock_common.obj
 0002:00060540       _pj_sockaddr_parse2        004c9540 f   pjlib-i386-win32-vc8-debug:sock_common.obj
 0002:000609e0       _pj_sockaddr_print         004c99e0 f   pjlib-i386-win32-vc8-debug:sock_common.obj
 0002:00060b40       _pj_sockaddr_set_port      004c9b40 f   pjlib-i386-win32-vc8-debug:sock_common.obj
 0002:00060c20       _pj_sockaddr_set_str_addr  004c9c20 f   pjlib-i386-win32-vc8-debug:sock_common.obj
 0002:00060dd0       _pj_NO_MEMORY_EXCEPTION    004c9dd0 f   pjlib-i386-win32-vc8-debug:pool.obj
 0002:00060e50       _pj_pool_alloc             004c9e50 f   pjlib-i386-win32-vc8-debug:pool.obj
 0002:00060eb0       _pj_pool_alloc_from_block  004c9eb0 f   pjlib-i386-win32-vc8-debug:pool.obj
 0002:00060f20       _pj_pool_allocate_find     004c9f20 f   pjlib-i386-win32-vc8-debug:pool.obj
 0002:000610b0       _pj_pool_calloc            004ca0b0 f   pjlib-i386-win32-vc8-debug:pool.obj
 0002:00061110       _pj_pool_create            004ca110 f   pjlib-i386-win32-vc8-debug:pool.obj
 0002:00061270       _pj_pool_create_int        004ca270 f   pjlib-i386-win32-vc8-debug:pool.obj
 0002:000613f0       _pj_pool_destroy_int       004ca3f0 f   pjlib-i386-win32-vc8-debug:pool.obj
 0002:00061470       _pj_pool_get_capacity      004ca470 f   pjlib-i386-win32-vc8-debug:pool.obj
 0002:00061490       _pj_pool_get_used_size     004ca490 f   pjlib-i386-win32-vc8-debug:pool.obj
 0002:00061500       _pj_pool_getobjname        004ca500 f   pjlib-i386-win32-vc8-debug:pool.obj
 0002:00061520       _pj_pool_init_int          004ca520 f   pjlib-i386-win32-vc8-debug:pool.obj
 0002:000615f0       _pj_pool_release           004ca5f0 f   pjlib-i386-win32-vc8-debug:pool.obj
 0002:00061640       _pj_pool_reset             004ca640 f   pjlib-i386-win32-vc8-debug:pool.obj
 0002:00061e90       _pj_caching_pool_destroy   004cae90 f   pjlib-i386-win32-vc8-debug:pool_caching.obj
 0002:00062000       _pj_caching_pool_init      004cb000 f   pjlib-i386-win32-vc8-debug:pool_caching.obj
 0002:000621f0       _pj_create_random_string   004cb1f0 f   pjlib-i386-win32-vc8-debug:string.obj
 0002:000624c0       _pj_str                    004cb4c0 f   pjlib-i386-win32-vc8-debug:string.obj
 0002:00062510       _pj_strassign              004cb510 f   pjlib-i386-win32-vc8-debug:string.obj
 0002:00062550       _pj_strcat                 004cb550 f   pjlib-i386-win32-vc8-debug:string.obj
 0002:000625b0       _pj_strcat2                004cb5b0 f   pjlib-i386-win32-vc8-debug:string.obj
 0002:00062630       _pj_strcmp                 004cb630 f   pjlib-i386-win32-vc8-debug:string.obj
 0002:00062750       _pj_strcmp2                004cb750 f   pjlib-i386-win32-vc8-debug:string.obj
 0002:000627b0       _pj_strcpy                 004cb7b0 f   pjlib-i386-win32-vc8-debug:string.obj
 0002:00062810       _pj_strcpy2                004cb810 f   pjlib-i386-win32-vc8-debug:string.obj
 0002:00062890       _pj_strdup                 004cb890 f   pjlib-i386-win32-vc8-debug:string.obj
 0002:00062920       _pj_strdup2                004cb920 f   pjlib-i386-win32-vc8-debug:string.obj
 0002:000629c0       _pj_strdup2_with_null      004cb9c0 f   pjlib-i386-win32-vc8-debug:string.obj
 0002:00062a70       _pj_strdup3                004cba70 f   pjlib-i386-win32-vc8-debug:string.obj
 0002:00062ab0       _pj_strdup_with_null       004cbab0 f   pjlib-i386-win32-vc8-debug:string.obj
 0002:00062b40       _pj_stricmp                004cbb40 f   pjlib-i386-win32-vc8-debug:string.obj
 0002:00062c60       _pj_stricmp2               004cbc60 f   pjlib-i386-win32-vc8-debug:string.obj
 0002:00062cc0       _pj_stristr                004cbcc0 f   pjlib-i386-win32-vc8-debug:string.obj
 0002:00062d60       _pj_strltrim               004cbd60 f   pjlib-i386-win32-vc8-debug:string.obj
 0002:00062df0       _pj_strncmp                004cbdf0 f   pjlib-i386-win32-vc8-debug:string.obj
 0002:00062e70       _pj_strncmp2               004cbe70 f   pjlib-i386-win32-vc8-debug:string.obj
 0002:00062ed0       _pj_strncpy                004cbed0 f   pjlib-i386-win32-vc8-debug:string.obj
 0002:00062f30       _pj_strncpy_with_null      004cbf30 f   pjlib-i386-win32-vc8-debug:string.obj
 0002:00062fb0       _pj_strnicmp               004cbfb0 f   pjlib-i386-win32-vc8-debug:string.obj
 0002:00063030       _pj_strnicmp2              004cc030 f   pjlib-i386-win32-vc8-debug:string.obj
 0002:00063090       _pj_strrtrim               004cc090 f   pjlib-i386-win32-vc8-debug:string.obj
 0002:00063120       _pj_strstr                 004cc120 f   pjlib-i386-win32-vc8-debug:string.obj
 0002:000631c0       _pj_strtof                 004cc1c0 f   pjlib-i386-win32-vc8-debug:string.obj
 0002:00063390       _pj_strtol                 004cc390 f   pjlib-i386-win32-vc8-debug:string.obj
 0002:00063490       _pj_strtoul                004cc490 f   pjlib-i386-win32-vc8-debug:string.obj
 0002:00063540       _pj_strtoul2               004cc540 f   pjlib-i386-win32-vc8-debug:string.obj
 0002:000636d0       _pj_strtrim                004cc6d0 f   pjlib-i386-win32-vc8-debug:string.obj
 0002:00063710       _pj_utoa                   004cc710 f   pjlib-i386-win32-vc8-debug:string.obj
 0002:00063740       _pj_utoa_pad               004cc740 f   pjlib-i386-win32-vc8-debug:string.obj
 0002:000638a0       _pj_array_erase            004cc8a0 f   pjlib-i386-win32-vc8-debug:array.obj
 0002:00063930       _pj_array_find             004cc930 f   pjlib-i386-win32-vc8-debug:array.obj
 0002:000639b0       _pj_array_insert           004cc9b0 f   pjlib-i386-win32-vc8-debug:array.obj
 0002:00063c00       _pj_log                    004ccc00 f   pjlib-i386-win32-vc8-debug:log.obj
 0002:000644b0       _pj_log_1                  004cd4b0 f   pjlib-i386-win32-vc8-debug:log.obj
 0002:000644f0       _pj_log_2                  004cd4f0 f   pjlib-i386-win32-vc8-debug:log.obj
 0002:00064530       _pj_log_3                  004cd530 f   pjlib-i386-win32-vc8-debug:log.obj
 0002:00064570       _pj_log_4                  004cd570 f   pjlib-i386-win32-vc8-debug:log.obj
 0002:000645b0       _pj_log_5                  004cd5b0 f   pjlib-i386-win32-vc8-debug:log.obj
 0002:000645f0       _pj_log_add_indent         004cd5f0 f   pjlib-i386-win32-vc8-debug:log.obj
 0002:00064620       _pj_log_get_color          004cd620 f   pjlib-i386-win32-vc8-debug:log.obj
 0002:000646c0       _pj_log_get_decor          004cd6c0 f   pjlib-i386-win32-vc8-debug:log.obj
 0002:000646e0       _pj_log_get_level          004cd6e0 f   pjlib-i386-win32-vc8-debug:log.obj
 0002:00064700       _pj_log_get_log_func       004cd700 f   pjlib-i386-win32-vc8-debug:log.obj
 0002:00064720       _pj_log_init               004cd720 f   pjlib-i386-win32-vc8-debug:log.obj
 0002:000647c0       _pj_log_pop_indent         004cd7c0 f   pjlib-i386-win32-vc8-debug:log.obj
 0002:000647e0       _pj_log_push_indent        004cd7e0 f   pjlib-i386-win32-vc8-debug:log.obj
 0002:00064800       _pj_log_set_color          004cd800 f   pjlib-i386-win32-vc8-debug:log.obj
 0002:00064930       _pj_log_set_decor          004cd930 f   pjlib-i386-win32-vc8-debug:log.obj
 0002:00064950       _pj_log_set_level          004cd950 f   pjlib-i386-win32-vc8-debug:log.obj
 0002:00064970       _pj_log_set_log_func       004cd970 f   pjlib-i386-win32-vc8-debug:log.obj
 0002:00064aa0       _pj_gethostname            004cdaa0 f   pjlib-i386-win32-vc8-debug:sock_bsd.obj
 0002:00064b50       _pj_htonl                  004cdb50 f   pjlib-i386-win32-vc8-debug:sock_bsd.obj
 0002:00064b70       _pj_htons                  004cdb70 f   pjlib-i386-win32-vc8-debug:sock_bsd.obj
 0002:00064ba0       _pj_inet_aton              004cdba0 f   pjlib-i386-win32-vc8-debug:sock_bsd.obj
 0002:00064cd0       _pj_inet_ntoa              004cdcd0 f   pjlib-i386-win32-vc8-debug:sock_bsd.obj
 0002:00064cf0       _pj_inet_ntop              004cdcf0 f   pjlib-i386-win32-vc8-debug:sock_bsd.obj
 0002:00064f30       _pj_inet_pton              004cdf30 f   pjlib-i386-win32-vc8-debug:sock_bsd.obj
 0002:000651e0       _pj_ntohl                  004ce1e0 f   pjlib-i386-win32-vc8-debug:sock_bsd.obj
 0002:00065200       _pj_ntohs                  004ce200 f   pjlib-i386-win32-vc8-debug:sock_bsd.obj
 0002:00065230       _pj_sock_accept            004ce230 f   pjlib-i386-win32-vc8-debug:sock_bsd.obj
 0002:00065320       _pj_sock_bind              004ce320 f   pjlib-i386-win32-vc8-debug:sock_bsd.obj
 0002:00065410       _pj_sock_bind_in           004ce410 f   pjlib-i386-win32-vc8-debug:sock_bsd.obj
 0002:000654c0       _pj_sock_close             004ce4c0 f   pjlib-i386-win32-vc8-debug:sock_bsd.obj
 0002:00065560       _pj_sock_connect           004ce560 f   pjlib-i386-win32-vc8-debug:sock_bsd.obj
 0002:00065600       _pj_sock_getpeername       004ce600 f   pjlib-i386-win32-vc8-debug:sock_bsd.obj
 0002:000656a0       _pj_sock_getsockname       004ce6a0 f   pjlib-i386-win32-vc8-debug:sock_bsd.obj
 0002:00065740       _pj_sock_getsockopt        004ce740 f   pjlib-i386-win32-vc8-debug:sock_bsd.obj
 0002:00065840       _pj_sock_listen            004ce840 f   pjlib-i386-win32-vc8-debug:sock_bsd.obj
 0002:000658e0       _pj_sock_recv              004ce8e0 f   pjlib-i386-win32-vc8-debug:sock_bsd.obj
 0002:000659e0       _pj_sock_recvfrom          004ce9e0 f   pjlib-i386-win32-vc8-debug:sock_bsd.obj
 0002:00065af0       _pj_sock_send              004ceaf0 f   pjlib-i386-win32-vc8-debug:sock_bsd.obj
 0002:00065be0       _pj_sock_sendto            004cebe0 f   pjlib-i386-win32-vc8-debug:sock_bsd.obj
 0002:00065ce0       _pj_sock_setsockopt        004cece0 f   pjlib-i386-win32-vc8-debug:sock_bsd.obj
 0002:00065d90       _pj_sock_shutdown          004ced90 f   pjlib-i386-win32-vc8-debug:sock_bsd.obj
 0002:00065e30       _pj_sock_socket            004cee30 f   pjlib-i386-win32-vc8-debug:sock_bsd.obj
 0002:00066650       _pj_grp_lock_acquire       004cf650 f   pjlib-i386-win32-vc8-debug:lock.obj
 0002:00066680       _pj_grp_lock_add_handler   004cf680 f   pjlib-i386-win32-vc8-debug:lock.obj
 0002:00066710       _pj_grp_lock_add_ref       004cf710 f   pjlib-i386-win32-vc8-debug:lock.obj
 0002:00066740       _pj_grp_lock_chain_lock    004cf740 f   pjlib-i386-win32-vc8-debug:lock.obj
 0002:00066830       _pj_grp_lock_config_default 004cf830 f   pjlib-i386-win32-vc8-debug:lock.obj
 0002:00066860       _pj_grp_lock_create        004cf860 f   pjlib-i386-win32-vc8-debug:lock.obj
 0002:00066a40       _pj_grp_lock_dec_ref       004cfa40 f   pjlib-i386-win32-vc8-debug:lock.obj
 0002:00066a70       _pj_grp_lock_del_handler   004cfa70 f   pjlib-i386-win32-vc8-debug:lock.obj
 0002:00066b10       _pj_grp_lock_destroy       004cfb10 f   pjlib-i386-win32-vc8-debug:lock.obj
 0002:00066b40       _pj_grp_lock_dump          004cfb40 f   pjlib-i386-win32-vc8-debug:lock.obj
 0002:00066b60       _pj_grp_lock_get_ref       004cfb60 f   pjlib-i386-win32-vc8-debug:lock.obj
 0002:00066b90       _pj_grp_lock_release       004cfb90 f   pjlib-i386-win32-vc8-debug:lock.obj
 0002:00066bc0       _pj_grp_lock_replace       004cfbc0 f   pjlib-i386-win32-vc8-debug:lock.obj
 0002:00066c70       _pj_grp_lock_tryacquire    004cfc70 f   pjlib-i386-win32-vc8-debug:lock.obj
 0002:00066ca0       _pj_grp_lock_unchain_lock  004cfca0 f   pjlib-i386-win32-vc8-debug:lock.obj
 0002:00066dd0       _pj_lock_acquire           004cfdd0 f   pjlib-i386-win32-vc8-debug:lock.obj
 0002:00066e40       _pj_lock_create_null_mutex 004cfe40 f   pjlib-i386-win32-vc8-debug:lock.obj
 0002:00066ea0       _pj_lock_create_recursive_mutex 004cfea0 f   pjlib-i386-win32-vc8-debug:lock.obj
 0002:00066ed0       _pj_lock_create_semaphore  004cfed0 f   pjlib-i386-win32-vc8-debug:lock.obj
 0002:00066fc0       _pj_lock_create_simple_mutex 004cffc0 f   pjlib-i386-win32-vc8-debug:lock.obj
 0002:00066ff0       _pj_lock_destroy           004cfff0 f   pjlib-i386-win32-vc8-debug:lock.obj
 0002:00067060       _pj_lock_release           004d0060 f   pjlib-i386-win32-vc8-debug:lock.obj
 0002:000670d0       _pj_lock_tryacquire        004d00d0 f   pjlib-i386-win32-vc8-debug:lock.obj
 0002:000671a0       _pj_rand                   004d01a0 f   pjlib-i386-win32-vc8-debug:rand.obj
 0002:000671e0       _pj_srand                  004d01e0 f   pjlib-i386-win32-vc8-debug:rand.obj
 0002:00067260       _pj_time_val_normalize     004d0260 f   pjlib-i386-win32-vc8-debug:types.obj
 0002:00067810       _pj_timer_entry_init       004d0810 f   pjlib-i386-win32-vc8-debug:timer.obj
 0002:000678a0       _pj_timer_entry_running    004d08a0 f   pjlib-i386-win32-vc8-debug:timer.obj
 0002:000678e0       _pj_timer_heap_cancel      004d08e0 f   pjlib-i386-win32-vc8-debug:timer.obj
 0002:00067910       _pj_timer_heap_cancel_if_active 004d0910 f   pjlib-i386-win32-vc8-debug:timer.obj
 0002:00067940       _pj_timer_heap_count       004d0940 f   pjlib-i386-win32-vc8-debug:timer.obj
 0002:000679a0       _pj_timer_heap_create      004d09a0 f   pjlib-i386-win32-vc8-debug:timer.obj
 0002:00067b50       _pj_timer_heap_destroy     004d0b50 f   pjlib-i386-win32-vc8-debug:timer.obj
 0002:00067ba0       _pj_timer_heap_earliest_time 004d0ba0 f   pjlib-i386-win32-vc8-debug:timer.obj
 0002:00067c40       _pj_timer_heap_mem_size    004d0c40 f   pjlib-i386-win32-vc8-debug:timer.obj
 0002:00067c60       _pj_timer_heap_poll        004d0c60 f   pjlib-i386-win32-vc8-debug:timer.obj
 0002:00067f10       _pj_timer_heap_schedule    004d0f10 f   pjlib-i386-win32-vc8-debug:timer.obj
 0002:00067f50       _pj_timer_heap_schedule_w_grp_lock 004d0f50 f   pjlib-i386-win32-vc8-debug:timer.obj
 0002:00067f90       _pj_timer_heap_set_lock    004d0f90 f   pjlib-i386-win32-vc8-debug:timer.obj
 0002:00067ff0       _pj_timer_heap_set_max_timed_out_per_poll 004d0ff0 f   pjlib-i386-win32-vc8-debug:timer.obj
 0002:00068970       _pj_gettimeofday           004d1970 f   pjlib-i386-win32-vc8-debug:os_time_win32.obj
 0002:00068a50       _pj_time_decode            004d1a50 f   pjlib-i386-win32-vc8-debug:os_time_win32.obj
 0002:00068b60       _pj_time_encode            004d1b60 f   pjlib-i386-win32-vc8-debug:os_time_win32.obj
 0002:00068f90       _ioqueue_dispatch_exception_event 004d1f90 f   pjlib-i386-win32-vc8-debug:ioqueue_select.obj
 0002:00069140       _ioqueue_dispatch_read_event 004d2140 f   pjlib-i386-win32-vc8-debug:ioqueue_select.obj
 0002:00069520       _ioqueue_dispatch_write_event 004d2520 f   pjlib-i386-win32-vc8-debug:ioqueue_select.obj
 0002:00069dc0       _pj_ioqueue_accept         004d2dc0 f   pjlib-i386-win32-vc8-debug:ioqueue_select.obj
 0002:00069ff0       _pj_ioqueue_connect        004d2ff0 f   pjlib-i386-win32-vc8-debug:ioqueue_select.obj
 0002:0006a170       _pj_ioqueue_create         004d3170 f   pjlib-i386-win32-vc8-debug:ioqueue_select.obj
 0002:0006a490       _pj_ioqueue_destroy        004d3490 f   pjlib-i386-win32-vc8-debug:ioqueue_select.obj
 0002:0006a5e0       _pj_ioqueue_get_user_data  004d35e0 f   pjlib-i386-win32-vc8-debug:ioqueue_select.obj
 0002:0006a640       _pj_ioqueue_is_pending     004d3640 f   pjlib-i386-win32-vc8-debug:ioqueue_select.obj
 0002:0006a680       _pj_ioqueue_lock_key       004d3680 f   pjlib-i386-win32-vc8-debug:ioqueue_select.obj
 0002:0006a6d0       _pj_ioqueue_name           004d36d0 f   pjlib-i386-win32-vc8-debug:ioqueue_select.obj
 0002:0006a6f0       _pj_ioqueue_op_key_init    004d36f0 f   pjlib-i386-win32-vc8-debug:ioqueue_select.obj
 0002:0006a720       _pj_ioqueue_poll           004d3720 f   pjlib-i386-win32-vc8-debug:ioqueue_select.obj
 0002:0006ae10       _pj_ioqueue_post_completion 004d3e10 f   pjlib-i386-win32-vc8-debug:ioqueue_select.obj
 0002:0006afd0       _pj_ioqueue_recv           004d3fd0 f   pjlib-i386-win32-vc8-debug:ioqueue_select.obj
 0002:0006b1d0       _pj_ioqueue_recvfrom       004d41d0 f   pjlib-i386-win32-vc8-debug:ioqueue_select.obj
 0002:0006b3f0       _pj_ioqueue_register_sock  004d43f0 f   pjlib-i386-win32-vc8-debug:ioqueue_select.obj
 0002:0006b430       _pj_ioqueue_register_sock2 004d4430 f   pjlib-i386-win32-vc8-debug:ioqueue_select.obj
 0002:0006b6a0       _pj_ioqueue_send           004d46a0 f   pjlib-i386-win32-vc8-debug:ioqueue_select.obj
 0002:0006b900       _pj_ioqueue_sendto         004d4900 f   pjlib-i386-win32-vc8-debug:ioqueue_select.obj
 0002:0006bbd0       _pj_ioqueue_set_concurrency 004d4bd0 f   pjlib-i386-win32-vc8-debug:ioqueue_select.obj
 0002:0006bc90       _pj_ioqueue_set_default_concurrency 004d4c90 f   pjlib-i386-win32-vc8-debug:ioqueue_select.obj
 0002:0006bcf0       _pj_ioqueue_set_lock       004d4cf0 f   pjlib-i386-win32-vc8-debug:ioqueue_select.obj
 0002:0006bd90       _pj_ioqueue_set_user_data  004d4d90 f   pjlib-i386-win32-vc8-debug:ioqueue_select.obj
 0002:0006be10       _pj_ioqueue_unlock_key     004d4e10 f   pjlib-i386-win32-vc8-debug:ioqueue_select.obj
 0002:0006be60       _pj_ioqueue_unregister     004d4e60 f   pjlib-i386-win32-vc8-debug:ioqueue_select.obj
 0002:0006c2c0       _pj_exception_id_alloc     004d52c0 f   pjlib-i386-win32-vc8-debug:except.obj
 0002:0006c340       _pj_exception_id_free      004d5340 f   pjlib-i386-win32-vc8-debug:except.obj
 0002:0006c3d0       _pj_exception_id_name      004d53d0 f   pjlib-i386-win32-vc8-debug:except.obj
 0002:0006c480       _pj_pop_exception_handler_ 004d5480 f   pjlib-i386-win32-vc8-debug:except.obj
 0002:0006c4e0       _pj_push_exception_handler_ 004d54e0 f   pjlib-i386-win32-vc8-debug:except.obj
 0002:0006c590       _pj_throw_exception_       004d5590 f   pjlib-i386-win32-vc8-debug:except.obj
 0002:0006c650       _pj_get_timestamp          004d5650 f   pjlib-i386-win32-vc8-debug:os_timestamp_win32.obj
 0002:0006c6e0       _pj_get_timestamp_freq     004d56e0 f   pjlib-i386-win32-vc8-debug:os_timestamp_win32.obj
 0002:0006cb40       _pj_hash_calc              004d5b40 f   pjlib-i386-win32-vc8-debug:hash.obj
 0002:0006cc00       _pj_hash_calc_tolower      004d5c00 f   pjlib-i386-win32-vc8-debug:hash.obj
 0002:0006cc90       _pj_hash_count             004d5c90 f   pjlib-i386-win32-vc8-debug:hash.obj
 0002:0006ccb0       _pj_hash_create            004d5cb0 f   pjlib-i386-win32-vc8-debug:hash.obj
 0002:0006cd60       _pj_hash_first             004d5d60 f   pjlib-i386-win32-vc8-debug:hash.obj
 0002:0006ce00       _pj_hash_get               004d5e00 f   pjlib-i386-win32-vc8-debug:hash.obj
 0002:0006ce70       _pj_hash_get_lower         004d5e70 f   pjlib-i386-win32-vc8-debug:hash.obj
 0002:0006cee0       _pj_hash_next              004d5ee0 f   pjlib-i386-win32-vc8-debug:hash.obj
 0002:0006cfa0       _pj_hash_set               004d5fa0 f   pjlib-i386-win32-vc8-debug:hash.obj
 0002:0006cff0       _pj_hash_set_lower         004d5ff0 f   pjlib-i386-win32-vc8-debug:hash.obj
 0002:0006d040       _pj_hash_set_np            004d6040 f   pjlib-i386-win32-vc8-debug:hash.obj
 0002:0006d090       _pj_hash_set_np_lower      004d6090 f   pjlib-i386-win32-vc8-debug:hash.obj
 0002:0006d0e0       _pj_hash_this              004d60e0 f   pjlib-i386-win32-vc8-debug:hash.obj
 0002:0006d1b0       _pj_get_netos_error        004d61b0 f   pjlib-i386-win32-vc8-debug:os_error_win32.obj
 0002:0006d200       _pj_get_os_error           004d6200 f   pjlib-i386-win32-vc8-debug:os_error_win32.obj
 0002:0006d280       _pj_set_netos_error        004d6280 f   pjlib-i386-win32-vc8-debug:os_error_win32.obj
 0002:0006d2d0       _pj_set_os_error           004d62d0 f   pjlib-i386-win32-vc8-debug:os_error_win32.obj
 0002:0006d320       _platform_strerror         004d6320 f   pjlib-i386-win32-vc8-debug:os_error_win32.obj
 0002:0006d660       _pj_GUID_STRING_LENGTH     004d6660 f   pjlib-i386-win32-vc8-debug:guid_win32.obj
 0002:0006d680       _pj_generate_unique_string 004d6680 f   pjlib-i386-win32-vc8-debug:guid_win32.obj
 0002:0006d6f0       _pj_create_unique_string   004d66f0 f   pjlib-i386-win32-vc8-debug:guid.obj
 0002:0006d730       _pj_create_unique_string_lower 004d6730 f   pjlib-i386-win32-vc8-debug:guid.obj
 0002:0006d7b0       _pj_generate_unique_string_lower 004d67b0 f   pjlib-i386-win32-vc8-debug:guid.obj
 0002:0006d890       _pj_qos_get_params         004d6890 f   pjlib-i386-win32-vc8-debug:sock_qos_common.obj
 0002:0006d920       _pj_qos_get_type           004d6920 f   pjlib-i386-win32-vc8-debug:sock_qos_common.obj
 0002:0006daf0       _pj_sock_apply_qos         004d6af0 f   pjlib-i386-win32-vc8-debug:sock_qos_common.obj
 0002:0006dc10       _pj_sock_apply_qos2        004d6c10 f   pjlib-i386-win32-vc8-debug:sock_qos_common.obj
 0002:0006e4e0       _pj_activesock_cfg_default 004d74e0 f   pjlib-i386-win32-vc8-debug:activesock.obj
 0002:0006e530       _pj_activesock_close       004d7530 f   pjlib-i386-win32-vc8-debug:activesock.obj
 0002:0006e5c0       _pj_activesock_create      004d75c0 f   pjlib-i386-win32-vc8-debug:activesock.obj
 0002:0006e930       _pj_activesock_create_udp  004d7930 f   pjlib-i386-win32-vc8-debug:activesock.obj
 0002:0006eac0       _pj_activesock_get_user_data 004d7ac0 f   pjlib-i386-win32-vc8-debug:activesock.obj
 0002:0006eb20       _pj_activesock_send        004d7b20 f   pjlib-i386-win32-vc8-debug:activesock.obj
 0002:0006ecd0       _pj_activesock_sendto      004d7cd0 f   pjlib-i386-win32-vc8-debug:activesock.obj
 0002:0006edc0       _pj_activesock_set_user_data 004d7dc0 f   pjlib-i386-win32-vc8-debug:activesock.obj
 0002:0006ee20       _pj_activesock_start_accept 004d7e20 f   pjlib-i386-win32-vc8-debug:activesock.obj
 0002:0006efe0       _pj_activesock_start_connect 004d7fe0 f   pjlib-i386-win32-vc8-debug:activesock.obj
 0002:0006f030       _pj_activesock_start_read  004d8030 f   pjlib-i386-win32-vc8-debug:activesock.obj
 0002:0006f130       _pj_activesock_start_read2 004d8130 f   pjlib-i386-win32-vc8-debug:activesock.obj
 0002:0006f380       _pj_activesock_start_recvfrom 004d8380 f   pjlib-i386-win32-vc8-debug:activesock.obj
 0002:0006f480       _pj_activesock_start_recvfrom2 004d8480 f   pjlib-i386-win32-vc8-debug:activesock.obj
 0002:0006f990       _pj_elapsed_cycle          004d8990 f   pjlib-i386-win32-vc8-debug:os_timestamp_common.obj
 0002:0006f9b0       _pj_elapsed_msec           004d89b0 f   pjlib-i386-win32-vc8-debug:os_timestamp_common.obj
 0002:0006f9f0       _pj_elapsed_msec64         004d89f0 f   pjlib-i386-win32-vc8-debug:os_timestamp_common.obj
 0002:0006fa30       _pj_elapsed_nanosec        004d8a30 f   pjlib-i386-win32-vc8-debug:os_timestamp_common.obj
 0002:0006faf0       _pj_elapsed_time           004d8af0 f   pjlib-i386-win32-vc8-debug:os_timestamp_common.obj
 0002:0006fbd0       _pj_elapsed_usec           004d8bd0 f   pjlib-i386-win32-vc8-debug:os_timestamp_common.obj
 0002:0006fc10       _pj_gettickcount           004d8c10 f   pjlib-i386-win32-vc8-debug:os_timestamp_common.obj
 0002:0006fce0       _pj_getaddrinfo            004d8ce0 f   pjlib-i386-win32-vc8-debug:addr_resolv_sock.obj
 0002:00070040       _pj_gethostbyname          004d9040 f   pjlib-i386-win32-vc8-debug:addr_resolv_sock.obj
 0002:000701d0       _pj_pool_create_on_buf     004d91d0 f   pjlib-i386-win32-vc8-debug:pool_buf.obj
 0002:00070440       _pj_dump_config            004d9440 f   pjlib-i386-win32-vc8-debug:config.obj
 0002:00070a20       _pj_get_version            004d9a20 f   pjlib-i386-win32-vc8-debug:config.obj
 0002:00071410       _pj_enum_ip_interface      004da410 f   pjlib-i386-win32-vc8-debug:ip_helper_win32.obj
 0002:00071570       _pj_enum_ip_route          004da570 f   pjlib-i386-win32-vc8-debug:ip_helper_win32.obj
 0002:00071b10       _pj_pool_factory_get_default_policy 004dab10 f   pjlib-i386-win32-vc8-debug:pool_policy_malloc.obj
 0002:00071b30       _pj_log_write              004dab30 f   pjlib-i386-win32-vc8-debug:log_writer_stdout.obj
 0002:00071c10       _PJ_FD_CLR                 004dac10 f   pjlib-i386-win32-vc8-debug:sock_select.obj
 0002:00071d60       _PJ_FD_COUNT               004dad60 f   pjlib-i386-win32-vc8-debug:sock_select.obj
 0002:00071d90       _PJ_FD_ISSET               004dad90 f   pjlib-i386-win32-vc8-debug:sock_select.obj
 0002:00071df0       _PJ_FD_SET                 004dadf0 f   pjlib-i386-win32-vc8-debug:sock_select.obj
 0002:00071f30       _PJ_FD_ZERO                004daf30 f   pjlib-i386-win32-vc8-debug:sock_select.obj
 0002:00071f90       _pj_sock_select            004daf90 f   pjlib-i386-win32-vc8-debug:sock_select.obj
 0002:000720d0       _pj_sock_get_qos_params    004db0d0 f   pjlib-i386-win32-vc8-debug:sock_qos_bsd.obj
 0002:00072200       _pj_sock_get_qos_type      004db200 f   pjlib-i386-win32-vc8-debug:sock_qos_bsd.obj
 0002:00072250       _pj_sock_set_qos_params    004db250 f   pjlib-i386-win32-vc8-debug:sock_qos_bsd.obj
 0002:00072390       _pj_sock_set_qos_type      004db390 f   pjlib-i386-win32-vc8-debug:sock_qos_bsd.obj
 0002:000723de       _CoCreateGuid@4            004db3de f   ole32:ole32.dll
 0002:000723e4       _WSAStartup@8              004db3e4 f   ws2_32:WS2_32.dll
 0002:000723ea       _WSACleanup@0              004db3ea f   ws2_32:WS2_32.dll
 0002:000723f0       _WSAGetLastError@0         004db3f0 f   ws2_32:WS2_32.dll
 0002:000723f6       _accept@12                 004db3f6 f   ws2_32:WS2_32.dll
 0002:000723fc       _bind@12                   004db3fc f   ws2_32:WS2_32.dll
 0002:00072402       _closesocket@4             004db402 f   ws2_32:WS2_32.dll
 0002:00072408       _connect@12                004db408 f   ws2_32:WS2_32.dll
 0002:0007240e       _getpeername@12            004db40e f   ws2_32:WS2_32.dll
 0002:00072414       _getsockname@12            004db414 f   ws2_32:WS2_32.dll
 0002:0007241a       _getsockopt@20             004db41a f   ws2_32:WS2_32.dll
 0002:00072420       _htonl@4                   004db420 f   ws2_32:WS2_32.dll
 0002:00072426       _htons@4                   004db426 f   ws2_32:WS2_32.dll
 0002:0007242c       _inet_addr@4               004db42c f   ws2_32:WS2_32.dll
 0002:00072432       _inet_ntoa@4               004db432 f   ws2_32:WS2_32.dll
 0002:00072438       _listen@8                  004db438 f   ws2_32:WS2_32.dll
 0002:0007243e       _ntohl@4                   004db43e f   ws2_32:WS2_32.dll
 0002:00072444       _ntohs@4                   004db444 f   ws2_32:WS2_32.dll
 0002:0007244a       _recv@16                   004db44a f   ws2_32:WS2_32.dll
 0002:00072450       _recvfrom@24               004db450 f   ws2_32:WS2_32.dll
 0002:00072456       _send@16                   004db456 f   ws2_32:WS2_32.dll
 0002:0007245c       _sendto@24                 004db45c f   ws2_32:WS2_32.dll
 0002:00072462       _setsockopt@20             004db462 f   ws2_32:WS2_32.dll
 0002:00072468       _shutdown@8                004db468 f   ws2_32:WS2_32.dll
 0002:0007246e       _gethostname@8             004db46e f   ws2_32:WS2_32.dll
 0002:00072474       _WSAIoctl@36               004db474 f   ws2_32:WS2_32.dll
 0002:0007247a       _WSASocketA@24             004db47a f   ws2_32:WS2_32.dll
 0002:00072480       _WSAAddressToStringA@20    004db480 f   ws2_32:WS2_32.dll
 0002:00072486       _WSAStringToAddressA@20    004db486 f   ws2_32:WS2_32.dll
 0002:0007248c       _ioctlsocket@12            004db48c f   ws2_32:WS2_32.dll
 0002:00072492       _WSASetLastError@4         004db492 f   ws2_32:WS2_32.dll
 0002:00072498       _gethostbyname@4           004db498 f   ws2_32:WS2_32.dll
 0002:0007249e       ___WSAFDIsSet@8            004db49e f   ws2_32:WS2_32.dll
 0002:000724a4       _select@20                 004db4a4 f   ws2_32:WS2_32.dll
 0002:000724b0       _memset                    004db4b0 f   LIBCMTD:memset.obj
 0002:00072570       ___initstdio               004db570 f   LIBCMTD:_file.obj
 0002:00072670       ___endstdio                004db670 f   LIBCMTD:_file.obj
 0002:000726c0       ___iob_func                004db6c0 f   LIBCMTD:_file.obj
 0002:000726d0       __lock_file                004db6d0 f   LIBCMTD:_file.obj
 0002:00072740       __lock_file2               004db740 f   LIBCMTD:_file.obj
 0002:00072790       __unlock_file              004db790 f   LIBCMTD:_file.obj
 0002:00072800       __unlock_file2             004db800 f   LIBCMTD:_file.obj
 0002:00072850       _fgets                     004db850 f   LIBCMTD:fgets.obj
 0002:00072d10       __get_printf_count_output  004dbd10 f   LIBCMTD:printf.obj
 0002:00072d50       __printf_l                 004dbd50 f   LIBCMTD:printf.obj
 0002:00072d80       __printf_p                 004dbd80 f   LIBCMTD:printf.obj
 0002:00072db0       __printf_p_l               004dbdb0 f   LIBCMTD:printf.obj
 0002:00072de0       __printf_s_l               004dbde0 f   LIBCMTD:printf.obj
 0002:00072e10       __set_printf_count_output  004dbe10 f   LIBCMTD:printf.obj
 0002:00072e80       _printf                    004dbe80 f   LIBCMTD:printf.obj
 0002:00073050       _printf_s                  004dc050 f   LIBCMTD:printf.obj
 0002:00073080       _puts                      004dc080 f   LIBCMTD:puts.obj
 0002:00073480       __scprintf                 004dc480 f   LIBCMTD:sprintf.obj
 0002:000734b0       __scprintf_l               004dc4b0 f   LIBCMTD:sprintf.obj
 0002:000734e0       __scprintf_p               004dc4e0 f   LIBCMTD:sprintf.obj
 0002:00073510       __scprintf_p_l             004dc510 f   LIBCMTD:sprintf.obj
 0002:00073540       __snprintf_s               004dc540 f   LIBCMTD:sprintf.obj
 0002:00073580       __snprintf_s_l             004dc580 f   LIBCMTD:sprintf.obj
 0002:000735c0       __sprintf_l                004dc5c0 f   LIBCMTD:sprintf.obj
 0002:000735f0       __sprintf_p                004dc5f0 f   LIBCMTD:sprintf.obj
 0002:00073630       __sprintf_p_l              004dc630 f   LIBCMTD:sprintf.obj
 0002:00073670       __sprintf_s_l              004dc670 f   LIBCMTD:sprintf.obj
 0002:000736b0       _sprintf                   004dc6b0 f   LIBCMTD:sprintf.obj
 0002:000738e0       _sprintf_s                 004dc8e0 f   LIBCMTD:sprintf.obj
 0002:00073920       __atoi64                   004dc920 f   LIBCMTD:atox.obj
 0002:00073940       __atoi64_l                 004dc940 f   LIBCMTD:atox.obj
 0002:00073960       __atoi_l                   004dc960 f   LIBCMTD:atox.obj
 0002:00073980       __atol_l                   004dc980 f   LIBCMTD:atox.obj
 0002:000739a0       __atoll_l                  004dc9a0 f   LIBCMTD:atox.obj
 0002:000739c0       _atoi                      004dc9c0 f   LIBCMTD:atox.obj
 0002:000739e0       _atol                      004dc9e0 f   LIBCMTD:atox.obj
 0002:00073a00       _atoll                     004dca00 f   LIBCMTD:atox.obj
 0002:00073a20       ??0_LocaleUpdate@@QAE@PAUlocaleinfo_struct@@@Z 004dca20 f i LIBCMTD:strtol.obj
 0002:00073b30       ??1_LocaleUpdate@@QAE@XZ   004dcb30 f i LIBCMTD:strtol.obj
 0002:00073b70       ?GetLocaleT@_LocaleUpdate@@QAEPAUlocaleinfo_struct@@XZ 004dcb70 f i LIBCMTD:strtol.obj
 0002:000741c0       __strtol_l                 004dd1c0 f   LIBCMTD:strtol.obj
 0002:000741f0       __strtoul_l                004dd1f0 f   LIBCMTD:strtol.obj
 0002:00074220       _strtol                    004dd220 f   LIBCMTD:strtol.obj
 0002:00074280       _strtoul                   004dd280 f   LIBCMTD:strtol.obj
 0002:000742e0       @__security_check_cookie@4 004dd2e0 f   LIBCMTD:secchk.obj
 0002:000745f0       _mainCRTStartup            004dd5f0 f   LIBCMTD:crt0.obj
 0002:00074610       __invoke_watson_if_error   004dd610 f i LIBCMTD:wassert.obj
 0002:00074640       __wassert                  004dd640 f   LIBCMTD:wassert.obj
 0002:00075590       _memcpy                    004de590 f   LIBCMTD:memcpy.obj
 0002:00075d70       _strcpy                    004ded70 f   LIBCMTD:strcat.obj
 0002:00075d80       _strcat                    004ded80 f   LIBCMTD:strcat.obj
 0002:00075eb0       _strlen                    004deeb0 f   LIBCMTD:strlen.obj
 0002:00075f60       __snprintf                 004def60 f   LIBCMTD:snprintf.obj
 0002:000761b0       __snprintf_l               004df1b0 f   LIBCMTD:snprintf.obj
 0002:000761f0       ___isascii                 004df1f0 f i LIBCMTD:_ctype.obj
 0002:00076220       ___iscsym                  004df220 f i LIBCMTD:_ctype.obj
 0002:00076270       ___iscsymf                 004df270 f i LIBCMTD:_ctype.obj
 0002:000762b0       ___toascii                 004df2b0 f i LIBCMTD:_ctype.obj
 0002:000762c0       __isalnum_l                004df2c0 f i LIBCMTD:_ctype.obj
 0002:00076360       __isalpha_l                004df360 f i LIBCMTD:_ctype.obj
 0002:00076400       __isblank_l                004df400 f i LIBCMTD:_ctype.obj
 0002:000764c0       __iscntrl_l                004df4c0 f i LIBCMTD:_ctype.obj
 0002:00076560       __iscsym_l                 004df560 f i LIBCMTD:_ctype.obj
 0002:000765b0       __iscsymf_l                004df5b0 f i LIBCMTD:_ctype.obj
 0002:00076600       __isdigit_l                004df600 f i LIBCMTD:_ctype.obj
 0002:000766a0       __isgraph_l                004df6a0 f i LIBCMTD:_ctype.obj
 0002:00076740       __islower_l                004df740 f i LIBCMTD:_ctype.obj
 0002:000767e0       __isprint_l                004df7e0 f i LIBCMTD:_ctype.obj
 0002:00076880       __ispunct_l                004df880 f i LIBCMTD:_ctype.obj
 0002:00076920       __isspace_l                004df920 f i LIBCMTD:_ctype.obj
 0002:000769c0       __isupper_l                004df9c0 f i LIBCMTD:_ctype.obj
 0002:00076a60       __isxdigit_l               004dfa60 f i LIBCMTD:_ctype.obj
 0002:00076b00       _isalnum                   004dfb00 f i LIBCMTD:_ctype.obj
 0002:00076b40       _isalpha                   004dfb40 f i LIBCMTD:_ctype.obj
 0002:00076b80       _isblank                   004dfb80 f i LIBCMTD:_ctype.obj
 0002:00076be0       _iscntrl                   004dfbe0 f i LIBCMTD:_ctype.obj
 0002:00076c20       _isdigit                   004dfc20 f i LIBCMTD:_ctype.obj
 0002:00076c60       _isgraph                   004dfc60 f i LIBCMTD:_ctype.obj
 0002:00076ca0       _islower                   004dfca0 f i LIBCMTD:_ctype.obj
 0002:00076ce0       _isprint                   004dfce0 f i LIBCMTD:_ctype.obj
 0002:00076d20       _ispunct                   004dfd20 f i LIBCMTD:_ctype.obj
 0002:00076d60       _isspace                   004dfd60 f i LIBCMTD:_ctype.obj
 0002:00076da0       _isupper                   004dfda0 f i LIBCMTD:_ctype.obj
 0002:00076de0       _isxdigit                  004dfde0 f i LIBCMTD:_ctype.obj
 0002:00076e20       __toupper                  004dfe20 f   LIBCMTD:toupper.obj
 0002:00076e30       __toupper_l                004dfe30 f   LIBCMTD:toupper.obj
 0002:00077100       _toupper                   004e0100 f   LIBCMTD:toupper.obj
 0002:00077160       _memchr                    004e0160 f   LIBCMTD:memchr.obj
 0002:00077450       _memcmp                    004e0450 f   LIBCMTD:memcmp.obj
 0002:00077f50       __setjmp3                  004e0f50 f   LIBCMTD:setjmp3.obj
 0002:00077ff0       ___raise_securityfailure   004e0ff0 f   LIBCMTD:gs_report.obj
 0002:00078050       ___report_gsfailure        004e1050 f   LIBCMTD:gs_report.obj
 0002:000781a0       ___report_rangecheckfailure 004e11a0 f   LIBCMTD:gs_report.obj
 0002:000781b0       ___report_securityfailure  004e11b0 f   LIBCMTD:gs_report.obj
 0002:000782c0       ___report_securityfailureEx 004e12c0 f   LIBCMTD:gs_report.obj
 0002:00078430       _memmove                   004e1430 f   LIBCMTD:memmove.obj
 0002:00078c10       __tolower                  004e1c10 f   LIBCMTD:tolower.obj
 0002:00078c20       __tolower_l                004e1c20 f   LIBCMTD:tolower.obj
 0002:00078ef0       _tolower                   004e1ef0 f   LIBCMTD:tolower.obj
 0002:00078f50       __strnicmp                 004e1f50 f   LIBCMTD:strnicmp.obj
 0002:00079190       __strnicmp_l               004e2190 f   LIBCMTD:strnicmp.obj
 0002:000794c0       _strcmp                    004e24c0 f   LIBCMTD:strcmp.obj
 0002:00079570       _strncmp                   004e2570 f   LIBCMTD:strncmp.obj
 0002:00079610       _strchr                    004e2610 f   LIBCMTD:strchr.obj
 0002:0007967e       ___from_strstr_to_strchr   004e267e     LIBCMTD:strchr.obj
 0002:00079790       _strncpy                   004e2790 f   LIBCMTD:strncpy.obj
 0002:00079900       __vsnprintf                004e2900 f   LIBCMTD:vsnprint.obj
 0002:00079930       __vsnprintf_l              004e2930 f   LIBCMTD:vsnprint.obj
 0002:00079b80       __fpmath                   004e2b80 f   LIBCMTD:fpinit.obj
 0002:00079ba0       ___setfflag                004e2ba0 f   LIBCMTD:fpinit.obj
 0002:00079bd0       __cfltcvt_init             004e2bd0 f   LIBCMTD:fpinit.obj
 0002:00079cc0       __alloca_probe             004e2cc0 f   LIBCMTD:chkstk.obj
 0002:00079cc0       __chkstk                   004e2cc0 f   LIBCMTD:chkstk.obj
 0002:00079d00       _rand                      004e2d00 f   LIBCMTD:rand.obj
 0002:00079d50       _srand                     004e2d50 f   LIBCMTD:rand.obj
 0002:00079d70       __alldiv                   004e2d70 f   LIBCMTD:lldiv.obj
 0002:00079e50       __allmul                   004e2e50 f   LIBCMTD:llmul.obj
 0002:00079ea0       _longjmp                   004e2ea0 f   LIBCMTD:longjmp.obj
 0002:00079f80       _fmod                      004e2f80 f   LIBCMTD:87fmod.obj
 0002:00079f8a       __CIfmod                   004e2f8a f   LIBCMTD:87fmod.obj
 0002:00079fb0       __ftoui3                   004e2fb0 f   LIBCMTD:ftol3.obj
 0002:00079fbf       __ftoul3                   004e2fbf f   LIBCMTD:ftol3.obj
 0002:00079fce       __ftol3                    004e2fce f   LIBCMTD:ftol3.obj
 0002:00079fdb       __ftol3_NaN                004e2fdb f   LIBCMTD:ftol3.obj
 0002:00079ff3       __ftol3_work               004e2ff3 f   LIBCMTD:ftol3.obj
 0002:0007a079       __ftol3_common             004e3079 f   LIBCMTD:ftol3.obj
 0002:0007a13b       __ftol3_arg_error          004e313b f   LIBCMTD:ftol3.obj
 0002:0007a14d       __ftol3_except             004e314d f   LIBCMTD:ftol3.obj
 0002:0007a191       __dtoui3                   004e3191 f   LIBCMTD:ftol3.obj
 0002:0007a1a0       __dtoul3                   004e31a0 f   LIBCMTD:ftol3.obj
 0002:0007a1af       __dtol3                    004e31af f   LIBCMTD:ftol3.obj
 0002:0007a1bc       __dtol3_NaN                004e31bc f   LIBCMTD:ftol3.obj
 0002:0007a1d9       __dtol3_work               004e31d9 f   LIBCMTD:ftol3.obj
 0002:0007a2be       __ultod3                   004e32be f   LIBCMTD:ftol3.obj
 0002:0007a34f       __ltod3                    004e334f f   LIBCMTD:ftol3.obj
 0002:0007a470       _free                      004e3470 f   LIBCMTD:dbgfree.obj
 0002:0007a490       _malloc                    004e3490 f   LIBCMTD:dbgmalloc.obj
 0002:0007a4c0       __VEC_memset               004e34c0 f   LIBCMTD:p4_memset.obj
 0002:0007a5c0       ___isa_available_init      004e35c0 f   LIBCMTD:cpu_disp.obj
 0002:0007a910       __fcloseall                004e3910 f   LIBCMTD:closeall.obj
 0002:0007aa80       __fflush_nolock            004e3a80 f   LIBCMTD:fflush.obj
 0002:0007ab10       __flush                    004e3b10 f   LIBCMTD:fflush.obj
 0002:0007ac00       __flushall                 004e3c00 f   LIBCMTD:fflush.obj
 0002:0007ac20       _fflush                    004e3c20 f   LIBCMTD:fflush.obj
 0002:0007af00       __lock                     004e3f00 f   LIBCMTD:mlock.obj
 0002:0007af50       __lockerr_exit             004e3f50 f   LIBCMTD:mlock.obj
 0002:0007af80       __mtdeletelocks            004e3f80 f   LIBCMTD:mlock.obj
 0002:0007b070       __mtinitlocknum            004e4070 f   LIBCMTD:mlock.obj
 0002:0007b1e0       __mtinitlocks              004e41e0 f   LIBCMTD:mlock.obj
 0002:0007b280       __unlock                   004e4280 f   LIBCMTD:mlock.obj
 0002:0007b850       __CrtCheckMemory           004e4850 f   LIBCMTD:dbgheap.obj
 0002:0007bdc0       __CrtDoForAllClientObjects 004e4dc0 f   LIBCMTD:dbgheap.obj
 0002:0007bf40       __CrtDumpMemoryLeaks       004e4f40 f   LIBCMTD:dbgheap.obj
 0002:0007c000       __CrtGetAllocHook          004e5000 f   LIBCMTD:dbgheap.obj
 0002:0007c010       __CrtGetCheckCount         004e5010 f   LIBCMTD:dbgheap.obj
 0002:0007c020       __CrtGetDumpClient         004e5020 f   LIBCMTD:dbgheap.obj
 0002:0007c030       __CrtIsMemoryBlock         004e5030 f   LIBCMTD:dbgheap.obj
 0002:0007c200       __CrtIsValidHeapPointer    004e5200 f   LIBCMTD:dbgheap.obj
 0002:0007c250       __CrtIsValidPointer        004e5250 f   LIBCMTD:dbgheap.obj
 0002:0007c280       __CrtMemCheckpoint         004e5280 f   LIBCMTD:dbgheap.obj
 0002:0007c540       __CrtMemDifference         004e5540 f   LIBCMTD:dbgheap.obj
 0002:0007c830       __CrtMemDumpAllObjectsSince 004e5830 f   LIBCMTD:dbgheap.obj
 0002:0007c880       __CrtMemDumpStatistics     004e5880 f   LIBCMTD:dbgheap.obj
 0002:0007c9f0       __CrtReportBlockType       004e59f0 f   LIBCMTD:dbgheap.obj
 0002:0007ca30       __CrtSetAllocHook          004e5a30 f   LIBCMTD:dbgheap.obj
 0002:0007ca60       __CrtSetBreakAlloc         004e5a60 f   LIBCMTD:dbgheap.obj
 0002:0007ca90       __CrtSetCheckCount         004e5a90 f   LIBCMTD:dbgheap.obj
 0002:0007cab0       __CrtSetDbgBlockType       004e5ab0 f   LIBCMTD:dbgheap.obj
 0002:0007cbd0       __CrtSetDbgFlag            004e5bd0 f   LIBCMTD:dbgheap.obj
 0002:0007cd70       __CrtSetDebugFillThreshold 004e5d70 f   LIBCMTD:dbgheap.obj
 0002:0007cda0       __CrtSetDumpClient         004e5da0 f   LIBCMTD:dbgheap.obj
 0002:0007cdd0       __aligned_free             004e5dd0 f   LIBCMTD:dbgheap.obj
 0002:0007cdf0       __aligned_free_dbg         004e5df0 f   LIBCMTD:dbgheap.obj
 0002:0007ced0       __aligned_malloc           004e5ed0 f   LIBCMTD:dbgheap.obj
 0002:0007cf00       __aligned_malloc_dbg       004e5f00 f   LIBCMTD:dbgheap.obj
 0002:0007cf30       __aligned_msize            004e5f30 f   LIBCMTD:dbgheap.obj
 0002:0007cf50       __aligned_msize_dbg        004e5f50 f   LIBCMTD:dbgheap.obj
 0002:0007d0c0       __aligned_offset_malloc    004e60c0 f   LIBCMTD:dbgheap.obj
 0002:0007d0f0       __aligned_offset_malloc_dbg 004e60f0 f   LIBCMTD:dbgheap.obj
 0002:0007d340       __aligned_offset_realloc   004e6340 f   LIBCMTD:dbgheap.obj
 0002:0007d370       __aligned_offset_realloc_dbg 004e6370 f   LIBCMTD:dbgheap.obj
 0002:0007d740       __aligned_offset_recalloc  004e6740 f   LIBCMTD:dbgheap.obj
 0002:0007d770       __aligned_offset_recalloc_dbg 004e6770 f   LIBCMTD:dbgheap.obj
 0002:0007d860       __aligned_realloc          004e6860 f   LIBCMTD:dbgheap.obj
 0002:0007d890       __aligned_realloc_dbg      004e6890 f   LIBCMTD:dbgheap.obj
 0002:0007d8c0       __aligned_recalloc         004e68c0 f   LIBCMTD:dbgheap.obj
 0002:0007d8f0       __aligned_recalloc_dbg     004e68f0 f   LIBCMTD:dbgheap.obj
 0002:0007d920       __calloc_dbg               004e6920 f   LIBCMTD:dbgheap.obj
 0002:0007d990       __calloc_dbg_impl          004e6990 f   LIBCMTD:dbgheap.obj
 0002:0007da30       __expand                   004e6a30 f   LIBCMTD:dbgheap.obj
 0002:0007da60       __expand_dbg               004e6a60 f   LIBCMTD:dbgheap.obj
 0002:0007dbd0       __free_dbg                 004e6bd0 f   LIBCMTD:dbgheap.obj
 0002:0007dc70       __free_dbg_nolock          004e6c70 f   LIBCMTD:dbgheap.obj
 0002:0007e2b0       __free_nolock              004e72b0 f   LIBCMTD:dbgheap.obj
 0002:0007e2d0       __heap_alloc               004e72d0 f   LIBCMTD:dbgheap.obj
 0002:0007e2f0       __heap_alloc_dbg           004e72f0 f   LIBCMTD:dbgheap.obj
 0002:0007e810       __invoke_watson_if_oneof   004e7810 f i LIBCMTD:dbgheap.obj
 0002:0007e860       __malloc_dbg               004e7860 f   LIBCMTD:dbgheap.obj
 0002:0007e8a0       __msize                    004e78a0 f   LIBCMTD:dbgheap.obj
 0002:0007e8c0       __msize_dbg                004e78c0 f   LIBCMTD:dbgheap.obj
 0002:0007eb60       __nh_malloc                004e7b60 f   LIBCMTD:dbgheap.obj
 0002:0007eb90       __nh_malloc_dbg            004e7b90 f   LIBCMTD:dbgheap.obj
 0002:0007eeb0       __realloc_dbg              004e7eb0 f   LIBCMTD:dbgheap.obj
 0002:0007ef70       __recalloc                 004e7f70 f   LIBCMTD:dbgheap.obj
 0002:0007efb0       __recalloc_dbg             004e7fb0 f   LIBCMTD:dbgheap.obj
 0002:0007f820       ___copy_path_to_wide_string 004e8820 f   LIBCMTD:crt0dat.obj
 0002:0007fa80       ___copy_to_char            004e8a80 f   LIBCMTD:crt0dat.obj
 0002:0007fcf0       ___crtCorExitProcess       004e8cf0 f   LIBCMTD:crt0dat.obj
 0002:0007fd40       ___crtExitProcess          004e8d40 f   LIBCMTD:crt0dat.obj
 0002:0007fd70       ___freeCrtMemory           004e8d70 f   LIBCMTD:crt0dat.obj
 0002:0007ffb0       __amsg_exit                004e8fb0 f   LIBCMTD:crt0dat.obj
 0002:0007ffe0       __c_exit                   004e8fe0 f   LIBCMTD:crt0dat.obj
 0002:00080000       __cexit                    004e9000 f   LIBCMTD:crt0dat.obj
 0002:00080020       __cinit                    004e9020 f   LIBCMTD:crt0dat.obj
 0002:000800f0       __exit                     004e90f0 f   LIBCMTD:crt0dat.obj
 0002:00080110       __exit_app                 004e9110 f   LIBCMTD:crt0dat.obj
 0002:00080130       __get_pgmptr               004e9130 f   LIBCMTD:crt0dat.obj
 0002:00080290       __get_wpgmptr              004e9290 f   LIBCMTD:crt0dat.obj
 0002:000803f0       __init_pointers            004e93f0 f   LIBCMTD:crt0dat.obj
 0002:000804a0       __initterm_e               004e94a0 f   LIBCMTD:crt0dat.obj
 0002:000804f0       __lockexit                 004e94f0 f   LIBCMTD:crt0dat.obj
 0002:00080510       __unlockexit               004e9510 f   LIBCMTD:crt0dat.obj
 0002:00080790       _exit                      004e9790 f   LIBCMTD:crt0dat.obj
 0002:000807b0       ?_invalid_parameter@@YAXPBG00II@Z 004e97b0 f   LIBCMTD:invarg.obj
 0002:000807e0       ?_invoke_watson@@YAXPBG00II@Z 004e97e0 f   LIBCMTD:invarg.obj
 0002:00080810       __call_reportfault         004e9810 f   LIBCMTD:invarg.obj
 0002:000809c0       __get_invalid_parameter_handler 004e99c0 f   LIBCMTD:invarg.obj
 0002:000809f0       __initp_misc_invarg        004e99f0 f   LIBCMTD:invarg.obj
 0002:00080a00       __invalid_parameter        004e9a00 f   LIBCMTD:invarg.obj
 0002:00080a70       __invoke_watson            004e9a70 f   LIBCMTD:invarg.obj
 0002:00080ac0       __set_invalid_parameter_handler 004e9ac0 f   LIBCMTD:invarg.obj
 0002:00080b10       __filbuf                   004e9b10 f   LIBCMTD:_filbuf.obj
 0002:00080e20       __fileno                   004e9e20 f   LIBCMTD:fileno.obj
 0002:00080ed0       ?_CrtDbgReportW@@YAHHPBGH00ZZ 004e9ed0 f   LIBCMTD:dbgrptw.obj
 0002:00080f30       __CrtDbgReportW            004e9f30 f   LIBCMTD:dbgrptw.obj
 0002:00080f90       __CrtDbgReportWV           004e9f90 f i LIBCMTD:dbgrptw.obj
 0002:00080fd0       __CrtSetReportHookW2       004e9fd0 f   LIBCMTD:dbgrptw.obj
 0002:000813f0       ___crtMessageWindowW       004ea3f0 f   LIBCMTD:dbgrptw.obj
 0002:000819c0       ___doserrno                004ea9c0 f   LIBCMTD:dosmap.obj
 0002:000819f0       __dosmaperr                004ea9f0 f   LIBCMTD:dosmap.obj
 0002:00081a20       __errno                    004eaa20 f   LIBCMTD:dosmap.obj
 0002:00081a50       __get_doserrno             004eaa50 f   LIBCMTD:dosmap.obj
 0002:00081b00       __get_errno                004eab00 f   LIBCMTD:dosmap.obj
 0002:00081bb0       __get_errno_from_oserr     004eabb0 f   LIBCMTD:dosmap.obj
 0002:00081c40       __set_doserrno             004eac40 f   LIBCMTD:dosmap.obj
 0002:00081c80       __set_errno                004eac80 f   LIBCMTD:dosmap.obj
 0002:00081d40       __except_handler4          004ead40 f   LIBCMTD:chandler4.obj
 0002:00081f70       __ioinit                   004eaf70 f   LIBCMTD:ioinit.obj
 0002:00082590       __ioterm                   004eb590 f   LIBCMTD:ioinit.obj
 0002:00082660       __vprintf_l                004eb660 f   LIBCMTD:vprintf.obj
 0002:00082690       __vprintf_p                004eb690 f   LIBCMTD:vprintf.obj
 0002:000826c0       __vprintf_p_l              004eb6c0 f   LIBCMTD:vprintf.obj
 0002:000826f0       __vprintf_s_l              004eb6f0 f   LIBCMTD:vprintf.obj
 0002:00082720       _vprintf                   004eb720 f   LIBCMTD:vprintf.obj
 0002:00082750       _vprintf_helper            004eb750 f   LIBCMTD:vprintf.obj
 0002:000828e0       _vprintf_s                 004eb8e0 f   LIBCMTD:vprintf.obj
 0002:00082910       __ftbuf                    004eb910 f   LIBCMTD:_sftbuf.obj
 0002:000829c0       __stbuf                    004eb9c0 f   LIBCMTD:_sftbuf.obj
 0002:00082b90       __output_l                 004ebb90 f   LIBCMTD:output.obj
 0002:000847e0       _get_int64_arg             004ed7e0 f i LIBCMTD:output.obj
 0002:00084810       _get_int_arg               004ed810 f i LIBCMTD:output.obj
 0002:00084830       _get_short_arg             004ed830 f i LIBCMTD:output.obj
 0002:00084a60       __flsbuf                   004eda60 f   LIBCMTD:_flsbuf.obj
 0002:00084df0       __fwrite_nolock            004eddf0 f   LIBCMTD:fwrite.obj
 0002:00085300       _fwrite                    004ee300 f   LIBCMTD:fwrite.obj
 0002:00085470       __vscprintf                004ee470 f   LIBCMTD:vsprintf.obj
 0002:000854a0       __vscprintf_helper         004ee4a0 f   LIBCMTD:vsprintf.obj
 0002:000855d0       __vscprintf_l              004ee5d0 f   LIBCMTD:vsprintf.obj
 0002:00085600       __vscprintf_p              004ee600 f   LIBCMTD:vsprintf.obj
 0002:00085630       __vscprintf_p_l            004ee630 f   LIBCMTD:vsprintf.obj
 0002:00085660       __vsprintf_l               004ee660 f   LIBCMTD:vsprintf.obj
 0002:00085890       _vsprintf                  004ee890 f   LIBCMTD:vsprintf.obj
 0002:000858c0       __vsnprintf_c              004ee8c0 f   LIBCMTD:vsnprnc.obj
 0002:00085920       __vsnprintf_c_l            004ee920 f   LIBCMTD:vsnprnc.obj
 0002:00085980       __vsnprintf_helper         004ee980 f   LIBCMTD:vsnprnc.obj
 0002:00085c00       __vsnprintf_s              004eec00 f   LIBCMTD:vsnprnc.obj
 0002:00085c30       __vsnprintf_s_l            004eec30 f   LIBCMTD:vsnprnc.obj
 0002:000860e0       __vsprintf_p               004ef0e0 f   LIBCMTD:vsnprnc.obj
 0002:00086140       __vsprintf_p_l             004ef140 f   LIBCMTD:vsnprnc.obj
 0002:000861a0       __vsprintf_s_l             004ef1a0 f   LIBCMTD:vsnprnc.obj
 0002:000864d0       _vsprintf_s                004ef4d0 f   LIBCMTD:vsnprnc.obj
 0002:00086b80       __strtof_l                 004efb80 f   LIBCMTD:strtoq.obj
 0002:00086bb0       __strtoi64                 004efbb0 f   LIBCMTD:strtoq.obj
 0002:00086c10       __strtoi64_l               004efc10 f   LIBCMTD:strtoq.obj
 0002:00086c40       __strtoimax_l              004efc40 f   LIBCMTD:strtoq.obj
 0002:00086c70       __strtold_l                004efc70 f   LIBCMTD:strtoq.obj
 0002:00086c90       __strtoll_l                004efc90 f   LIBCMTD:strtoq.obj
 0002:00086cc0       __strtoui64                004efcc0 f   LIBCMTD:strtoq.obj
 0002:00086d20       __strtoui64_l              004efd20 f   LIBCMTD:strtoq.obj
 0002:00086d50       __strtoull_l               004efd50 f   LIBCMTD:strtoq.obj
 0002:00086d80       __strtoumax_l              004efd80 f   LIBCMTD:strtoq.obj
 0002:00086db0       _strtof                    004efdb0 f   LIBCMTD:strtoq.obj
 0002:00086de0       _strtoimax                 004efde0 f   LIBCMTD:strtoq.obj
 0002:00086e00       _strtold                   004efe00 f   LIBCMTD:strtoq.obj
 0002:00086e20       _strtoll                   004efe20 f   LIBCMTD:strtoq.obj
 0002:00086e40       _strtoull                  004efe40 f   LIBCMTD:strtoq.obj
 0002:00086e60       _strtoumax                 004efe60 f   LIBCMTD:strtoq.obj
 0002:00086e80       ___addlocaleref            004efe80 f   LIBCMTD:localref.obj
 0002:00086ff0       ___freetlocinfo            004efff0 f   LIBCMTD:localref.obj
 0002:000873a0       ___removelocaleref         004f03a0 f   LIBCMTD:localref.obj
 0002:00087510       ___updatetlocinfo          004f0510 f   LIBCMTD:localref.obj
 0002:00087610       __updatetlocinfoEx_nolock  004f0610 f   LIBCMTD:localref.obj
 0002:000876b0       ___initmbctable            004f06b0 f   LIBCMTD:mbctype.obj
 0002:00087e40       ___updatetmbcinfo          004f0e40 f   LIBCMTD:mbctype.obj
 0002:00087fa0       __getmbcp                  004f0fa0 f   LIBCMTD:mbctype.obj
 0002:00088030       __setmbcp                  004f1030 f   LIBCMTD:mbctype.obj
 0002:00088370       __setmbcp_nolock           004f1370 f   LIBCMTD:mbctype.obj
 0002:000887d0       __chvalidator              004f17d0 f   LIBCMTD:isctype.obj
 0002:00088830       __chvalidator_l            004f1830 f   LIBCMTD:isctype.obj
 0002:00088920       __isctype                  004f1920 f   LIBCMTD:isctype.obj
 0002:00088970       __isctype_l                004f1970 f   LIBCMTD:isctype.obj
 0002:00088b20       ___get_flsindex            004f1b20 f   LIBCMTD:tidtable.obj
 0002:00088b30       ___threadhandle            004f1b30 f   LIBCMTD:tidtable.obj
 0002:00088b40       ___threadid                004f1b40 f   LIBCMTD:tidtable.obj
 0002:00088b50       __freefls@4                004f1b50 f   LIBCMTD:tidtable.obj
 0002:00088dd0       __freeptd                  004f1dd0 f   LIBCMTD:tidtable.obj
 0002:00088e20       __getptd                   004f1e20 f   LIBCMTD:tidtable.obj
 0002:00088e50       __getptd_noexit            004f1e50 f   LIBCMTD:tidtable.obj
 0002:00088f30       __initptd                  004f1f30 f   LIBCMTD:tidtable.obj
 0002:000890c0       __mtinit                   004f20c0 f   LIBCMTD:tidtable.obj
 0002:000891a0       __mtterm                   004f21a0 f   LIBCMTD:tidtable.obj
 0002:00089320       ?_CallCatchBlock2@@YAPAXPAUEHRegistrationNode@@PBU_s_FuncInfo@@PAXHK@Z 004f2320 f   LIBCMTD:_trnsctrl_.obj
 0002:000893b0       ?_CallMemberFunction0@@YGXPAX0@Z 004f23b0 f   LIBCMTD:_trnsctrl_.obj
 0002:000893c0       ?_CallMemberFunction1@@YGXPAX00@Z 004f23c0 f   LIBCMTD:_trnsctrl_.obj
 0002:000893d0       ?_CallMemberFunction2@@YGXPAX00H@Z 004f23d0 f   LIBCMTD:_trnsctrl_.obj
 0002:000893e0       ?_CallSETranslator@@YAHPAUEHExceptionRecord@@PAUEHRegistrationNode@@PAX2PBU_s_FuncInfo@@H1@Z 004f23e0 f   LIBCMTD:_trnsctrl_.obj
 0002:00089510       ?_GetRangeOfTrysToCheck@@YAPBU_s_TryBlockMapEntry@@PBU_s_FuncInfo@@HHPAI1@Z 004f2510 f   LIBCMTD:_trnsctrl_.obj
 0002:000895c0       ?_JumpToContinuation@@YGXPAXPAUEHRegistrationNode@@@Z 004f25c0 f   LIBCMTD:_trnsctrl_.obj
 0002:00089600       ?_UnwindNestedFrames@@YGXPAUEHRegistrationNode@@PAUEHExceptionRecord@@@Z 004f2600 f   LIBCMTD:_trnsctrl_.obj
 0002:00089670       __CreateFrameInfo          004f2670 f   LIBCMTD:_trnsctrl_.obj
 0002:000896b0       __FindAndUnlinkFrame       004f26b0 f   LIBCMTD:_trnsctrl_.obj
 0002:00089720       __IsExceptionObjectToBeDestroyed 004f2720 f   LIBCMTD:_trnsctrl_.obj
 0002:00089760       ___CxxFrameHandler         004f2760 f   LIBCMTD:_trnsctrl_.obj
 0002:000897b0       ___CxxFrameHandler2        004f27b0 f   LIBCMTD:_trnsctrl_.obj
 0002:00089800       ___CxxFrameHandler3        004f2800 f   LIBCMTD:_trnsctrl_.obj
 0002:00089850       ___CxxLongjmpUnwind@4      004f2850 f   LIBCMTD:_trnsctrl_.obj
 0002:00089890       ___init_dummy              004f2890 f   LIBCMTD:wsetloca.obj
 0002:000898a0       __locterm                  004f28a0 f   LIBCMTD:wsetloca.obj
 0002:00089960       ____setlc_active_func      004f2960 f   LIBCMTD:wsetloca.obj
 0002:00089970       ____unguarded_readlc_active_add_func 004f2970 f   LIBCMTD:wsetloca.obj
 0002:00089980       ___copy_locale_name        004f2980 f   LIBCMTD:wsetloca.obj
 0002:00089a50       ___create_locale           004f2a50 f   LIBCMTD:wsetloca.obj
 0002:00089a70       ___free_locale             004f2a70 f   LIBCMTD:wsetloca.obj
 0002:00089a90       ___get_current_locale      004f2a90 f   LIBCMTD:wsetloca.obj
 0002:00089aa0       ___lc_lctowcs              004f2aa0 f   LIBCMTD:wsetloca.obj
 0002:00089b80       ___lc_wcstolc              004f2b80 f   LIBCMTD:wsetloca.obj
 0002:00089e30       __configthreadlocale       004f2e30 f   LIBCMTD:wsetloca.obj
 0002:00089fe0       __create_locale            004f2fe0 f   LIBCMTD:wsetloca.obj
 0002:0008a070       __expandlocale             004f3070 f   LIBCMTD:wsetloca.obj
 0002:0008a6a0       __free_locale              004f36a0 f   LIBCMTD:wsetloca.obj
 0002:0008a810       __get_current_locale       004f3810 f   LIBCMTD:wsetloca.obj
 0002:0008a970       __wcreate_locale           004f3970 f   LIBCMTD:wsetloca.obj
 0002:0008abd0       __wcscats                  004f3bd0 f   LIBCMTD:wsetloca.obj
 0002:0008ac60       __wsetlocale               004f3c60 f   LIBCMTD:wsetloca.obj
 0002:0008c110       ?__CxxUnhandledExceptionFilter@@YGJPAU_EXCEPTION_POINTERS@@@Z 004f5110 f   LIBCMTD:unhandld.obj
 0002:0008c190       ___CxxSetUnhandledExceptionFilter 004f5190 f   LIBCMTD:unhandld.obj
 0002:0008c1b0       __XcptFilter               004f51b0 f   LIBCMTD:winxfltr.obj
 0002:0008c430       ___CppXcptFilter           004f5430 f   LIBCMTD:winxfltr.obj
 0002:0008c4d0       __get_heap_handle          004f54d0 f   LIBCMTD:heapinit.obj
 0002:0008c520       __heap_init                004f5520 f   LIBCMTD:heapinit.obj
 0002:0008c550       __heap_term                004f5550 f   LIBCMTD:heapinit.obj
 0002:0008c570       __set_pgmptr               004f5570 f i LIBCMTD:stdargv.obj
 0002:0008c580       __setargv                  004f5580 f   LIBCMTD:stdargv.obj
 0002:0008cb80       __setenvp                  004f5b80 f   LIBCMTD:stdenvp.obj
 0002:0008cd80       __FF_MSGBANNER             004f5d80 f   LIBCMTD:crt0msg.obj
 0002:0008cde0       __GET_RTERRMSG             004f5de0 f   LIBCMTD:crt0msg.obj
 0002:0008ce30       __NMSG_WRITE               004f5e30 f   LIBCMTD:crt0msg.obj
 0002:0008d2e0       ___set_app_type            004f62e0 f   LIBCMTD:errmode.obj
 0002:0008d2f0       __set_error_mode           004f62f0 f   LIBCMTD:errmode.obj
 0002:0008d3e0       ___security_init_cookie    004f63e0 f   LIBCMTD:gs_support.obj
 0002:0008d500       __RTC_Initialize           004f6500 f   LIBCMTD:initsect.obj
 0002:0008d530       __RTC_Terminate            004f6530 f   LIBCMTD:initsect.obj
 0002:0008d560       ___crtGetEnvironmentStringsA 004f6560 f   LIBCMTD:a_env.obj
 0002:0008d6a0       _memcpy_s                  004f66a0 f   LIBCMTD:memcpy_s.obj
 0002:0008d8e0       _wcscat_s                  004f68e0 f   LIBCMTD:wcscat_s.obj
 0002:0008ddf0       _wcscpy_s                  004f6df0 f   LIBCMTD:wcscpy_s.obj
 0002:0008e1c0       _wcslen                    004f71c0 f   LIBCMTD:wcslen.obj
 0002:0008e210       _wcsncat_s                 004f7210 f   LIBCMTD:wcsncat_s.obj
 0002:0008e830       __set_abort_behavior       004f7830 f   LIBCMTD:abort.obj
 0002:0008e870       _abort                     004f7870 f   LIBCMTD:abort.obj
 0002:0008ee50       __i64tow_s                 004f7e50 f   LIBCMTD:xtows.obj
 0002:0008eeb0       __itow_s                   004f7eb0 f   LIBCMTD:xtows.obj
 0002:0008ef20       __ltow_s                   004f7f20 f   LIBCMTD:xtows.obj
 0002:0008ef70       __ui64tow_s                004f7f70 f   LIBCMTD:xtows.obj
 0002:0008efa0       __ultow_s                  004f7fa0 f   LIBCMTD:xtows.obj
 0002:0008f4d0       _setvbuf                   004f84d0 f   LIBCMTD:setvbuf.obj
 0002:0008f880       __fwprintf_l               004f8880 f   LIBCMTD:fwprintf.obj
 0002:0008f8b0       __fwprintf_p               004f88b0 f   LIBCMTD:fwprintf.obj
 0002:0008f8e0       __fwprintf_p_l             004f88e0 f   LIBCMTD:fwprintf.obj
 0002:0008f910       __fwprintf_s_l             004f8910 f   LIBCMTD:fwprintf.obj
 0002:0008f940       _fwprintf                  004f8940 f   LIBCMTD:fwprintf.obj
 0002:0008fb60       _fwprintf_s                004f8b60 f   LIBCMTD:fwprintf.obj
 0002:0008fb90       __vsnwprintf_s             004f8b90 f   LIBCMTD:vswprnc.obj
 0002:0008fbc0       __vsnwprintf_s_l           004f8bc0 f   LIBCMTD:vswprnc.obj
 0002:00090090       __vswprintf_c              004f9090 f   LIBCMTD:vswprnc.obj
 0002:000900f0       __vswprintf_c_l            004f90f0 f   LIBCMTD:vswprnc.obj
 0002:00090150       __vswprintf_helper         004f9150 f   LIBCMTD:vswprnc.obj
 0002:00090460       __vswprintf_p              004f9460 f   LIBCMTD:vswprnc.obj
 0002:000904c0       __vswprintf_p_l            004f94c0 f   LIBCMTD:vswprnc.obj
 0002:00090520       __vswprintf_s_l            004f9520 f   LIBCMTD:vswprnc.obj
 0002:00090850       _vswprintf_s               004f9850 f   LIBCMTD:vswprnc.obj
 0002:00090880       ___fpecode                 004f9880 f   LIBCMTD:winsig.obj
 0002:00090890       ___get_sigabrt             004f9890 f   LIBCMTD:winsig.obj
 0002:000908b0       ___pxcptinfoptrs           004f98b0 f   LIBCMTD:winsig.obj
 0002:000908c0       __initp_misc_winsig        004f98c0 f   LIBCMTD:winsig.obj
 0002:00090a30       _raise                     004f9a30 f   LIBCMTD:winsig.obj
 0002:00090ea0       _signal                    004f9ea0 f   LIBCMTD:winsig.obj
 0002:00091340       ___crtMessageBoxW          004fa340 f   LIBCMTD:crtmboxw.obj
 0002:00091720       ___crtMessageBoxWaitThreadW@4 004fa720 f   LIBCMTD:crtmboxw.obj
 0002:00091770       ___iswcsym                 004fa770 f i LIBCMTD:_wctype.obj
 0002:000917c0       ___iswcsymf                004fa7c0 f i LIBCMTD:_wctype.obj
 0002:00091810       __isleadbyte_l             004fa810 f i LIBCMTD:_wctype.obj
 0002:00091870       __iswalnum_l               004fa870 f i LIBCMTD:_wctype.obj
 0002:00091890       __iswalpha_l               004fa890 f i LIBCMTD:_wctype.obj
 0002:000918b0       __iswblank_l               004fa8b0 f i LIBCMTD:_wctype.obj
 0002:000918f0       __iswcntrl_l               004fa8f0 f i LIBCMTD:_wctype.obj
 0002:00091910       __iswcsym_l                004fa910 f i LIBCMTD:_wctype.obj
 0002:00091960       __iswcsymf_l               004fa960 f i LIBCMTD:_wctype.obj
 0002:000919b0       __iswdigit_l               004fa9b0 f i LIBCMTD:_wctype.obj
 0002:000919d0       __iswgraph_l               004fa9d0 f i LIBCMTD:_wctype.obj
 0002:000919f0       __iswlower_l               004fa9f0 f i LIBCMTD:_wctype.obj
 0002:00091a10       __iswprint_l               004faa10 f i LIBCMTD:_wctype.obj
 0002:00091a30       __iswpunct_l               004faa30 f i LIBCMTD:_wctype.obj
 0002:00091a50       __iswspace_l               004faa50 f i LIBCMTD:_wctype.obj
 0002:00091a70       __iswupper_l               004faa70 f i LIBCMTD:_wctype.obj
 0002:00091a90       __iswxdigit_l              004faa90 f i LIBCMTD:_wctype.obj
 0002:00091ab0       _isleadbyte                004faab0 f i LIBCMTD:_wctype.obj
 0002:00091ad0       _iswalnum                  004faad0 f i LIBCMTD:_wctype.obj
 0002:00091af0       _iswalpha                  004faaf0 f i LIBCMTD:_wctype.obj
 0002:00091b10       _iswascii                  004fab10 f i LIBCMTD:_wctype.obj
 0002:00091b40       _iswblank                  004fab40 f i LIBCMTD:_wctype.obj
 0002:00091b80       _iswcntrl                  004fab80 f i LIBCMTD:_wctype.obj
 0002:00091ba0       _iswdigit                  004faba0 f i LIBCMTD:_wctype.obj
 0002:00091bc0       _iswgraph                  004fabc0 f i LIBCMTD:_wctype.obj
 0002:00091be0       _iswlower                  004fabe0 f i LIBCMTD:_wctype.obj
 0002:00091c00       _iswprint                  004fac00 f i LIBCMTD:_wctype.obj
 0002:00091c20       _iswpunct                  004fac20 f i LIBCMTD:_wctype.obj
 0002:00091c40       _iswspace                  004fac40 f i LIBCMTD:_wctype.obj
 0002:00091c60       _iswupper                  004fac60 f i LIBCMTD:_wctype.obj
 0002:00091c80       _iswxdigit                 004fac80 f i LIBCMTD:_wctype.obj
 0002:000920a0       __MallocaIsSizeInRange     004fb0a0 f i LIBCMTD:a_map.obj
 0002:000920d0       __MarkAllocaS              004fb0d0 f i LIBCMTD:a_map.obj
 0002:00092100       ___crtLCMapStringA         004fb100 f   LIBCMTD:a_map.obj
 0002:00092170       __freea                    004fb170 f i LIBCMTD:a_map.obj
 0002:00092200       __global_unwind2           004fb200 f   LIBCMTD:exsup.obj
 0002:00092265       __local_unwind2            004fb265 f   LIBCMTD:exsup.obj
 0002:000922e9       __abnormal_termination     004fb2e9 f   LIBCMTD:exsup.obj
 0002:0009230c       __NLG_Notify1              004fb30c f   LIBCMTD:exsup.obj
 0002:00092315       __NLG_Notify               004fb315 f   LIBCMTD:exsup.obj
 0002:0009232c       __NLG_Dispatch             004fb32c     LIBCMTD:exsup.obj
 0002:0009232c       __NLG_Dispatch2            004fb32c     LIBCMTD:exsup.obj
 0002:00092334       __NLG_Call                 004fb334 f   LIBCMTD:exsup.obj
 0002:00092336       __NLG_Return2              004fb336     LIBCMTD:exsup.obj
 0002:00092390       __CrtDefaultAllocHook      004fb390 f   LIBCMTD:dbghook.obj
 0002:000923a0       __crt_debugger_hook        004fb3a0 f   LIBCMTD:dbghook.obj
 0002:00092420       ___crtCloseThreadpoolTimer 004fb420 f   LIBCMTD:winapisupp.obj
 0002:00092460       ___crtCloseThreadpoolWait  004fb460 f   LIBCMTD:winapisupp.obj
 0002:000924a0       ___crtCreateEventExW       004fb4a0 f   LIBCMTD:winapisupp.obj
 0002:00092510       ___crtCreateSemaphoreExW   004fb510 f   LIBCMTD:winapisupp.obj
 0002:00092580       ___crtCreateSymbolicLinkW  004fb580 f   LIBCMTD:winapisupp.obj
 0002:000925d0       ___crtCreateThreadpoolTimer 004fb5d0 f   LIBCMTD:winapisupp.obj
 0002:00092620       ___crtCreateThreadpoolWait 004fb620 f   LIBCMTD:winapisupp.obj
 0002:00092670       ___crtFlsAlloc             004fb670 f   LIBCMTD:winapisupp.obj
 0002:000926b0       ___crtFlsFree              004fb6b0 f   LIBCMTD:winapisupp.obj
 0002:00092700       ___crtFlsGetValue          004fb700 f   LIBCMTD:winapisupp.obj
 0002:00092740       ___crtFlsSetValue          004fb740 f   LIBCMTD:winapisupp.obj
 0002:00092790       ___crtFlushProcessWriteBuffers 004fb790 f   LIBCMTD:winapisupp.obj
 0002:000927c0       ___crtFreeLibraryWhenCallbackReturns 004fb7c0 f   LIBCMTD:winapisupp.obj
 0002:00092800       ___crtGetCurrentProcessorNumber 004fb800 f   LIBCMTD:winapisupp.obj
 0002:00092840       ___crtGetFileInformationByHandleEx 004fb840 f   LIBCMTD:winapisupp.obj
 0002:00092890       ___crtGetLogicalProcessorInformation 004fb890 f   LIBCMTD:winapisupp.obj
 0002:000928e0       ___crtGetShowWindowMode    004fb8e0 f   LIBCMTD:winapisupp.obj
 0002:00092920       ___crtGetTickCount64       004fb920 f   LIBCMTD:winapisupp.obj
 0002:00092960       ___crtInitializeCriticalSectionEx 004fb960 f   LIBCMTD:winapisupp.obj
 0002:000929c0       ___crtIsPackagedApp        004fb9c0 f   LIBCMTD:winapisupp.obj
 0002:00092a10       ___crtLoadWinApiPointers   004fba10 f   LIBCMTD:winapisupp.obj
 0002:00092fd0       ___crtSetFileInformationByHandle 004fbfd0 f   LIBCMTD:winapisupp.obj
 0002:00093020       ___crtSetThreadStackGuarantee 004fc020 f   LIBCMTD:winapisupp.obj
 0002:00093060       ___crtSetThreadpoolTimer   004fc060 f   LIBCMTD:winapisupp.obj
 0002:000930b0       ___crtSetThreadpoolWait    004fc0b0 f   LIBCMTD:winapisupp.obj
 0002:000930f0       ___crtSetUnhandledExceptionFilter 004fc0f0 f   LIBCMTD:winapisupp.obj
 0002:00093110       ___crtSleep                004fc110 f   LIBCMTD:winapisupp.obj
 0002:00093130       ___crtTerminateProcess     004fc130 f   LIBCMTD:winapisupp.obj
 0002:00093150       ___crtUnhandledException   004fc150 f   LIBCMTD:winapisupp.obj
 0002:00093170       ___crtWaitForThreadpoolTimerCallbacks 004fc170 f   LIBCMTD:winapisupp.obj
 0002:000931b0       ___ascii_strnicmp          004fc1b0 f   LIBCMTD:_strnicm.obj
 0002:00093230       ?strrchr@@YAPADPADH@Z      004fc230 f i LIBCMTD:cvt.obj
 0002:00093250       __cfltcvt                  004fc250 f   LIBCMTD:cvt.obj
 0002:00093280       __cfltcvt_l                004fc280 f   LIBCMTD:cvt.obj
 0002:00093370       __cftoa                    004fc370 f   LIBCMTD:cvt.obj
 0002:000933a0       __cftoa_l                  004fc3a0 f   LIBCMTD:cvt.obj
 0002:00093e20       __cftoe                    004fce20 f   LIBCMTD:cvt.obj
 0002:00094360       __cftoe_l                  004fd360 f   LIBCMTD:cvt.obj
 0002:00094620       __cftof                    004fd620 f   LIBCMTD:cvt.obj
 0002:00094990       __cftof_l                  004fd990 f   LIBCMTD:cvt.obj
 0002:00094c10       __cftog                    004fdc10 f   LIBCMTD:cvt.obj
 0002:00094c40       __cftog_l                  004fdc40 f   LIBCMTD:cvt.obj
 0002:00094f70       __cropzeros                004fdf70 f   LIBCMTD:cvt.obj
 0002:00094f90       __cropzeros_l              004fdf90 f   LIBCMTD:cvt.obj
 0002:000950f0       __fassign                  004fe0f0 f   LIBCMTD:cvt.obj
 0002:00095120       __fassign_l                004fe120 f   LIBCMTD:cvt.obj
 0002:00095190       __forcdecpt                004fe190 f   LIBCMTD:cvt.obj
 0002:000951b0       __forcdecpt_l              004fe1b0 f   LIBCMTD:cvt.obj
 0002:000952b0       __positive                 004fe2b0 f   LIBCMTD:cvt.obj
 0002:00095330       __setdefaultprecision      004fe330 f   LIBCMTD:fp8.obj
 0002:00095380       __initp_misc_cfltcvt_tab   004fe380 f   LIBCMTD:cmiscdat.obj
 0002:000953d0       __rt_probe_read4@4         004fe3d0 f   LIBCMTD:sehsupp.obj
 0002:000954a0       __cintrindisp2             004fe4a0 f   LIBCMTD:87cdisp.obj
 0002:000954de       __cintrindisp1             004fe4de f   LIBCMTD:87cdisp.obj
 0002:0009551b       __ctrandisp2               004fe51b f   LIBCMTD:87cdisp.obj
 0002:000956aa       __ctrandisp1               004fe6aa f   LIBCMTD:87cdisp.obj
 0002:000956dd       __fload                    004fe6dd f   LIBCMTD:87cdisp.obj
 0002:000957c0       __trandisp1                004fe7c0 f   LIBCMTD:87disp.obj
 0002:00095827       __trandisp2                004fe827 f   LIBCMTD:87disp.obj
 0002:000958b3       __rttospopde               004fe8b3     LIBCMTD:87disp.obj
 0002:000958b8       __rttospop                 004fe8b8     LIBCMTD:87disp.obj
 0002:000958ba       __rtnospop                 004fe8ba     LIBCMTD:87disp.obj
 0002:000958bc       __rttosnpop                004fe8bc     LIBCMTD:87disp.obj
 0002:000958bd       __rtnospopde               004fe8bd     LIBCMTD:87disp.obj
 0002:000958c4       __rtzeropop                004fe8c4     LIBCMTD:87disp.obj
 0002:000958c6       __rtzeronpop               004fe8c6     LIBCMTD:87disp.obj
 0002:000958cb       __rtonepop                 004fe8cb     LIBCMTD:87disp.obj
 0002:000958cd       __rtonenpop                004fe8cd     LIBCMTD:87disp.obj
 0002:000958d2       __tosnan1                  004fe8d2     LIBCMTD:87disp.obj
 0002:000958fd       __nosnan2                  004fe8fd     LIBCMTD:87disp.obj
 0002:000958ff       __tosnan2                  004fe8ff     LIBCMTD:87disp.obj
 0002:00095927       __nan2                     004fe927     LIBCMTD:87disp.obj
 0002:00095966       __rtindfpop                004fe966     LIBCMTD:87disp.obj
 0002:00095968       __rtindfnpop               004fe968     LIBCMTD:87disp.obj
 0002:00095979       __rttosnpopde              004fe979     LIBCMTD:87disp.obj
 0002:00095983       __rtchsifneg               004fe983     LIBCMTD:87disp.obj
 0002:00095a00       __errcode                  004fea00 f   LIBCMTD:fpexcept.obj
 0002:00095a80       __except1                  004fea80 f   LIBCMTD:fpexcept.obj
 0002:00095bc0       __except2                  004febc0 f   LIBCMTD:fpexcept.obj
 0002:00095d60       __handle_exc               004fed60 f   LIBCMTD:fpexcept.obj
 0002:00096140       __handle_qnan1             004ff140 f   LIBCMTD:fpexcept.obj
 0002:000961c0       __handle_qnan2             004ff1c0 f   LIBCMTD:fpexcept.obj
 0002:00096250       __raise_exc                004ff250 f   LIBCMTD:fpexcept.obj
 0002:00096280       __raise_exc_ex             004ff280 f   LIBCMTD:fpexcept.obj
 0002:00096960       __raise_excf               004ff960 f   LIBCMTD:fpexcept.obj
 0002:00096990       __set_errno_from_matherr   004ff990 f   LIBCMTD:fpexcept.obj
 0002:000969e0       __umatherr                 004ff9e0 f   LIBCMTD:fpexcept.obj
 0002:00096ab0       __fclose_nolock            004ffab0 f   LIBCMTD:fclose.obj
 0002:00096c00       _fclose                    004ffc00 f   LIBCMTD:fclose.obj
 0002:00096d60       __commit                   004ffd60 f   LIBCMTD:commit.obj
 0002:00097030       __write                    00500030 f   LIBCMTD:write.obj
 0002:00097310       __write_nolock             00500310 f   LIBCMTD:write.obj
 0002:00098420       __free_base                00501420 f   LIBCMTD:free.obj
 0002:00098480       __realloc_base             00501480 f   LIBCMTD:realloc.obj
 0002:000985c0       __expand_base              005015c0 f   LIBCMTD:expand.obj
 0002:00098780       __CrtDbgReport             00501780 f   LIBCMTD:dbgrpt.obj
 0002:000987e0       __CrtDbgReportV            005017e0 f i LIBCMTD:dbgrpt.obj
 0002:00098820       __CrtSetReportHook2        00501820 f   LIBCMTD:dbgrpt.obj
 0002:00098c40       ___crtMessageWindowA       00501c40 f   LIBCMTD:dbgrpt.obj
 0002:00099210       ?_query_new_handler@@YAP6AHI@ZXZ 00502210 f   LIBCMTD:handler.obj
 0002:00099230       ?_set_new_handler@@YAP6AHI@ZH@Z 00502230 f   LIBCMTD:handler.obj
 0002:00099280       ?_set_new_handler@@YAP6AHI@ZP6AHI@Z@Z 00502280 f   LIBCMTD:handler.obj
 0002:000992d0       __callnewh                 005022d0 f   LIBCMTD:handler.obj
 0002:00099320       __initp_heap_handler       00502320 f   LIBCMTD:handler.obj
 0002:00099330       __heapchk                  00502330 f   LIBCMTD:heapchk.obj
 0002:00099370       __heapset                  00502370 f   LIBCMTD:heapchk.obj
 0002:00099380       __heap_alloc_base          00502380 f i LIBCMTD:malloc.obj
 0002:000993f0       __malloc_base              005023f0 f   LIBCMTD:malloc.obj
 0002:000994a0       __FindPESection            005024a0 f   LIBCMTD:pesect.obj
 0002:00099530       __IsNonwritableInCurrentImage 00502530 f   LIBCMTD:pesect.obj
 0002:000996b0       __ValidateImageBase        005026b0 f   LIBCMTD:pesect.obj
 0002:00099730       ___onexitinit              00502730 f   LIBCMTD:onexit.obj
 0002:000997a0       __onexit                   005027a0 f   LIBCMTD:onexit.obj
 0002:000999d0       _atexit                    005029d0 f   LIBCMTD:onexit.obj
 0002:00099a10       ?_inconsistency@@YAXXZ     00502a10 f   LIBCMTD:hooks.obj
 0002:00099ac0       ?terminate@@YAXXZ          00502ac0 f   LIBCMTD:hooks.obj
 0002:00099b60       ?unexpected@@YAXXZ         00502b60 f   LIBCMTD:hooks.obj
 0002:00099b90       __initp_eh_hooks           00502b90 f   LIBCMTD:hooks.obj
 0002:00099bb0       ___getlocaleinfo           00502bb0 f   LIBCMTD:inithelp.obj
 0002:00099f70       __initp_misc_purevirt      00502f70 f   LIBCMTD:inithelp.obj
 0002:00099f80       __initp_misc_rand_s        00502f80 f   LIBCMTD:rand_s.obj
 0002:00099f90       _rand_s                    00502f90 f   LIBCMTD:rand_s.obj
 0002:0009a290       __read                     00503290 f   LIBCMTD:read.obj
 0002:0009a620       __read_nolock              00503620 f   LIBCMTD:read.obj
 0002:0009bcf0       __getbuf                   00504cf0 f   LIBCMTD:_getbuf.obj
 0002:0009bdf0       ___swprintf_l              00504df0 f   LIBCMTD:swprintf.obj
 0002:0009be20       __scwprintf                00504e20 f   LIBCMTD:swprintf.obj
 0002:0009be50       __scwprintf_l              00504e50 f   LIBCMTD:swprintf.obj
 0002:0009be80       __scwprintf_p              00504e80 f   LIBCMTD:swprintf.obj
 0002:0009beb0       __scwprintf_p_l            00504eb0 f   LIBCMTD:swprintf.obj
 0002:0009bee0       __snwprintf_s              00504ee0 f   LIBCMTD:swprintf.obj
 0002:0009bf20       __snwprintf_s_l            00504f20 f   LIBCMTD:swprintf.obj
 0002:0009bf60       __swprintf                 00504f60 f   LIBCMTD:swprintf.obj
 0002:0009c210       __swprintf_p               00505210 f   LIBCMTD:swprintf.obj
 0002:0009c250       __swprintf_p_l             00505250 f   LIBCMTD:swprintf.obj
 0002:0009c290       __swprintf_s_l             00505290 f   LIBCMTD:swprintf.obj
 0002:0009c2d0       _swprintf_s                005052d0 f   LIBCMTD:swprintf.obj
 0002:0009c310       __CrtDbgBreak              00505310 f   LIBCMTD:dbgrptt.obj
 0002:0009c320       __CrtGetReportHook         00505320 f   LIBCMTD:dbgrptt.obj
 0002:0009c330       __CrtSetReportFile         00505330 f   LIBCMTD:dbgrptt.obj
 0002:0009c470       __CrtSetReportHook         00505470 f   LIBCMTD:dbgrptt.obj
 0002:0009c4a0       __CrtSetReportMode         005054a0 f   LIBCMTD:dbgrptt.obj
 0002:0009c630       __VCrtDbgReportA           00505630 f   LIBCMTD:dbgrptt.obj
 0002:0009d0c0       __VCrtDbgReportW           005060c0 f   LIBCMTD:dbgrptt.obj
 0002:0009dc90       __local_unwind4            00506c90 f   LIBCMTD:exsup4.obj
 0002:0009dd66       __seh_longjmp_unwind4@4    00506d66 f   LIBCMTD:exsup4.obj
 0002:0009dd82       @_EH4_CallFilterFunc@8     00506d82 f   LIBCMTD:exsup4.obj
 0002:0009dd99       @_EH4_TransferToHandler@8  00506d99 f   LIBCMTD:exsup4.obj
 0002:0009ddb2       @_EH4_GlobalUnwind2@8      00506db2 f   LIBCMTD:exsup4.obj
 0002:0009ddcb       @_EH4_LocalUnwind@16       00506dcb f   LIBCMTD:exsup4.obj
 0002:0009de40       __output_s_l               00506e40 f   LIBCMTD:outputs.obj
 0002:0009fe50       __output_p_l               00508e50 f   LIBCMTD:outputp.obj
 0002:000a4bd0       __validate_param_reuseA    0050dbd0 f   LIBCMTD:outputp.obj
 0002:000a4f70       _get_crtdouble_arg         0050df70 f i LIBCMTD:outputp.obj
 0002:000a51a0       __isatty                   0050e1a0 f   LIBCMTD:isatty.obj
 0002:000a5290       __wctomb_l                 0050e290 f   LIBCMTD:wctomb.obj
 0002:000a5320       __wctomb_s_l               0050e320 f   LIBCMTD:wctomb.obj
 0002:000a5740       _wctomb                    0050e740 f   LIBCMTD:wctomb.obj
 0002:000a57a0       _wctomb_s                  0050e7a0 f   LIBCMTD:wctomb.obj
 0002:000a57d0       __aulldiv                  0050e7d0 f   LIBCMTD:ulldiv.obj
 0002:000a5860       __aullrem                  0050e860 f   LIBCMTD:ullrem.obj
 0002:000a5900       __lseeki64                 0050e900 f   LIBCMTD:lseeki64.obj
 0002:000a5c10       __lseeki64_nolock          0050ec10 f   LIBCMTD:lseeki64.obj
 0002:000a5d10       __strtod_l                 0050ed10 f   LIBCMTD:strtod.obj
 0002:000a5fa0       _strtod                    0050efa0 f   LIBCMTD:strtod.obj
 0002:000a5fc0       ___crt_atoflt_l            0050efc0 f   LIBCMTD:atodbl.obj
 0002:000a6110       __atodbl                   0050f110 f   LIBCMTD:atodbl.obj
 0002:000a6130       __atodbl_l                 0050f130 f   LIBCMTD:atodbl.obj
 0002:000a6270       __atoflt                   0050f270 f   LIBCMTD:atodbl.obj
 0002:000a6290       __atoflt_l                 0050f290 f   LIBCMTD:atodbl.obj
 0002:000a62c0       __atoldbl                  0050f2c0 f   LIBCMTD:atodbl.obj
 0002:000a62e0       __atoldbl_l                0050f2e0 f   LIBCMTD:atodbl.obj
 0002:000a6420       ___free_lconv_mon          0050f420 f   LIBCMTD:initmon.obj
 0002:000a6630       ___init_monetary           0050f630 f   LIBCMTD:initmon.obj
 0002:000a6dc0       ___free_lconv_num          0050fdc0 f   LIBCMTD:initnum.obj
 0002:000a6ea0       ___init_numeric            0050fea0 f   LIBCMTD:initnum.obj
 0002:000a7360       ___free_lc_time            00510360 f   LIBCMTD:inittime.obj
 0002:000a7ee0       ___init_time               00510ee0 f   LIBCMTD:inittime.obj
 0002:000a92e0       _localeconv                005122e0 f   LIBCMTD:lconv.obj
 0002:000a94c0       ___crtGetStringTypeA       005124c0 f   LIBCMTD:a_str.obj
 0002:000a9520       __CallSettingFrame@12      00512520 f   LIBCMTD:lowhelpr.obj
 0002:000a9547       __NLG_Return               00512547     LIBCMTD:lowhelpr.obj
 0002:000a9580       ___DestructExceptionObject 00512580 f   LIBCMTD:frame.obj
 0002:000a96f0       ??0bad_exception@std@@QAE@ABV01@@Z 005126f0 f i LIBCMTD:frame.obj
 0002:000a9720       ??0bad_exception@std@@QAE@PBD@Z 00512720 f i LIBCMTD:frame.obj
 0002:000a9750       ??1bad_exception@std@@UAE@XZ 00512750 f i LIBCMTD:frame.obj
 0002:000a9780       ??_Gbad_exception@std@@UAEPAXI@Z 00512780 f i LIBCMTD:frame.obj
 0002:000a9780       ??_Ebad_exception@std@@UAEPAXI@Z 00512780 f i LIBCMTD:frame.obj
 0002:000aa670       ?__uncaught_exception@@YA_NXZ 00513670 f   LIBCMTD:frame.obj
 0002:000aa6b0       ?_is_exception_typeof@@YAHABVtype_info@@PAU_EXCEPTION_POINTERS@@@Z 005136b0 f   LIBCMTD:frame.obj
 0002:000aa7c0       __SetWinRTOutOfMemoryExceptionCallback 005137c0 f   LIBCMTD:frame.obj
 0002:000aa7d0       ___AdjustPointer           005137d0 f   LIBCMTD:frame.obj
 0002:000aa830       ___BuildCatchObject        00513830 f   LIBCMTD:frame.obj
 0002:000aa980       ___BuildCatchObjectHelper  00513980 f   LIBCMTD:frame.obj
 0002:000aad30       ___CxxDetectRethrow        00513d30 f   LIBCMTD:frame.obj
 0002:000aadd0       ___CxxExceptionFilter      00513dd0 f   LIBCMTD:frame.obj
 0002:000ab050       ___CxxQueryExceptionSize   00514050 f   LIBCMTD:frame.obj
 0002:000ab060       ___CxxRegisterExceptionObject 00514060 f   LIBCMTD:frame.obj
 0002:000ab1f0       ___CxxUnregisterExceptionObject 005141f0 f   LIBCMTD:frame.obj
 0002:000ab3d0       ___FrameUnwindFilter       005143d0 f   LIBCMTD:frame.obj
 0002:000ab470       ___FrameUnwindToState      00514470 f   LIBCMTD:frame.obj
 0002:000ab650       ___GetPlatformExceptionInfo 00514650 f   LIBCMTD:frame.obj
 0002:000ab730       ___InternalCxxFrameHandler 00514730 f   LIBCMTD:frame.obj
 0002:000ab900       ___TypeMatch               00514900 f   LIBCMTD:frame.obj
 0002:000aba10       ___pctype_func             00514a10 f   LIBCMTD:ctype.obj
 0002:000aba70       ___pwctype_func            00514a70 f   LIBCMTD:ctype.obj
 0002:000aba80       ___init_collate            00514a80 f   LIBCMTD:initcoll.obj
 0002:000aba90       ____lc_codepage_func       00514a90 f   LIBCMTD:initctyp.obj
 0002:000abaf0       ____lc_collate_cp_func     00514af0 f   LIBCMTD:initctyp.obj
 0002:000abb50       ____lc_locale_name_func    00514b50 f   LIBCMTD:initctyp.obj
 0002:000abbb0       ____mb_cur_max_func        00514bb0 f   LIBCMTD:initctyp.obj
 0002:000abc10       ____mb_cur_max_l_func      00514c10 f   LIBCMTD:initctyp.obj
 0002:000abc40       ___init_ctype              00514c40 f   LIBCMTD:initctyp.obj
 0002:000ac400       _wcscmp                    00515400 f   LIBCMTD:wcscmp.obj
 0002:000ac480       _wcscspn                   00515480 f   LIBCMTD:wcscspn.obj
 0002:000ac500       _wcsnlen                   00515500 f   LIBCMTD:wcslen_s.obj
 0002:000ac550       _wcsncmp                   00515550 f   LIBCMTD:wcsncmp.obj
 0002:000ac5c0       _wcsncpy_s                 005155c0 f   LIBCMTD:wcsncpy_s.obj
 0002:000acb00       _wcspbrk                   00515b00 f   LIBCMTD:wcspbrk.obj
 0002:000ad930       ___get_qualified_locale    00516930 f   LIBCMTD:getqloc.obj
 0002:000aecd0       ___get_qualified_locale_downlevel 00517cd0 f   LIBCMTD:getqloc_downlevel.obj
 0002:000af050       _GetTableIndexFromLcid     00518050 f   LIBCMTD:winapinls.obj
 0002:000af0d0       _GetTableIndexFromLocaleName 005180d0 f   LIBCMTD:winapinls.obj
 0002:000af180       ___crtCompareStringEx      00518180 f   LIBCMTD:winapinls.obj
 0002:000af210       ___crtDownlevelLCIDToLocaleName 00518210 f   LIBCMTD:winapinls.obj
 0002:000af310       ___crtDownlevelLocaleNameToLCID 00518310 f   LIBCMTD:winapinls.obj
 0002:000af380       ___crtEnumSystemLocalesEx  00518380 f   LIBCMTD:winapinls.obj
 0002:000af400       ___crtGetDateFormatEx      00518400 f   LIBCMTD:winapinls.obj
 0002:000af480       ___crtGetLocaleInfoEx      00518480 f   LIBCMTD:winapinls.obj
 0002:000af4f0       ___crtGetTimeFormatEx      005184f0 f   LIBCMTD:winapinls.obj
 0002:000af570       ___crtGetUserDefaultLocaleName 00518570 f   LIBCMTD:winapinls.obj
 0002:000af5d0       ___crtIsValidLocaleName    005185d0 f   LIBCMTD:winapinls.obj
 0002:000af620       ___crtLCMapStringEx        00518620 f   LIBCMTD:winapinls.obj
 0002:000af6b0       ___wcsnicmp_ascii          005186b0 f   LIBCMTD:winapinls.obj
 0002:000af8a0       __ismbbalnum               005188a0 f   LIBCMTD:ismbbyte.obj
 0002:000af8c0       __ismbbalnum_l             005188c0 f   LIBCMTD:ismbbyte.obj
 0002:000af8f0       __ismbbalpha               005188f0 f   LIBCMTD:ismbbyte.obj
 0002:000af910       __ismbbalpha_l             00518910 f   LIBCMTD:ismbbyte.obj
 0002:000af940       __ismbbblank               00518940 f   LIBCMTD:ismbbyte.obj
 0002:000af980       __ismbbblank_l             00518980 f   LIBCMTD:ismbbyte.obj
 0002:000af9c0       __ismbbgraph               005189c0 f   LIBCMTD:ismbbyte.obj
 0002:000af9e0       __ismbbgraph_l             005189e0 f   LIBCMTD:ismbbyte.obj
 0002:000afa10       __ismbbkalnum              00518a10 f   LIBCMTD:ismbbyte.obj
 0002:000afa30       __ismbbkalnum_l            00518a30 f   LIBCMTD:ismbbyte.obj
 0002:000afa50       __ismbbkana                00518a50 f   LIBCMTD:ismbbyte.obj
 0002:000afa70       __ismbbkana_l              00518a70 f   LIBCMTD:ismbbyte.obj
 0002:000afb00       __ismbbkprint              00518b00 f   LIBCMTD:ismbbyte.obj
 0002:000afb20       __ismbbkprint_l            00518b20 f   LIBCMTD:ismbbyte.obj
 0002:000afb40       __ismbbkpunct              00518b40 f   LIBCMTD:ismbbyte.obj
 0002:000afb60       __ismbbkpunct_l            00518b60 f   LIBCMTD:ismbbyte.obj
 0002:000afb80       __ismbblead                00518b80 f   LIBCMTD:ismbbyte.obj
 0002:000afba0       __ismbblead_l              00518ba0 f   LIBCMTD:ismbbyte.obj
 0002:000afbc0       __ismbbprint               00518bc0 f   LIBCMTD:ismbbyte.obj
 0002:000afbe0       __ismbbprint_l             00518be0 f   LIBCMTD:ismbbyte.obj
 0002:000afc10       __ismbbpunct               00518c10 f   LIBCMTD:ismbbyte.obj
 0002:000afc30       __ismbbpunct_l             00518c30 f   LIBCMTD:ismbbyte.obj
 0002:000afc50       __ismbbtrail               00518c50 f   LIBCMTD:ismbbyte.obj
 0002:000afc70       __ismbbtrail_l             00518c70 f   LIBCMTD:ismbbyte.obj
 0002:000afc90       _strcpy_s                  00518c90 f   LIBCMTD:strcpy_s.obj
 0002:000b0050       __freebuf                  00519050 f   LIBCMTD:_freebuf.obj
 0002:000b0100       __vfwprintf_l              00519100 f   LIBCMTD:vfwprint.obj
 0002:000b0130       __vfwprintf_p              00519130 f   LIBCMTD:vfwprint.obj
 0002:000b0160       __vfwprintf_p_l            00519160 f   LIBCMTD:vfwprint.obj
 0002:000b0190       __vfwprintf_s_l            00519190 f   LIBCMTD:vfwprint.obj
 0002:000b01c0       _vfwprintf                 005191c0 f   LIBCMTD:vfwprint.obj
 0002:000b01f0       _vfwprintf_helper          005191f0 f   LIBCMTD:vfwprint.obj
 0002:000b0400       _vfwprintf_s               00519400 f   LIBCMTD:vfwprint.obj
 0002:000b0430       __woutput_l                00519430 f   LIBCMTD:woutput.obj
 0002:000b1f90       __woutput_s_l              0051af90 f   LIBCMTD:woutputs.obj
 0002:000b3cb0       __validate_param_reuseW    0051ccb0 f   LIBCMTD:woutputp.obj
 0002:000b4050       __woutput_p_l              0051d050 f   LIBCMTD:woutputp.obj
 0002:000b8a10       __iswctype_l               00521a10 f   LIBCMTD:iswctype.obj
 0002:000b8a30       _is_wctype                 00521a30 f   LIBCMTD:iswctype.obj
 0002:000b8a50       _iswctype                  00521a50 f   LIBCMTD:iswctype.obj
 0002:000b8ad0       _strrchr                   00521ad0 f   LIBCMTD:strrchr.obj
 0002:000b8c60       __fptostr                  00521c60 f   LIBCMTD:_fptostr.obj
 0002:000b9040       ___dtold                   00522040 f   LIBCMTD:cfout.obj
 0002:000b9200       __fltout2                  00522200 f   LIBCMTD:cfout.obj
 0002:000b92e0       __allrem                   005222e0 f   LIBCMTD:llrem.obj
 0002:000b93c0       __allshl                   005223c0 f   LIBCMTD:llshl.obj
 0002:000b93f0       __aullshr                  005223f0 f   LIBCMTD:ullshr.obj
 0002:000b9420       __get_output_format        00522420 f   LIBCMTD:outputformat.obj
 0002:000b9430       __set_output_format        00522430 f   LIBCMTD:outputformat.obj
 0002:000b94f0       __controlfp_s              005224f0 f   LIBCMTD:contrlfp.obj
 0002:000b9610       __fptrap                   00522610 f   LIBCMTD:crt0fp.obj
 0002:000b9630       __87except                 00522630 f   LIBCMTD:87except.obj
 0002:000b98b0       __add_exp                  005228b0 f   LIBCMTD:util.obj
 0002:000b98f0       __decomp                   005228f0 f   LIBCMTD:util.obj
 0002:000b9a60       __get_exp                  00522a60 f   LIBCMTD:util.obj
 0002:000b9aa0       __set_bexp                 00522aa0 f   LIBCMTD:util.obj
 0002:000b9ae0       __set_exp                  00522ae0 f   LIBCMTD:util.obj
 0002:000b9b30       __sptype                   00522b30 f   LIBCMTD:util.obj
 0002:000b9bc0       ___clrfp_sse2              00522bc0 f   LIBCMTD:fpctrl.obj
 0002:000b9c00       ___ctrlfp_sse2             00522c00 f   LIBCMTD:fpctrl.obj
 0002:000b9c70       ___fclrf_sse2              00522c70 f   LIBCMTD:fpctrl.obj
 0002:000b9ca0       ___get_fpsr_sse2           00522ca0 f   LIBCMTD:fpctrl.obj
 0002:000b9cd0       ___set_fpsr_sse2           00522cd0 f   LIBCMTD:fpctrl.obj
 0002:000b9de0       ___set_statfp_sse2         00522de0 f   LIBCMTD:fpctrl.obj
 0002:000b9e20       ___statfp_sse2             00522e20 f   LIBCMTD:fpctrl.obj
 0002:000b9e60       __clrfp                    00522e60 f   LIBCMTD:fpctrl.obj
 0002:000b9e80       __ctrlfp                   00522e80 f   LIBCMTD:fpctrl.obj
 0002:000b9ec0       __set_statfp               00522ec0 f   LIBCMTD:fpctrl.obj
 0002:000b9f40       __statfp                   00522f40 f   LIBCMTD:fpctrl.obj
 0002:000b9f60       __matherr                  00522f60 f   LIBCMTD:matherr.obj
 0002:000b9f70       __close                    00522f70 f   LIBCMTD:close.obj
 0002:000ba240       __close_nolock             00523240 f   LIBCMTD:close.obj
 0002:000ba360       ___lock_fhandle            00523360 f   LIBCMTD:osfinfo.obj
 0002:000ba490       __alloc_osfhnd             00523490 f   LIBCMTD:osfinfo.obj
 0002:000ba7e0       __free_osfhnd              005237e0 f   LIBCMTD:osfinfo.obj
 0002:000ba900       __get_osfhandle            00523900 f   LIBCMTD:osfinfo.obj
 0002:000baae0       __open_osfhandle           00523ae0 f   LIBCMTD:osfinfo.obj
 0002:000bad90       __set_osfhnd               00523d90 f   LIBCMTD:osfinfo.obj
 0002:000bae90       __unlock_fhandle           00523e90 f   LIBCMTD:osfinfo.obj
 0002:000baec0       __mbtowc_l                 00523ec0 f   LIBCMTD:mbtowc.obj
 0002:000bb180       _mbtowc                    00524180 f   LIBCMTD:mbtowc.obj
 0002:000bb1b0       __putwch                   005241b0 f   LIBCMTD:putwch.obj
 0002:000bb260       __putwch_nolock            00524260 f   LIBCMTD:putwch.obj
 0002:000bb2d0       _strncpy_s                 005242d0 f   LIBCMTD:strncpy_s.obj
 0002:000bb970       ___crtGetLocaleInfoA       00524970 f   LIBCMTD:a_loc.obj
 0002:000bb9d0       ___vswprintf_l             005249d0 f   LIBCMTD:vswprint.obj
 0002:000bba00       __vscwprintf               00524a00 f   LIBCMTD:vswprint.obj
 0002:000bba30       __vscwprintf_helper        00524a30 f   LIBCMTD:vswprint.obj
 0002:000bbb60       __vscwprintf_l             00524b60 f   LIBCMTD:vswprint.obj
 0002:000bbb90       __vscwprintf_p             00524b90 f   LIBCMTD:vswprint.obj
 0002:000bbbc0       __vscwprintf_p_l           00524bc0 f   LIBCMTD:vswprint.obj
 0002:000bbbf0       __vswprintf                00524bf0 f   LIBCMTD:vswprint.obj
 0002:000bbc20       __vswprintf_l              00524c20 f   LIBCMTD:vswprint.obj
 0002:000bbec0       _strcat_s                  00524ec0 f   LIBCMTD:strcat_s.obj
 0002:000bc900       __i64toa_s                 00525900 f   LIBCMTD:xtoas.obj
 0002:000bc960       __itoa_s                   00525960 f   LIBCMTD:xtoas.obj
 0002:000bc9d0       __ltoa_s                   005259d0 f   LIBCMTD:xtoas.obj
 0002:000bca20       __ui64toa_s                00525a20 f   LIBCMTD:xtoas.obj
 0002:000bca50       __ultoa_s                  00525a50 f   LIBCMTD:xtoas.obj
 0002:000bcf60       __mbstowcs_l               00525f60 f   LIBCMTD:mbstowcs.obj
 0002:000bcf90       __mbstowcs_l_helper        00525f90 f   LIBCMTD:mbstowcs.obj
 0002:000bd400       __mbstowcs_s_l             00526400 f   LIBCMTD:mbstowcs.obj
 0002:000bd8a0       _mbstowcs                  005268a0 f   LIBCMTD:mbstowcs.obj
 0002:000bd900       _mbstowcs_s                00526900 f   LIBCMTD:mbstowcs.obj
 0002:000bd9a0       __wcstombs_l               005269a0 f   LIBCMTD:wcstombs.obj
 0002:000bd9d0       __wcstombs_l_helper        005269d0 f   LIBCMTD:wcstombs.obj
 0002:000be020       __wcstombs_s_l             00527020 f   LIBCMTD:wcstombs.obj
 0002:000be460       _wcstombs                  00527460 f   LIBCMTD:wcstombs.obj
 0002:000be490       _wcstombs_s                00527490 f   LIBCMTD:wcstombs.obj
 0002:000be4c0       __fltin2                   005274c0 f   LIBCMTD:cfin.obj
 0002:000be5d0       __CopyMan                  005275d0 f i LIBCMTD:intrncvt.obj
 0002:000be630       __FillZeroMan              00527630 f i LIBCMTD:intrncvt.obj
 0002:000be670       __IncMan                   00527670 f i LIBCMTD:intrncvt.obj
 0002:000be750       __IsZeroMan                00527750 f i LIBCMTD:intrncvt.obj
 0002:000be7a0       __RoundMan                 005277a0 f i LIBCMTD:intrncvt.obj
 0002:000be8b0       __ShrMan                   005278b0 f i LIBCMTD:intrncvt.obj
 0002:000be9e0       __ZeroTail                 005279e0 f i LIBCMTD:intrncvt.obj
 0002:000bea90       ___addl                    00527a90 f i LIBCMTD:intrncvt.obj
 0002:000beae0       __ld12cvt                  00527ae0 f i LIBCMTD:intrncvt.obj
 0002:000bee50       __ld12tod                  00527e50 f   LIBCMTD:intrncvt.obj
 0002:000bee70       __ld12tof                  00527e70 f   LIBCMTD:intrncvt.obj
 0002:000bee90       __ld12told                 00527e90 f   LIBCMTD:intrncvt.obj
 0002:000befd0       ___STRINGTOLD_L            00527fd0 f   LIBCMTD:strgtold.obj
 0002:000bf060       ___ld12mul                 00528060 f i LIBCMTD:strgtold.obj
 0002:000bf570       ___multtenpow12            00528570 f i LIBCMTD:strgtold.obj
 0002:000bf680       ___shl_12                  00528680 f i LIBCMTD:strgtold.obj
 0002:000bf720       ___shr_12                  00528720 f i LIBCMTD:strgtold.obj
 0002:000bf7c0       ___strgtold12_l            005287c0 f   LIBCMTD:strgtold.obj
 0002:000c0560       ??3@YAXPAX@Z               00529560 f   LIBCMTD:dbgdel.obj
 0002:000c0690       ?_ValidateExecute@@YAHP6GHXZ@Z 00529690 f   LIBCMTD:validate.obj
 0002:000c06c0       ?_ValidateRead@@YAHPBXI@Z  005296c0 f   LIBCMTD:validate.obj
 0002:000c06f0       ?_ValidateWrite@@YAHPAXI@Z 005296f0 f   LIBCMTD:validate.obj
 0002:000c0720       ??0type_info@@AAE@ABV0@@Z  00529720 f   LIBCMTD:typinfo.obj
 0002:000c0740       ??1type_info@@UAE@XZ       00529740 f   LIBCMTD:typinfo.obj
 0002:000c0770       ??4type_info@@AAEAAV0@ABV0@@Z 00529770 f   LIBCMTD:typinfo.obj
 0002:000c0790       ??8type_info@@QBE_NABV0@@Z 00529790 f   LIBCMTD:typinfo.obj
 0002:000c07e0       ??9type_info@@QBE_NABV0@@Z 005297e0 f   LIBCMTD:typinfo.obj
 0002:000c0830       ??_Etype_info@@UAEPAXI@Z   00529830 f i LIBCMTD:typinfo.obj
 0002:000c0830       ??_Gtype_info@@UAEPAXI@Z   00529830 f i LIBCMTD:typinfo.obj
 0002:000c0870       ?_name_internal_method@type_info@@QBEPBDPAU__type_info_node@@@Z 00529870 f   LIBCMTD:typinfo.obj
 0002:000c08a0       ?_type_info_dtor_internal_method@type_info@@QAEXXZ 005298a0 f   LIBCMTD:typinfo.obj
 0002:000c08c0       ?before@type_info@@QBE_NABV1@@Z 005298c0 f   LIBCMTD:typinfo.obj
 0002:000c0910       ?name@type_info@@QBEPBDPAU__type_info_node@@@Z 00529910 f   LIBCMTD:typinfo.obj
 0002:000c0940       ?raw_name@type_info@@QBEPBDXZ 00529940 f   LIBCMTD:typinfo.obj
 0002:000c0960       ??0__non_rtti_object@std@@QAE@ABV01@@Z 00529960 f   LIBCMTD:stdexcpt.obj
 0002:000c0990       ??0__non_rtti_object@std@@QAE@PBD@Z 00529990 f   LIBCMTD:stdexcpt.obj
 0002:000c09c0       ??0bad_cast@std@@QAE@ABV01@@Z 005299c0 f   LIBCMTD:stdexcpt.obj
 0002:000c09f0       ??0bad_cast@std@@QAE@PBD@Z 005299f0 f   LIBCMTD:stdexcpt.obj
 0002:000c0a20       ??0bad_typeid@std@@QAE@ABV01@@Z 00529a20 f   LIBCMTD:stdexcpt.obj
 0002:000c0a50       ??0bad_typeid@std@@QAE@PBD@Z 00529a50 f   LIBCMTD:stdexcpt.obj
 0002:000c0a80       ??0exception@std@@QAE@ABQBD@Z 00529a80 f   LIBCMTD:stdexcpt.obj
 0002:000c0ad0       ??0exception@std@@QAE@ABQBDH@Z 00529ad0 f   LIBCMTD:stdexcpt.obj
 0002:000c0b10       ??0exception@std@@QAE@ABV01@@Z 00529b10 f   LIBCMTD:stdexcpt.obj
 0002:000c0b60       ??0exception@std@@QAE@XZ   00529b60 f   LIBCMTD:stdexcpt.obj
 0002:000c0ba0       ??1__non_rtti_object@std@@UAE@XZ 00529ba0 f   LIBCMTD:stdexcpt.obj
 0002:000c0bd0       ??1bad_cast@std@@UAE@XZ    00529bd0 f   LIBCMTD:stdexcpt.obj
 0002:000c0c00       ??1bad_typeid@std@@UAE@XZ  00529c00 f   LIBCMTD:stdexcpt.obj
 0002:000c0c30       ??1exception@std@@UAE@XZ   00529c30 f   LIBCMTD:stdexcpt.obj
 0002:000c0c60       ??4exception@std@@QAEAAV01@ABV01@@Z 00529c60 f   LIBCMTD:stdexcpt.obj
 0002:000c0cc0       ??_E__non_rtti_object@std@@UAEPAXI@Z 00529cc0 f i LIBCMTD:stdexcpt.obj
 0002:000c0cc0       ??_G__non_rtti_object@std@@UAEPAXI@Z 00529cc0 f i LIBCMTD:stdexcpt.obj
 0002:000c0d00       ??_Ebad_cast@std@@UAEPAXI@Z 00529d00 f i LIBCMTD:stdexcpt.obj
 0002:000c0d00       ??_Gbad_cast@std@@UAEPAXI@Z 00529d00 f i LIBCMTD:stdexcpt.obj
 0002:000c0d40       ??_Gbad_typeid@std@@UAEPAXI@Z 00529d40 f i LIBCMTD:stdexcpt.obj
 0002:000c0d40       ??_Ebad_typeid@std@@UAEPAXI@Z 00529d40 f i LIBCMTD:stdexcpt.obj
 0002:000c0d80       ??_Eexception@std@@UAEPAXI@Z 00529d80 f i LIBCMTD:stdexcpt.obj
 0002:000c0d80       ??_Gexception@std@@UAEPAXI@Z 00529d80 f i LIBCMTD:stdexcpt.obj
 0002:000c0dc0       ?_Copy_str@exception@std@@AAEXPBD@Z 00529dc0 f   LIBCMTD:stdexcpt.obj
 0002:000c0e40       ?_Tidy@exception@std@@AAEXXZ 00529e40 f   LIBCMTD:stdexcpt.obj
 0002:000c0e90       ?what@exception@std@@UBEPBDXZ 00529e90 f   LIBCMTD:stdexcpt.obj
 0002:000c0ed0       __CxxThrowException@8      00529ed0 f   LIBCMTD:throw.obj
 0002:000c0fa0       __wtoi                     00529fa0 f   LIBCMTD:wtox.obj
 0002:000c0fc0       __wtoi64                   00529fc0 f   LIBCMTD:wtox.obj
 0002:000c0fe0       __wtoi64_l                 00529fe0 f   LIBCMTD:wtox.obj
 0002:000c1000       __wtoi_l                   0052a000 f   LIBCMTD:wtox.obj
 0002:000c1020       __wtol                     0052a020 f   LIBCMTD:wtox.obj
 0002:000c1040       __wtol_l                   0052a040 f   LIBCMTD:wtox.obj
 0002:000c1060       __wtoll                    0052a060 f   LIBCMTD:wtox.obj
 0002:000c1080       __wtoll_l                  0052a080 f   LIBCMTD:wtox.obj
 0002:000c10a0       _wcschr                    0052a0a0 f   LIBCMTD:wcschr.obj
 0002:000c1280       __wcsicmp                  0052a280 f   LIBCMTD:wcsicmp.obj
 0002:000c14c0       __wcsicmp_l                0052a4c0 f   LIBCMTD:wcsicmp.obj
 0002:000c17c0       __wcsnicmp                 0052a7c0 f   LIBCMTD:wcsnicmp.obj
 0002:000c1a20       __wcsnicmp_l               0052aa20 f   LIBCMTD:wcsnicmp.obj
 0002:000c1d20       __fputwc_nolock            0052ad20 f   LIBCMTD:fputwc.obj
 0002:000c20d0       _fputwc                    0052b0d0 f   LIBCMTD:fputwc.obj
 0002:000c2220       _putwc                     0052b220 f   LIBCMTD:fputwc.obj
 0002:000c26f0       __wcstol_l                 0052b6f0 f   LIBCMTD:wcstol.obj
 0002:000c2720       __wcstoul_l                0052b720 f   LIBCMTD:wcstol.obj
 0002:000c2750       _wcstol                    0052b750 f   LIBCMTD:wcstol.obj
 0002:000c2780       _wcstoul                   0052b780 f   LIBCMTD:wcstol.obj
 0002:000c27b0       _$I10_OUTPUT               0052b7b0 f   LIBCMTD:x10fout.obj
 0002:000c2f40       ___add_12                  0052bf40 f i LIBCMTD:x10fout.obj
 0002:000c32a0       ___control87_2             0052c2a0 f   LIBCMTD:ieee87.obj
 0002:000c3850       __clearfp                  0052c850 f   LIBCMTD:ieee87.obj
 0002:000c38a0       __control87                0052c8a0 f i LIBCMTD:ieee87.obj
 0002:000c3980       __controlfp                0052c980 f   LIBCMTD:ieee87.obj
 0002:000c39a0       __fpreset                  0052c9a0 f   LIBCMTD:ieee87.obj
 0002:000c3bd0       __set_controlfp            0052cbd0 f   LIBCMTD:ieee87.obj
 0002:000c3c80       __statusfp                 0052cc80 f   LIBCMTD:ieee87.obj
 0002:000c3cd0       __statusfp2                0052ccd0 f   LIBCMTD:ieee87.obj
 0002:000c3d20       ___termconout              0052cd20 f   LIBCMTD:initcon.obj
 0002:000c3d50       ___initconout              0052cd50 f   LIBCMTD:initcon.obj
 0002:000c3d80       ___mtold12                 0052cd80 f   LIBCMTD:mantold.obj
 0002:000c3f30       ?_Name_base@type_info@@CAPBDPBV1@PAU__type_info_node@@@Z 0052cf30 f   LIBCMTD:typname.obj
 0002:000c4140       ?_Name_base_internal@type_info@@CAPBDPBV1@PAU__type_info_node@@@Z 0052d140 f   LIBCMTD:typname.obj
 0002:000c4370       ?_Type_info_dtor@type_info@@CAXPAV1@@Z 0052d370 f   LIBCMTD:typname.obj
 0002:000c44c0       ?_Type_info_dtor_internal@type_info@@CAXPAV1@@Z 0052d4c0 f   LIBCMTD:typname.obj
 0002:000c4620       ___clean_type_info_names_internal 0052d620 f   LIBCMTD:typname.obj
 0002:000c4700       ___unDNameHelper           0052d700 f   LIBCMTD:typname.obj
 0002:000c4df0       __wcstof_l                 0052ddf0 f   LIBCMTD:wcstoq.obj
 0002:000c4f40       __wcstoi64                 0052df40 f   LIBCMTD:wcstoq.obj
 0002:000c4fa0       __wcstoi64_l               0052dfa0 f   LIBCMTD:wcstoq.obj
 0002:000c4fd0       __wcstoimax_l              0052dfd0 f   LIBCMTD:wcstoq.obj
 0002:000c5000       __wcstold_l                0052e000 f   LIBCMTD:wcstoq.obj
 0002:000c5020       __wcstoll_l                0052e020 f   LIBCMTD:wcstoq.obj
 0002:000c5050       __wcstoui64                0052e050 f   LIBCMTD:wcstoq.obj
 0002:000c50b0       __wcstoui64_l              0052e0b0 f   LIBCMTD:wcstoq.obj
 0002:000c50e0       __wcstoull_l               0052e0e0 f   LIBCMTD:wcstoq.obj
 0002:000c5110       __wcstoumax_l              0052e110 f   LIBCMTD:wcstoq.obj
 0002:000c5140       _wcstof                    0052e140 f   LIBCMTD:wcstoq.obj
 0002:000c5160       _wcstoimax                 0052e160 f   LIBCMTD:wcstoq.obj
 0002:000c5180       _wcstold                   0052e180 f   LIBCMTD:wcstoq.obj
 0002:000c51a0       _wcstoll                   0052e1a0 f   LIBCMTD:wcstoq.obj
 0002:000c51c0       _wcstoull                  0052e1c0 f   LIBCMTD:wcstoq.obj
 0002:000c51e0       _wcstoumax                 0052e1e0 f   LIBCMTD:wcstoq.obj
 0002:000c5200       __towlower_l               0052e200 f   LIBCMTD:towlower.obj
 0002:000c53a0       _towlower                  0052e3a0 f   LIBCMTD:towlower.obj
 0002:000c53c0       __flswbuf                  0052e3c0 f   LIBCMTD:_flswbuf.obj
 0002:000c5770       __wchartodigit             0052e770 f   LIBCMTD:wchtodig.obj
 0002:000c5b60       ??0Block@_HeapManager@@QAE@XZ 0052eb60 f i LIBCMTD:undname.obj
 0002:000c5b80       ??0DName@@QAE@AAPBDD@Z     0052eb80 f   LIBCMTD:undname.obj
 0002:000c5ef0       ??0DName@@QAE@ABV0@@Z      0052eef0 f i LIBCMTD:undname.obj
 0002:000c5f20       ??0DName@@QAE@D@Z          0052ef20 f   LIBCMTD:undname.obj
 0002:000c6030       ??0DName@@QAE@PAV0@@Z      0052f030 f   LIBCMTD:undname.obj
 0002:000c61b0       ??0DName@@QAE@PBD@Z        0052f1b0 f   LIBCMTD:undname.obj
 0002:000c62e0       ??0DName@@QAE@W4DNameStatus@@@Z 0052f2e0 f   LIBCMTD:undname.obj
 0002:000c6440       ??0DName@@QAE@XZ           0052f440 f i LIBCMTD:undname.obj
 0002:000c6530       ??0DName@@QAE@_J@Z         0052f530 f   LIBCMTD:undname.obj
 0002:000c6710       ??0DName@@QAE@_K@Z         0052f710 f   LIBCMTD:undname.obj
 0002:000c68a0       ??0DNameNode@@IAE@XZ       0052f8a0 f   LIBCMTD:undname.obj
 0002:000c68c0       ??0DNameStatusNode@@AAE@W4DNameStatus@@@Z 0052f8c0 f   LIBCMTD:undname.obj
 0002:000c6930       ??0Replicator@@QAE@XZ      0052f930 f i LIBCMTD:undname.obj
 0002:000c6950       ??0UnDecorator@@QAE@PADPBDHP6APADJ@ZK@Z 0052f950 f i LIBCMTD:undname.obj
 0002:000c6a10       ??0charNode@@QAE@D@Z       0052fa10 f   LIBCMTD:undname.obj
 0002:000c6a50       ??0pDNameNode@@QAE@PAVDName@@@Z 0052fa50 f   LIBCMTD:undname.obj
 0002:000c6ad0       ??0pairNode@@QAE@PAVDNameNode@@0@Z 0052fad0 f   LIBCMTD:undname.obj
 0002:000c6b20       ??0pcharNode@@QAE@PBDH@Z   0052fb20 f   LIBCMTD:undname.obj
 0002:000c6be0       ??2@YAPAXIAAV_HeapManager@@H@Z 0052fbe0 f i LIBCMTD:undname.obj
 0002:000c6c00       ??4DName@@QAEAAV0@ABV0@@Z  0052fc00 f   LIBCMTD:undname.obj
 0002:000c6c30       ??4DName@@QAEAAV0@D@Z      0052fc30 f i LIBCMTD:undname.obj
 0002:000c6d40       ??4DName@@QAEAAV0@PAV0@@Z  0052fd40 f   LIBCMTD:undname.obj
 0002:000c6ec0       ??4DName@@QAEAAV0@PBD@Z    0052fec0 f   LIBCMTD:undname.obj
 0002:000c6fd0       ??4DName@@QAEAAV0@W4DNameStatus@@@Z 0052ffd0 f   LIBCMTD:undname.obj
 0002:000c7110       ??AReplicator@@QBE?AVDName@@H@Z 00530110 f   LIBCMTD:undname.obj
 0002:000c7190       ??BUnDecorator@@QAEPADXZ   00530190 f i LIBCMTD:undname.obj
 0002:000c74e0       ??H@YA?AVDName@@DABV0@@Z   005304e0 f i LIBCMTD:undname.obj
 0002:000c7520       ??H@YA?AVDName@@PBDABV0@@Z 00530520 f i LIBCMTD:undname.obj
 0002:000c7560       ??H@YA?AVDName@@W4DNameStatus@@ABV0@@Z 00530560 f i LIBCMTD:undname.obj
 0002:000c75a0       ??HDName@@QBE?AV0@ABV0@@Z  005305a0 f   LIBCMTD:undname.obj
 0002:000c75f0       ??HDName@@QBE?AV0@D@Z      005305f0 f   LIBCMTD:undname.obj
 0002:000c7640       ??HDName@@QBE?AV0@PAV0@@Z  00530640 f   LIBCMTD:undname.obj
 0002:000c7690       ??HDName@@QBE?AV0@PBD@Z    00530690 f   LIBCMTD:undname.obj
 0002:000c76e0       ??HDName@@QBE?AV0@W4DNameStatus@@@Z 005306e0 f   LIBCMTD:undname.obj
 0002:000c7730       ??YDName@@QAEAAV0@ABV0@@Z  00530730 f   LIBCMTD:undname.obj
 0002:000c77b0       ??YDName@@QAEAAV0@D@Z      005307b0 f   LIBCMTD:undname.obj
 0002:000c7850       ??YDName@@QAEAAV0@PAV0@@Z  00530850 f   LIBCMTD:undname.obj
 0002:000c7930       ??YDName@@QAEAAV0@PBD@Z    00530930 f   LIBCMTD:undname.obj
 0002:000c79f0       ??YDName@@QAEAAV0@W4DNameStatus@@@Z 005309f0 f   LIBCMTD:undname.obj
 0002:000c7a70       ??YReplicator@@QAEAAV0@ABVDName@@@Z 00530a70 f   LIBCMTD:undname.obj
 0002:000c7b20       ??_5DName@@QAEAAV0@ABV0@@Z 00530b20 f   LIBCMTD:undname.obj
 0002:000c7b90       ?Constructor@_HeapManager@@QAEXP6APAXI@ZP6AXPAX@Z@Z 00530b90 f i LIBCMTD:undname.obj
 0002:000c7be0       ?Destructor@_HeapManager@@QAEXXZ 00530be0 f i LIBCMTD:undname.obj
 0002:000c7c40       ?UScore@UnDecorator@@SAPBDW4Tokens@@@Z 00530c40 f   LIBCMTD:undname.obj
 0002:000c7c80       ?append@DName@@AAEXPAVDNameNode@@@Z 00530c80 f   LIBCMTD:undname.obj
 0002:000c7d30       ?composeDeclaration@UnDecorator@@CA?AVDName@@ABV2@@Z 00530d30 f i LIBCMTD:undname.obj
 0002:000ca0d0       ?dbGetString@DName@@QBEPADXZ 005330d0 f   LIBCMTD:undname.obj
 0002:000ca100       ?doAccessSpecifiers@UnDecorator@@SAHXZ 00533100 f i LIBCMTD:undname.obj
 0002:000ca130       ?doAllocationLanguage@UnDecorator@@SAHXZ 00533130 f i LIBCMTD:undname.obj
 0002:000ca160       ?doAllocationModel@UnDecorator@@SAHXZ 00533160 f i LIBCMTD:undname.obj
 0002:000ca190       ?doEcsu@UnDecorator@@SAHXZ 00533190 f i LIBCMTD:undname.obj
 0002:000ca1c0       ?doEllipsis@UnDecorator@@SAHXZ 005331c0 f i LIBCMTD:undname.obj
 0002:000ca1f0       ?doFunctionReturns@UnDecorator@@SAHXZ 005331f0 f i LIBCMTD:undname.obj
 0002:000ca220       ?doMSKeywords@UnDecorator@@SAHXZ 00533220 f i LIBCMTD:undname.obj
 0002:000ca250       ?doMemberTypes@UnDecorator@@SAHXZ 00533250 f i LIBCMTD:undname.obj
 0002:000ca280       ?doNameOnly@UnDecorator@@SAHXZ 00533280 f i LIBCMTD:undname.obj
 0002:000ca2a0       ?doNoIdentCharCheck@UnDecorator@@SAHXZ 005332a0 f i LIBCMTD:undname.obj
 0002:000ca2c0       ?doPchar@DName@@AAEXPBDH@Z 005332c0 f   LIBCMTD:undname.obj
 0002:000ca450       ?doPtr64@UnDecorator@@SAHXZ 00533450 f i LIBCMTD:undname.obj
 0002:000ca480       ?doRestrictionSpec@UnDecorator@@SAHXZ 00533480 f i LIBCMTD:undname.obj
 0002:000ca4b0       ?doThisTypes@UnDecorator@@SAHXZ 005334b0 f i LIBCMTD:undname.obj
 0002:000ca4f0       ?doThrowTypes@UnDecorator@@SAHXZ 005334f0 f i LIBCMTD:undname.obj
 0002:000ca520       ?doTypeOnly@UnDecorator@@SAHXZ 00533520 f i LIBCMTD:undname.obj
 0002:000ca540       ?doUnderScore@UnDecorator@@SAHXZ 00533540 f i LIBCMTD:undname.obj
 0002:000ca570       ?getArgumentList@UnDecorator@@CA?AVDName@@XZ 00533570 f   LIBCMTD:undname.obj
 0002:000ca710       ?getArgumentTypes@UnDecorator@@CA?AVDName@@XZ 00533710 f   LIBCMTD:undname.obj
 0002:000ca8c0       ?getArrayType@UnDecorator@@CA?AVDName@@ABV2@@Z 005338c0 f i LIBCMTD:undname.obj
 0002:000cab80       ?getBasedType@UnDecorator@@CA?AVDName@@XZ 00533b80 f   LIBCMTD:undname.obj
 0002:000cac70       ?getBasicDataType@UnDecorator@@CA?AVDName@@ABV2@@Z 00533c70 f   LIBCMTD:undname.obj
 0002:000cb3a0       ?getCallIndex@UnDecorator@@CA?AVDName@@XZ 005343a0 f i LIBCMTD:undname.obj
 0002:000cb3c0       ?getCallingConvention@UnDecorator@@CA?AVDName@@XZ 005343c0 f   LIBCMTD:undname.obj
 0002:000cb5b0       ?getDataIndirectType@UnDecorator@@CA?AVDName@@ABV2@PBD0H@Z 005345b0 f   LIBCMTD:undname.obj
 0002:000cbe90       ?getDataIndirectType@UnDecorator@@CA?AVDName@@XZ 00534e90 f i LIBCMTD:undname.obj
 0002:000cbee0       ?getDataType@UnDecorator@@CA?AVDName@@PAV2@@Z 00534ee0 f   LIBCMTD:undname.obj
 0002:000cc040       ?getDecoratedName@UnDecorator@@CA?AVDName@@XZ 00535040 f   LIBCMTD:undname.obj
 0002:000cc430       ?getDimension@UnDecorator@@CA?AVDName@@_N@Z 00535430 f   LIBCMTD:undname.obj
 0002:000cc790       ?getDispatchTarget@UnDecorator@@CA?AVDName@@XZ 00535790 f   LIBCMTD:undname.obj
 0002:000cc850       ?getDisplacement@UnDecorator@@CA?AVDName@@XZ 00535850 f i LIBCMTD:undname.obj
 0002:000cc870       ?getECSUDataType@UnDecorator@@CA?AVDName@@XZ 00535870 f   LIBCMTD:undname.obj
 0002:000ccab0       ?getECSUName@UnDecorator@@CA?AVDName@@XZ 00535ab0 f i LIBCMTD:undname.obj
 0002:000ccad0       ?getEnumType@UnDecorator@@CA?AVDName@@XZ 00535ad0 f i LIBCMTD:undname.obj
 0002:000ccc70       ?getExtendedDataIndirectType@UnDecorator@@CA?AVDName@@AAPBDAA_NH@Z 00535c70 f   LIBCMTD:undname.obj
 0002:000ccf50       ?getExternalDataType@UnDecorator@@CA?AVDName@@ABV2@@Z 00535f50 f i LIBCMTD:undname.obj
 0002:000cd010       ?getFunctionIndirectType@UnDecorator@@CA?AVDName@@ABV2@@Z 00536010 f   LIBCMTD:undname.obj
 0002:000cd590       ?getGuardNumber@UnDecorator@@CA?AVDName@@XZ 00536590 f i LIBCMTD:undname.obj
 0002:000cd5b0       ?getLastChar@DName@@QBEDXZ 005365b0 f i LIBCMTD:undname.obj
 0002:000cd5f0       ?getLastChar@DNameStatusNode@@UBEDXZ 005365f0 f i LIBCMTD:undname.obj
 0002:000cd630       ?getLastChar@charNode@@UBEDXZ 00536630 f i LIBCMTD:undname.obj
 0002:000cd650       ?getLastChar@pDNameNode@@UBEDXZ 00536650 f i LIBCMTD:undname.obj
 0002:000cd690       ?getLastChar@pairNode@@UBEDXZ 00536690 f i LIBCMTD:undname.obj
 0002:000cd6f0       ?getLastChar@pcharNode@@UBEDXZ 005366f0 f i LIBCMTD:undname.obj
 0002:000cd730       ?getLexicalFrame@UnDecorator@@CA?AVDName@@XZ 00536730 f i LIBCMTD:undname.obj
 0002:000cd780       ?getMemory@_HeapManager@@QAEPAXIH@Z 00536780 f   LIBCMTD:undname.obj
 0002:000cd8d0       ?getNumberOfDimensions@UnDecorator@@CAHXZ 005368d0 f   LIBCMTD:undname.obj
 0002:000cda10       ?getOperatorName@UnDecorator@@CA?AVDName@@_NPA_N@Z 00536a10 f i LIBCMTD:undname.obj
 0002:000ce600       ?getPointerType@UnDecorator@@CA?AVDName@@ABV2@0@Z 00537600 f i LIBCMTD:undname.obj
 0002:000ce640       ?getPointerTypeArray@UnDecorator@@CA?AVDName@@ABV2@0@Z 00537640 f i LIBCMTD:undname.obj
 0002:000ce680       ?getPrimaryDataType@UnDecorator@@CA?AVDName@@ABV2@@Z 00537680 f   LIBCMTD:undname.obj
 0002:000ceb00       ?getPtrRefDataType@UnDecorator@@CA?AVDName@@ABV2@H@Z 00537b00 f i LIBCMTD:undname.obj
 0002:000cec90       ?getPtrRefType@UnDecorator@@CA?AVDName@@ABV2@0PBD@Z 00537c90 f   LIBCMTD:undname.obj
 0002:000cee60       ?getReferenceType@UnDecorator@@CA?AVDName@@ABV2@0PBD@Z 00537e60 f i LIBCMTD:undname.obj
 0002:000cee90       ?getRestrictionSpec@UnDecorator@@CA?AVDName@@XZ 00537e90 f   LIBCMTD:undname.obj
 0002:000cf030       ?getReturnType@UnDecorator@@CA?AVDName@@PAV2@@Z 00538030 f   LIBCMTD:undname.obj
 0002:000cf090       ?getScope@UnDecorator@@CA?AVDName@@XZ 00538090 f   LIBCMTD:undname.obj
 0002:000cf6c0       ?getScopedName@UnDecorator@@CA?AVDName@@XZ 005386c0 f   LIBCMTD:undname.obj
 0002:000cf820       ?getSignedDimension@UnDecorator@@CA?AVDName@@XZ 00538820 f   LIBCMTD:undname.obj
 0002:000cf8c0       ?getStorageConvention@UnDecorator@@CA?AVDName@@XZ 005388c0 f i LIBCMTD:undname.obj
 0002:000cf8e0       ?getString@DName@@QBEPADPAD0@Z 005388e0 f i LIBCMTD:undname.obj
 0002:000cf930       ?getString@DName@@QBEPADPADH@Z 00538930 f i LIBCMTD:undname.obj
 0002:000cf9e0       ?getString@DNameStatusNode@@UBEPADPAD0@Z 005389e0 f i LIBCMTD:undname.obj
 0002:000cfa20       ?getString@charNode@@UBEPADPAD0@Z 00538a20 f i LIBCMTD:undname.obj
 0002:000cfa60       ?getString@pDNameNode@@UBEPADPAD0@Z 00538a60 f i LIBCMTD:undname.obj
 0002:000cfab0       ?getString@pairNode@@UBEPADPAD0@Z 00538ab0 f i LIBCMTD:undname.obj
 0002:000cfb20       ?getString@pcharNode@@UBEPADPAD0@Z 00538b20 f i LIBCMTD:undname.obj
 0002:000cfb60       ?getStringEncoding@UnDecorator@@CA?AVDName@@PADH@Z 00538b60 f   LIBCMTD:undname.obj
 0002:000cfcb0       ?getStringHelper@@YAPADPAD00H@Z 00538cb0 f i LIBCMTD:undname.obj
 0002:000cfd00       ?getSymbolName@UnDecorator@@CA?AVDName@@XZ 00538d00 f i LIBCMTD:undname.obj
 0002:000cfdb0       ?getTemplateArgumentList@UnDecorator@@CA?AVDName@@XZ 00538db0 f   LIBCMTD:undname.obj
 0002:000d0190       ?getTemplateConstant@UnDecorator@@CA?AVDName@@XZ 00539190 f   LIBCMTD:undname.obj
 0002:000d07c0       ?getTemplateName@UnDecorator@@CA?AVDName@@_N@Z 005397c0 f   LIBCMTD:undname.obj
 0002:000d0a00       ?getThisType@UnDecorator@@CA?AVDName@@XZ 00539a00 f i LIBCMTD:undname.obj
 0002:000d0a50       ?getThrowTypes@UnDecorator@@CA?AVDName@@XZ 00539a50 f   LIBCMTD:undname.obj
 0002:000d0b20       ?getTypeEncoding@UnDecorator@@CAHXZ 00539b20 f i LIBCMTD:undname.obj
 0002:000d17f0       ?getVCallThunkType@UnDecorator@@CA?AVDName@@XZ 0053a7f0 f i LIBCMTD:undname.obj
 0002:000d1870       ?getVbTableType@UnDecorator@@CA?AVDName@@ABV2@@Z 0053a870 f i LIBCMTD:undname.obj
 0002:000d1890       ?getVdispMapType@UnDecorator@@CA?AVDName@@ABV2@@Z 0053a890 f i LIBCMTD:undname.obj
 0002:000d1920       ?getVfTableType@UnDecorator@@CA?AVDName@@ABV2@@Z 0053a920 f i LIBCMTD:undname.obj
 0002:000d1b50       ?getZName@UnDecorator@@CA?AVDName@@_N0@Z 0053ab50 f   LIBCMTD:undname.obj
 0002:000d1eb0       ?haveTemplateParameters@UnDecorator@@SAHXZ 0053aeb0 f i LIBCMTD:undname.obj
 0002:000d1ed0       ?isArray@DName@@QBEHXZ     0053aed0 f i LIBCMTD:undname.obj
 0002:000d1ef0       ?isComArray@DName@@QBEHXZ  0053aef0 f i LIBCMTD:undname.obj
 0002:000d1f10       ?isEmpty@DName@@QBEHXZ     0053af10 f i LIBCMTD:undname.obj
 0002:000d1f50       ?isFull@Replicator@@QBEHXZ 0053af50 f i LIBCMTD:undname.obj
 0002:000d1f90       ?isNoTE@DName@@QBEHXZ      0053af90 f i LIBCMTD:undname.obj
 0002:000d1fb0       ?isPinPtr@DName@@QBEHXZ    0053afb0 f i LIBCMTD:undname.obj
 0002:000d1fd0       ?isPtrRef@DName@@QBEHXZ    0053afd0 f i LIBCMTD:undname.obj
 0002:000d1ff0       ?isUDC@DName@@QBEHXZ       0053aff0 f i LIBCMTD:undname.obj
 0002:000d2040       ?isUDTThunk@DName@@QBEHXZ  0053b040 f i LIBCMTD:undname.obj
 0002:000d2090       ?isVCallThunk@DName@@QBEHXZ 0053b090 f i LIBCMTD:undname.obj
 0002:000d20b0       ?isValid@DName@@QBEHXZ     0053b0b0 f i LIBCMTD:undname.obj
 0002:000d20f0       ?length@DName@@QBEHXZ      0053b0f0 f i LIBCMTD:undname.obj
 0002:000d2130       ?length@DNameStatusNode@@UBEHXZ 0053b130 f i LIBCMTD:undname.obj
 0002:000d2150       ?length@charNode@@UBEHXZ   0053b150 f i LIBCMTD:undname.obj
 0002:000d2170       ?length@pDNameNode@@UBEHXZ 0053b170 f i LIBCMTD:undname.obj
 0002:000d21b0       ?length@pairNode@@UBEHXZ   0053b1b0 f i LIBCMTD:undname.obj
 0002:000d2210       ?length@pcharNode@@UBEHXZ  0053b210 f i LIBCMTD:undname.obj
 0002:000d2230       ?make@DNameStatusNode@@SAPAV1@W4DNameStatus@@@Z 0053b230 f i LIBCMTD:undname.obj
 0002:000d2310       ?setIsArray@DName@@QAEXXZ  0053b310 f i LIBCMTD:undname.obj
 0002:000d2340       ?setIsComArray@DName@@QAEXXZ 0053b340 f i LIBCMTD:undname.obj
 0002:000d2370       ?setIsNoTE@DName@@QAEXXZ   0053b370 f i LIBCMTD:undname.obj
 0002:000d23a0       ?setIsPinPtr@DName@@QAEXXZ 0053b3a0 f i LIBCMTD:undname.obj
 0002:000d23d0       ?setIsUDC@DName@@QAEXXZ    0053b3d0 f i LIBCMTD:undname.obj
 0002:000d2410       ?setIsVCallThunk@DName@@QAEXXZ 0053b410 f i LIBCMTD:undname.obj
 0002:000d2440       ?setPtrRef@DName@@QAEAAV1@XZ 0053b440 f i LIBCMTD:undname.obj
 0002:000d2470       ?status@DName@@QBE?AW4DNameStatus@@XZ 0053b470 f i LIBCMTD:undname.obj
 0002:000d2590       ___unDName                 0053b590 f   LIBCMTD:undname.obj
 0002:000d26a0       ___unDNameEx               0053b6a0 f   LIBCMTD:undname.obj
 0002:000d27b0       __wcstod_l                 0053b7b0 f   LIBCMTD:wcstod.obj
 0002:000d29e0       _wcstod                    0053b9e0 f   LIBCMTD:wcstod.obj
 0002:000d2a00       ___crtLCMapStringW         0053ba00 f   LIBCMTD:w_map.obj
 0002:000d2a50       __get_purecall_handler     0053ba50 f   LIBCMTD:purevirt.obj
 0002:000d2a70       __purecall                 0053ba70 f   LIBCMTD:purevirt.obj
 0002:000d2ac0       __set_purecall_handler     0053bac0 f   LIBCMTD:purevirt.obj
 0002:000d2b00       __wfltin2                  0053bb00 f   LIBCMTD:wcfin.obj
 0002:000d2c10       ___WSTRINGTOLD_L           0053bc10 f   LIBCMTD:wstrgtold.obj
 0002:000d2ca0       ___wstrgtold12_l           0053bca0 f   LIBCMTD:wstrgtold.obj
 0002:000d3a54       _GetStdHandle@4            0053ca54 f   kernel32:KERNEL32.dll
 0002:000d3a5a       _CloseHandle@4             0053ca5a f   kernel32:KERNEL32.dll
 0002:000d3a60       _GetLastError@0            0053ca60 f   kernel32:KERNEL32.dll
 0002:000d3a66       _InitializeCriticalSection@4 0053ca66 f   kernel32:KERNEL32.dll
 0002:000d3a6c       _EnterCriticalSection@4    0053ca6c f   kernel32:KERNEL32.dll
 0002:000d3a72       _LeaveCriticalSection@4    0053ca72 f   kernel32:KERNEL32.dll
 0002:000d3a78       _TryEnterCriticalSection@4 0053ca78 f   kernel32:KERNEL32.dll
 0002:000d3a7e       _DeleteCriticalSection@4   0053ca7e f   kernel32:KERNEL32.dll
 0002:000d3a84       _SetEvent@4                0053ca84 f   kernel32:KERNEL32.dll
 0002:000d3a8a       _ResetEvent@4              0053ca8a f   kernel32:KERNEL32.dll
 0002:000d3a90       _ReleaseSemaphore@12       0053ca90 f   kernel32:KERNEL32.dll
 0002:000d3a96       _WaitForSingleObject@8     0053ca96 f   kernel32:KERNEL32.dll
 0002:000d3a9c       _CreateEventA@16           0053ca9c f   kernel32:KERNEL32.dll
 0002:000d3aa2       _Sleep@4                   0053caa2 f   kernel32:KERNEL32.dll
 0002:000d3aa8       _GetCurrentProcessId@0     0053caa8 f   kernel32:KERNEL32.dll
 0002:000d3aae       _CreateThread@24           0053caae f   kernel32:KERNEL32.dll
 0002:000d3ab4       _GetCurrentThread@0        0053cab4 f   kernel32:KERNEL32.dll
 0002:000d3aba       _GetCurrentThreadId@0      0053caba f   kernel32:KERNEL32.dll
 0002:000d3ac0       _SetThreadPriority@8       0053cac0 f   kernel32:KERNEL32.dll
 0002:000d3ac6       _GetThreadPriority@4       0053cac6 f   kernel32:KERNEL32.dll
 0002:000d3acc       _ResumeThread@4            0053cacc f   kernel32:KERNEL32.dll
 0002:000d3ad2       _TlsAlloc@0                0053cad2 f   kernel32:KERNEL32.dll
 0002:000d3ad8       _TlsGetValue@4             0053cad8 f   kernel32:KERNEL32.dll
 0002:000d3ade       _TlsSetValue@8             0053cade f   kernel32:KERNEL32.dll
 0002:000d3ae4       _TlsFree@4                 0053cae4 f   kernel32:KERNEL32.dll
 0002:000d3aea       _PulseEvent@4              0053caea f   kernel32:KERNEL32.dll
 0002:000d3af0       _CreateSemaphoreA@16       0053caf0 f   kernel32:KERNEL32.dll
 0002:000d3af6       _GetConsoleScreenBufferInfo@8 0053caf6 f   kernel32:KERNEL32.dll
 0002:000d3afc       _SetConsoleTextAttribute@8 0053cafc f   kernel32:KERNEL32.dll
 0002:000d3b02       _GetLocalTime@4            0053cb02 f   kernel32:KERNEL32.dll
 0002:000d3b08       _FileTimeToSystemTime@8    0053cb08 f   kernel32:KERNEL32.dll
 0002:000d3b0e       _SystemTimeToFileTime@8    0053cb0e f   kernel32:KERNEL32.dll
 0002:000d3b14       _QueryPerformanceCounter@4 0053cb14 f   kernel32:KERNEL32.dll
 0002:000d3b1a       _QueryPerformanceFrequency@4 0053cb1a f   kernel32:KERNEL32.dll
 0002:000d3b20       _SetLastError@4            0053cb20 f   kernel32:KERNEL32.dll
 0002:000d3b26       _FormatMessageA@28         0053cb26 f   kernel32:KERNEL32.dll
 0002:000d3b2c       _FreeLibrary@4             0053cb2c f   kernel32:KERNEL32.dll
 0002:000d3b32       _GetProcAddress@8          0053cb32 f   kernel32:KERNEL32.dll
 0002:000d3b38       _LoadLibraryA@4            0053cb38 f   kernel32:KERNEL32.dll
 0002:000d3b3e       _GetCommandLineA@0         0053cb3e f   kernel32:KERNEL32.dll
 0002:000d3b44       _GetFileType@4             0053cb44 f   kernel32:KERNEL32.dll
 0002:000d3b4a       _GetModuleFileNameW@12     0053cb4a f   kernel32:KERNEL32.dll
 0002:000d3b50       _GetModuleHandleExW@12     0053cb50 f   kernel32:KERNEL32.dll
 0002:000d3b56       _WriteConsoleW@20          0053cb56 f   kernel32:KERNEL32.dll
 0002:000d3b5c       _IsDebuggerPresent@0       0053cb5c f   kernel32:KERNEL32.dll
 0002:000d3b62       _IsProcessorFeaturePresent@4 0053cb62 f   kernel32:KERNEL32.dll
 0002:000d3b68       _RtlUnwind@16              0053cb68 f   kernel32:KERNEL32.dll
 0002:000d3b6e       _FatalAppExitA@8           0053cb6e f   kernel32:KERNEL32.dll
 0002:000d3b74       _HeapValidate@12           0053cb74 f   kernel32:KERNEL32.dll
 0002:000d3b7a       _GetSystemInfo@4           0053cb7a f   kernel32:KERNEL32.dll
 0002:000d3b80       _EncodePointer@4           0053cb80 f   kernel32:KERNEL32.dll
 0002:000d3b86       _DecodePointer@4           0053cb86 f   kernel32:KERNEL32.dll
 0002:000d3b8c       _ExitProcess@4             0053cb8c f   kernel32:KERNEL32.dll
 0002:000d3b92       _AreFileApisANSI@0         0053cb92 f   kernel32:KERNEL32.dll
 0002:000d3b98       _MultiByteToWideChar@24    0053cb98 f   kernel32:KERNEL32.dll
 0002:000d3b9e       _WideCharToMultiByte@32    0053cb9e f   kernel32:KERNEL32.dll
 0002:000d3ba4       _GetStartupInfoW@4         0053cba4 f   kernel32:KERNEL32.dll
 0002:000d3baa       _IsValidCodePage@4         0053cbaa f   kernel32:KERNEL32.dll
 0002:000d3bb0       _GetACP@0                  0053cbb0 f   kernel32:KERNEL32.dll
 0002:000d3bb6       _GetOEMCP@0                0053cbb6 f   kernel32:KERNEL32.dll
 0002:000d3bbc       _GetCPInfo@8               0053cbbc f   kernel32:KERNEL32.dll
 0002:000d3bc2       _GetProcessHeap@0          0053cbc2 f   kernel32:KERNEL32.dll
 0002:000d3bc8       _GetModuleFileNameA@12     0053cbc8 f   kernel32:KERNEL32.dll
 0002:000d3bce       _WriteFile@20              0053cbce f   kernel32:KERNEL32.dll
 0002:000d3bd4       _GetSystemTimeAsFileTime@4 0053cbd4 f   kernel32:KERNEL32.dll
 0002:000d3bda       _GetEnvironmentStringsW@0  0053cbda f   kernel32:KERNEL32.dll
 0002:000d3be0       _FreeEnvironmentStringsW@4 0053cbe0 f   kernel32:KERNEL32.dll
 0002:000d3be6       _SetConsoleCtrlHandler@8   0053cbe6 f   kernel32:KERNEL32.dll
 0002:000d3bec       _OutputDebugStringW@4      0053cbec f   kernel32:KERNEL32.dll
 0002:000d3bf2       _WaitForSingleObjectEx@12  0053cbf2 f   kernel32:KERNEL32.dll
 0002:000d3bf8       _LoadLibraryExW@12         0053cbf8 f   kernel32:KERNEL32.dll
 0002:000d3bfe       _UnhandledExceptionFilter@4 0053cbfe f   kernel32:KERNEL32.dll
 0002:000d3c04       _SetUnhandledExceptionFilter@4 0053cc04 f   kernel32:KERNEL32.dll
 0002:000d3c0a       _InitializeCriticalSectionAndSpinCount@8 0053cc0a f   kernel32:KERNEL32.dll
 0002:000d3c10       _CreateEventW@16           0053cc10 f   kernel32:KERNEL32.dll
 0002:000d3c16       _GetCurrentProcess@0       0053cc16 f   kernel32:KERNEL32.dll
 0002:000d3c1c       _TerminateProcess@8        0053cc1c f   kernel32:KERNEL32.dll
 0002:000d3c22       _GetTickCount@0            0053cc22 f   kernel32:KERNEL32.dll
 0002:000d3c28       _GetModuleHandleW@4        0053cc28 f   kernel32:KERNEL32.dll
 0002:000d3c2e       _CreateSemaphoreW@16       0053cc2e f   kernel32:KERNEL32.dll
 0002:000d3c34       _RaiseException@16         0053cc34 f   kernel32:KERNEL32.dll
 0002:000d3c3a       _FlushFileBuffers@4        0053cc3a f   kernel32:KERNEL32.dll
 0002:000d3c40       _GetConsoleCP@0            0053cc40 f   kernel32:KERNEL32.dll
 0002:000d3c46       _GetConsoleMode@8          0053cc46 f   kernel32:KERNEL32.dll
 0002:000d3c4c       _HeapFree@12               0053cc4c f   kernel32:KERNEL32.dll
 0002:000d3c52       _HeapReAlloc@16            0053cc52 f   kernel32:KERNEL32.dll
 0002:000d3c58       _HeapSize@12               0053cc58 f   kernel32:KERNEL32.dll
 0002:000d3c5e       _HeapQueryInformation@20   0053cc5e f   kernel32:KERNEL32.dll
 0002:000d3c64       _HeapAlloc@12              0053cc64 f   kernel32:KERNEL32.dll
 0002:000d3c6a       _ReadFile@20               0053cc6a f   kernel32:KERNEL32.dll
 0002:000d3c70       _ReadConsoleW@20           0053cc70 f   kernel32:KERNEL32.dll
 0002:000d3c76       _OutputDebugStringA@4      0053cc76 f   kernel32:KERNEL32.dll
 0002:000d3c7c       _SetFilePointerEx@20       0053cc7c f   kernel32:KERNEL32.dll
 0002:000d3c82       _GetStringTypeW@16         0053cc82 f   kernel32:KERNEL32.dll
 0002:000d3c88       _GetLocaleInfoW@16         0053cc88 f   kernel32:KERNEL32.dll
 0002:000d3c8e       _IsValidLocale@8           0053cc8e f   kernel32:KERNEL32.dll
 0002:000d3c94       _GetUserDefaultLCID@0      0053cc94 f   kernel32:KERNEL32.dll
 0002:000d3c9a       _EnumSystemLocalesW@8      0053cc9a f   kernel32:KERNEL32.dll
 0002:000d3ca0       _GetDateFormatW@24         0053cca0 f   kernel32:KERNEL32.dll
 0002:000d3ca6       _GetTimeFormatW@24         0053cca6 f   kernel32:KERNEL32.dll
 0002:000d3cac       _CompareStringW@24         0053ccac f   kernel32:KERNEL32.dll
 0002:000d3cb2       _LCMapStringW@24           0053ccb2 f   kernel32:KERNEL32.dll
 0002:000d3cb8       _SetStdHandle@8            0053ccb8 f   kernel32:KERNEL32.dll
 0002:000d3cbe       _CreateFileW@28            0053ccbe f   kernel32:KERNEL32.dll
 0003:00000000       ___xc_a                    0053f000     LIBCMTD:crt0init.obj
 0003:00000104       ___xc_z                    0053f104     LIBCMTD:crt0init.obj
 0003:00000208       ___xi_a                    0053f208     LIBCMTD:crt0init.obj
 0003:00000524       ___xi_z                    0053f524     LIBCMTD:crt0init.obj
 0003:00000628       ___xp_a                    0053f628     LIBCMTD:crt0init.obj
 0003:0000093c       ___xp_z                    0053f93c     LIBCMTD:crt0init.obj
 0003:00000a40       ___xt_a                    0053fa40     LIBCMTD:crt0init.obj
 0003:00000b44       ___xt_z                    0053fb44     LIBCMTD:crt0init.obj
 0003:00000c88       ??_C@_0L@BLDGPIGK@mod?9invite?$AA@ 0053fc88     pjsip-ua-i386-win32-vc8-debug:sip_inv.obj
 0003:00000c98       ??_C@_04HIBGFPH@NULL?$AA@  0053fc98     pjsip-ua-i386-win32-vc8-debug:sip_inv.obj
 0003:00000ca0       ??_C@_07BJAKIKLF@CALLING?$AA@ 0053fca0     pjsip-ua-i386-win32-vc8-debug:sip_inv.obj
 0003:00000cac       ??_C@_08FPHOKLMI@INCOMING?$AA@ 0053fcac     pjsip-ua-i386-win32-vc8-debug:sip_inv.obj
 0003:00000cb8       ??_C@_05HMGOBOK@EARLY?$AA@ 0053fcb8     pjsip-ua-i386-win32-vc8-debug:sip_inv.obj
 0003:00000cc0       ??_C@_0L@OPGIEADC@CONNECTING?$AA@ 0053fcc0     pjsip-ua-i386-win32-vc8-debug:sip_inv.obj
 0003:00000cd0       ??_C@_09JCKBPFKF@CONFIRMED?$AA@ 0053fcd0     pjsip-ua-i386-win32-vc8-debug:sip_inv.obj
 0003:00000cdc       ??_C@_0L@GKFIMDLD@DISCONNCTD?$AA@ 0053fcdc     pjsip-ua-i386-win32-vc8-debug:sip_inv.obj
 0003:00000cec       ??_C@_0L@ONMJOFAN@TERMINATED?$AA@ 0053fcec     pjsip-ua-i386-win32-vc8-debug:sip_inv.obj
 0003:00000d0c       ??_C@_06HHJABCJL@UPDATE?$AA@ 0053fd0c     pjsip-ua-i386-win32-vc8-debug:sip_inv.obj
 0003:00000d14       ??_C@_06DBKGGLMH@INVITE?$AA@ 0053fd14     pjsip-ua-i386-win32-vc8-debug:sip_inv.obj
 0003:00000d1c       ??_C@_03JMECLKOM@ACK?$AA@  0053fd1c     pjsip-ua-i386-win32-vc8-debug:sip_inv.obj
 0003:00000d20       ??_C@_03BMFBOCK@BYE?$AA@   0053fd20     pjsip-ua-i386-win32-vc8-debug:sip_inv.obj
 0003:00000d24       ??_C@_06JHILMIHF@CANCEL?$AA@ 0053fd24     pjsip-ua-i386-win32-vc8-debug:sip_inv.obj
 0003:00000d2c       ??_C@_0BA@MJOOLNNM@application?1sdp?$AA@ 0053fd2c     pjsip-ua-i386-win32-vc8-debug:sip_inv.obj
 0003:00000d40       ??_C@_0DA@CNKPLCJK@SDP?5offer?1answer?5incomplete?0?5end@ 0053fd40     pjsip-ua-i386-win32-vc8-debug:sip_inv.obj
 0003:00000d80       ??_C@_1LM@IDFDMFAG@?$AAc?$AA?3?$AA?2?$AAu?$AAs?$AAe?$AAr?$AAs?$AA?2?$AA9?$AA2?$AA0?$AA0?$AA?2?$AAd?$AAe?$AAs?$AAk?$AAt?$AAo?$AAp?$AA?2?$AAw?$AAo?$AAr?$AAk?$AA?2?$AAp?$AAj?$AAs?$AAi?$AAp@ 0053fd80     pjsip-ua-i386-win32-vc8-debug:sip_inv.obj
 0003:00000e68       ??_C@_1HM@LDBPAIJA@?$AAi?$AAn?$AAv?$AA?9?$AA?$DO?$AAs?$AAt?$AAa?$AAt?$AAe?$AA?5?$AA?$CB?$AA?$DN?$AA?5?$AAP?$AAJ?$AAS?$AAI?$AAP?$AA_?$AAI?$AAN?$AAV?$AA_?$AAS?$AAT?$AAA?$AAT?$AAE?$AA_?$AAD?$AAI@ 0053fe68     pjsip-ua-i386-win32-vc8-debug:sip_inv.obj
 0003:00000efc       ??_C@_0BF@HOOGIPCC@Normal?5call?5clearing?$AA@ 0053fefc     pjsip-ua-i386-win32-vc8-debug:sip_inv.obj
 0003:00000f18       ??_C@_0BE@OEKCNCCE@Sending?5pending?5BYE?$AA@ 0053ff18     pjsip-ua-i386-win32-vc8-debug:sip_inv.obj
 0003:00000f30       ??_C@_0BL@KNCDOFEH@Failed?5sending?5pending?5BYE?$AA@ 0053ff30     pjsip-ua-i386-win32-vc8-debug:sip_inv.obj
 0003:00000f50       ??_C@_0BH@GCMGFFAD@Unsupported?5event?5type?$AA@ 0053ff50     pjsip-ua-i386-win32-vc8-debug:sip_inv.obj
 0003:00000f6c       ??_C@_1DE@GPLMLJHA@?$AA?$CB?$AA?$CC?$AAU?$AAn?$AAs?$AAu?$AAp?$AAp?$AAo?$AAr?$AAt?$AAe?$AAd?$AA?5?$AAe?$AAv?$AAe?$AAn?$AAt?$AA?5?$AAt?$AAy?$AAp?$AAe?$AA?$CC?$AA?$AA@ 0053ff6c     pjsip-ua-i386-win32-vc8-debug:sip_inv.obj
 0003:00000fac       ??_C@_0BJ@DIELNPDA@Received?5?$CFs?0?5sending?5ACK?$AA@ 0053ffac     pjsip-ua-i386-win32-vc8-debug:sip_inv.obj
 0003:00000fcc       ??_C@_0CM@GCDEGPO@Received?5?$CFs?0?5notifying?5applicati@ 0053ffcc     pjsip-ua-i386-win32-vc8-debug:sip_inv.obj
 0003:00001000       ??_C@_0BE@HAFKOJBO@Unable?5to?5send?5ACK?$CB?$AA@ 00540000     pjsip-ua-i386-win32-vc8-debug:sip_inv.obj
 0003:00001018       ??_C@_1CO@NNAENIGI@?$AA?$CB?$AA?$CC?$AAU?$AAn?$AAa?$AAb?$AAl?$AAe?$AA?5?$AAt?$AAo?$AA?5?$AAs?$AAe?$AAn?$AAd?$AA?5?$AAA?$AAC?$AAK?$AA?$CB?$AA?$CC?$AA?$AA@ 00540018     pjsip-ua-i386-win32-vc8-debug:sip_inv.obj
 0003:00001050       ??_C@_1EI@OMLIMKLN@?$AAi?$AAn?$AAv?$AA?9?$AA?$DO?$AAi?$AAn?$AAv?$AAi?$AAt?$AAe?$AA_?$AAt?$AAs?$AAx?$AA?9?$AA?$DO?$AAs?$AAt?$AAa?$AAt?$AAu?$AAs?$AA_?$AAc?$AAo?$AAd?$AAe?$AA?5?$AA?$DO?$AA?$DN?$AA?5@ 00540050     pjsip-ua-i386-win32-vc8-debug:sip_inv.obj
 0003:000010a8       ??_C@_1BI@NILACCAD@?$AAe?$AAn?$AAd?$AAp?$AAt?$AA?5?$AA?$CG?$AA?$CG?$AA?5?$AAc?$AAb?$AA?$AA@ 005400a8     pjsip-ua-i386-win32-vc8-debug:sip_inv.obj
 0003:000010c8       ??_C@_1FG@DBJLJEHP@?$AAc?$AAb?$AA?9?$AA?$DO?$AAo?$AAn?$AA_?$AAs?$AAt?$AAa?$AAt?$AAe?$AA_?$AAc?$AAh?$AAa?$AAn?$AAg?$AAe?$AAd?$AA?5?$AA?$CG?$AA?$CG?$AA?5?$AAc?$AAb?$AA?9?$AA?$DO?$AAo?$AAn?$AA_?$AAn@ 005400c8     pjsip-ua-i386-win32-vc8-debug:sip_inv.obj
 0003:00001130       ??_C@_1CK@EDLFOFHO@?$AAm?$AAo?$AAd?$AA_?$AAi?$AAn?$AAv?$AA?4?$AAm?$AAo?$AAd?$AA?4?$AAi?$AAd?$AA?5?$AA?$DN?$AA?$DN?$AA?5?$AA?9?$AA1?$AA?$AA@ 00540130     pjsip-ua-i386-win32-vc8-debug:sip_inv.obj
 0003:00001168       ??_C@_1IO@NDKAAJLK@?$AAs?$AAt?$AAa?$AAt?$AAe?$AA?5?$AA?$DO?$AA?$DN?$AA?5?$AAP?$AAJ?$AAS?$AAI?$AAP?$AA_?$AAI?$AAN?$AAV?$AA_?$AAS?$AAT?$AAA?$AAT?$AAE?$AA_?$AAN?$AAU?$AAL?$AAL?$AA?5?$AA?$CG?$AA?$CG@ 00540168     pjsip-ua-i386-win32-vc8-debug:sip_inv.obj
 0003:00001214       ??_C@_02HHFHKOHM@?$DP?$DP?$AA@ 00540214     pjsip-ua-i386-win32-vc8-debug:sip_inv.obj
 0003:00001218       ??_C@_1BK@GKNGGBNP@?$AAd?$AAl?$AAg?$AA?5?$AA?$CG?$AA?$CG?$AA?5?$AAp?$AA_?$AAi?$AAn?$AAv?$AA?$AA@ 00540218     pjsip-ua-i386-win32-vc8-debug:sip_inv.obj
 0003:00001238       ??_C@_1CG@OAAEADHC@?$AAi?$AAn?$AAv?$AA?5?$AA?$CB?$AA?$DN?$AA?5?$AA?$CI?$AA?$CI?$AAv?$AAo?$AAi?$AAd?$AA?5?$AA?$CK?$AA?$CJ?$AA0?$AA?$CJ?$AA?$AA@ 00540238     pjsip-ua-i386-win32-vc8-debug:sip_inv.obj
 0003:00001268       ??_C@_05BICJMLFP@inv?$CFp?$AA@ 00540268     pjsip-ua-i386-win32-vc8-debug:sip_inv.obj
 0003:00001270       ??_C@_0CJ@HLKGBANI@UAC?5invite?5session?5created?5for?5d@ 00540270     pjsip-ua-i386-win32-vc8-debug:sip_inv.obj
 0003:000012a4       ??_C@_1CI@FFAAJENN@?$AAm?$AAo?$AAd?$AA_?$AAi?$AAn?$AAv?$AA?4?$AAm?$AAo?$AAd?$AA?4?$AAi?$AAd?$AA?5?$AA?$DO?$AA?$DN?$AA?5?$AA0?$AA?$AA@ 005402a4     pjsip-ua-i386-win32-vc8-debug:sip_inv.obj
 0003:000012d4       ??_C@_03MHNADFJL@sdp?$AA@  005402d4     pjsip-ua-i386-win32-vc8-debug:sip_inv.obj
 0003:000012d8       ??_C@_0M@MBDKLJIJ@application?$AA@ 005402d8     pjsip-ua-i386-win32-vc8-debug:sip_inv.obj
 0003:000012e8       ??_C@_09FEKOPBOI@multipart?$AA@ 005402e8     pjsip-ua-i386-win32-vc8-debug:sip_inv.obj
 0003:000012f4       ??_C@_05IPHDHIPP@mixed?$AA@ 005402f4     pjsip-ua-i386-win32-vc8-debug:sip_inv.obj
 0003:000012fc       ??_C@_0M@HAJLPECN@alternative?$AA@ 005402fc     pjsip-ua-i386-win32-vc8-debug:sip_inv.obj
 0003:0000130c       ??_C@_0CC@MAIPFFMN@Error?5parsing?1validating?5SDP?5bod@ 0054030c     pjsip-ua-i386-win32-vc8-debug:sip_inv.obj
 0003:00001334       ??_C@_09LDKIKNFD@sip_inv?4c?$AA@ 00540334     pjsip-ua-i386-win32-vc8-debug:sip_inv.obj
 0003:00001340       ??_C@_1GE@NPDGFGEC@?$AAt?$AAm?$AAp?$AA_?$AAp?$AAo?$AAo?$AAl?$AA?5?$AA?$CB?$AA?$DN?$AA?5?$AA?$CI?$AA?$CI?$AAv?$AAo?$AAi?$AAd?$AA?5?$AA?$CK?$AA?$CJ?$AA0?$AA?$CJ?$AA?5?$AA?$CG?$AA?$CG?$AA?5?$AAo?$AAp?$AAt?$AAi?$AAo@ 00540340     pjsip-ua-i386-win32-vc8-debug:sip_inv.obj
 0003:000013b8       ??_C@_1LA@DDGKMCEJ@?$AAm?$AAs?$AAg?$AA?5?$AA?$CG?$AA?$CG?$AA?5?$AAm?$AAs?$AAg?$AA?9?$AA?$DO?$AAt?$AAy?$AAp?$AAe?$AA?5?$AA?$DN?$AA?$DN?$AA?5?$AAP?$AAJ?$AAS?$AAI?$AAP?$AA_?$AAR?$AAE?$AAQ?$AAU?$AAE?$AAS@ 005403b8     pjsip-ua-i386-win32-vc8-debug:sip_inv.obj
 0003:0000148c       ??_C@_1DK@FKEKHHHM@?$AA?$CI?$AA?$CB?$AAp?$AA_?$AAt?$AAd?$AAa?$AAt?$AAa?$AA?$CJ?$AA?5?$AA?$HM?$AA?$HM?$AA?5?$AA?$CI?$AAe?$AAn?$AAd?$AAp?$AAt?$AA?5?$AA?$HM?$AA?$HM?$AA?5?$AAd?$AAl?$AAg?$AA?$CJ?$AA?$AA@ 0054048c     pjsip-ua-i386-win32-vc8-debug:sip_inv.obj
 0003:000014d4       ??_C@_0BL@BJMNFGKN@Bad?1missing?5Contact?5header?$AA@ 005404d4     pjsip-ua-i386-win32-vc8-debug:sip_inv.obj
 0003:000014f4       ??_C@_17CBGPKFKK@?$AAa?$AAc?$AAc?$AA?$AA@ 005404f4     pjsip-ua-i386-win32-vc8-debug:sip_inv.obj
 0003:00001500       ??_C@_13CIFDLIMG@?$AAw?$AA?$AA@ 00540500     pjsip-ua-i386-win32-vc8-debug:sip_inv.obj
 0003:00001508       ??_C@_1GC@KLNFPDJG@?$AA?$CI?$AAs?$AAt?$AAa?$AAt?$AAu?$AAs?$AA?$DN?$AAp?$AAj?$AAm?$AAe?$AAd?$AAi?$AAa?$AA_?$AAs?$AAd?$AAp?$AA_?$AAv?$AAa?$AAl?$AAi?$AAd?$AAa?$AAt?$AAe?$AA?$CI?$AAl?$AA_?$AAs@ 00540508     pjsip-ua-i386-win32-vc8-debug:sip_inv.obj
 0003:00001580       ??_C@_1CK@CNMBOKKG@?$AAs?$AAt?$AAa?$AAt?$AAu?$AAs?$AA?5?$AA?$DN?$AA?$DN?$AA?5?$AAP?$AAJ?$AA_?$AAS?$AAU?$AAC?$AAC?$AAE?$AAS?$AAS?$AA?$AA@ 00540580     pjsip-ua-i386-win32-vc8-debug:sip_inv.obj
 0003:000015b4       ??_C@_06IPLOHEDL@100rel?$AA@ 005405b4     pjsip-ua-i386-win32-vc8-debug:sip_inv.obj
 0003:000015bc       ??_C@_05NAPFDJNG@timer?$AA@ 005405bc     pjsip-ua-i386-win32-vc8-debug:sip_inv.obj
 0003:000015c4       ??_C@_03MKIOHCPB@ice?$AA@  005405c4     pjsip-ua-i386-win32-vc8-debug:sip_inv.obj
 0003:000015c8       ??_C@_08LDJJEDJ@replaces?$AA@ 005405c8     pjsip-ua-i386-win32-vc8-debug:sip_inv.obj
 0003:000015d4       ??_C@_1DE@LHIBCBMO@?$AAu?$AAn?$AAs?$AAu?$AAp?$AAp?$AA_?$AAh?$AAd?$AAr?$AA?5?$AA?$CB?$AA?$DN?$AA?5?$AA?$CI?$AA?$CI?$AAv?$AAo?$AAi?$AAd?$AA?5?$AA?$CK?$AA?$CJ?$AA0?$AA?$CJ?$AA?$AA@ 005405d4     pjsip-ua-i386-win32-vc8-debug:sip_inv.obj
 0003:00001614       ??_C@_13CACJPPAP@?$AAh?$AA?$AA@ 00540614     pjsip-ua-i386-win32-vc8-debug:sip_inv.obj
 0003:00001618       ??_C@_1CO@NOMHHNNG@?$AAr?$AAe?$AAq?$AA_?$AAh?$AAd?$AAr?$AA?5?$AA?$CB?$AA?$DN?$AA?5?$AA?$CI?$AA?$CI?$AAv?$AAo?$AAi?$AAd?$AA?5?$AA?$CK?$AA?$CJ?$AA0?$AA?$CJ?$AA?$AA@ 00540618     pjsip-ua-i386-win32-vc8-debug:sip_inv.obj
 0003:00001650       ??_C@_1EI@GPHLFPOL@?$AA?$CK?$AAo?$AAp?$AAt?$AAi?$AAo?$AAn?$AAs?$AA?5?$AA?$CG?$AA?5?$AAP?$AAJ?$AAS?$AAI?$AAP?$AA_?$AAI?$AAN?$AAV?$AA_?$AAS?$AAU?$AAP?$AAP?$AAO?$AAR?$AAT?$AA_?$AA1?$AA0?$AA0@ 00540650     pjsip-ua-i386-win32-vc8-debug:sip_inv.obj
 0003:000016a8       ??_C@_1EG@ELJADGLH@?$AA?$CK?$AAo?$AAp?$AAt?$AAi?$AAo?$AAn?$AAs?$AA?5?$AA?$CG?$AA?5?$AAP?$AAJ?$AAS?$AAI?$AAP?$AA_?$AAI?$AAN?$AAV?$AA_?$AAS?$AAU?$AAP?$AAP?$AAO?$AAR?$AAT?$AA_?$AAT?$AAI?$AAM@ 005406a8     pjsip-ua-i386-win32-vc8-debug:sip_inv.obj
 0003:000016fc       ??_C@_1O@PKFABOIK@?$AAc?$AAl?$AAo?$AAn?$AAe?$AAd?$AA?$AA@ 005406fc     pjsip-ua-i386-win32-vc8-debug:sip_inv.obj
 0003:0000170c       ??_C@_1CM@HCCAEDPH@?$AAd?$AAl?$AAg?$AA?5?$AA?$CG?$AA?$CG?$AA?5?$AAr?$AAd?$AAa?$AAt?$AAa?$AA?5?$AA?$CG?$AA?$CG?$AA?5?$AAp?$AA_?$AAi?$AAn?$AAv?$AA?$AA@ 0054070c     pjsip-ua-i386-win32-vc8-debug:sip_inv.obj
 0003:00001740       ??_C@_1FE@DGMFBOIA@?$AAp?$AAj?$AAs?$AAi?$AAp?$AA_?$AAr?$AAd?$AAa?$AAt?$AAa?$AA_?$AAg?$AAe?$AAt?$AA_?$AAt?$AAs?$AAx?$AA?$CI?$AAr?$AAd?$AAa?$AAt?$AAa?$AA?$CJ?$AA?5?$AA?$CB?$AA?$DN?$AA?5?$AA?$CI?$AA?$CI@ 00540740     pjsip-ua-i386-win32-vc8-debug:sip_inv.obj
 0003:000017a8       ??_C@_1KC@EDFPKMMF@?$AAm?$AAs?$AAg?$AA?9?$AA?$DO?$AAt?$AAy?$AAp?$AAe?$AA?5?$AA?$DN?$AA?$DN?$AA?5?$AAP?$AAJ?$AAS?$AAI?$AAP?$AA_?$AAR?$AAE?$AAQ?$AAU?$AAE?$AAS?$AAT?$AA_?$AAM?$AAS?$AAG?$AA?5?$AA?$CG@ 005407a8     pjsip-ua-i386-win32-vc8-debug:sip_inv.obj
 0003:0000186c       ??_C@_0CJ@EIBALPMO@UAS?5invite?5session?5created?5for?5d@ 0054086c     pjsip-ua-i386-win32-vc8-debug:sip_inv.obj
 0003:000018a0       ??_C@_17CJNDAKGM@?$AAi?$AAn?$AAv?$AA?$AA@ 005408a0     pjsip-ua-i386-win32-vc8-debug:sip_inv.obj
 0003:000018ac       ??_C@_1CI@FJCEKDIA@?$AAb?$AAo?$AAd?$AAy?$AA?5?$AA?$CB?$AA?$DN?$AA?5?$AA?$CI?$AA?$CI?$AAv?$AAo?$AAi?$AAd?$AA?5?$AA?$CK?$AA?$CJ?$AA0?$AA?$CJ?$AA?$AA@ 005408ac     pjsip-ua-i386-win32-vc8-debug:sip_inv.obj
 0003:000018dc       ??_C@_1BO@BGFEAPKD@?$AAi?$AAn?$AAv?$AA?5?$AA?$CG?$AA?$CG?$AA?5?$AAp?$AA_?$AAt?$AAd?$AAa?$AAt?$AAa?$AA?$AA@ 005408dc     pjsip-ua-i386-win32-vc8-debug:sip_inv.obj
 0003:00001900       ??_C@_1JM@PMKFIICP@?$AAi?$AAn?$AAv?$AA?9?$AA?$DO?$AAs?$AAt?$AAa?$AAt?$AAe?$AA?5?$AA?$DN?$AA?$DN?$AA?5?$AAP?$AAJ?$AAS?$AAI?$AAP?$AA_?$AAI?$AAN?$AAV?$AA_?$AAS?$AAT?$AAA?$AAT?$AAE?$AA_?$AAN?$AAU@ 00540900     pjsip-ua-i386-win32-vc8-debug:sip_inv.obj
 0003:000019c0       ??_C@_1IO@HNLDFJEH@?$AAp?$AAj?$AAm?$AAe?$AAd?$AAi?$AAa?$AA_?$AAs?$AAd?$AAp?$AA_?$AAn?$AAe?$AAg?$AA_?$AAg?$AAe?$AAt?$AA_?$AAs?$AAt?$AAa?$AAt?$AAe?$AA?$CI?$AAi?$AAn?$AAv?$AA?9?$AA?$DO?$AAn@ 005409c0     pjsip-ua-i386-win32-vc8-debug:sip_inv.obj
 0003:00001a6c       ??_C@_0CA@LPJKLBPC@SDP?5negotiation?5done?0?5status?$DN?$CFd?$AA@ 00540a6c     pjsip-ua-i386-win32-vc8-debug:sip_inv.obj
 0003:00001a94       ??_C@_05MMFAAGKE@early?$AA@ 00540a94     pjsip-ua-i386-win32-vc8-debug:sip_inv.obj
 0003:00001a9c       ??_C@_05FPBGKCKL@final?$AA@ 00540a9c     pjsip-ua-i386-win32-vc8-debug:sip_inv.obj
 0003:00001aa8       ??_C@_0GE@BICJFDPJ@Received?5forked?5?$CFs?5response?5afte@ 00540aa8     pjsip-ua-i386-win32-vc8-debug:sip_inv.obj
 0003:00001b20       ??_C@_0EA@DLEHGIAD@Error?5updating?5local?5offer?5for?5f@ 00540b20     pjsip-ua-i386-win32-vc8-debug:sip_inv.obj
 0003:00001b6c       ??_C@_0CO@JFCENHLK@SDP?5negotiation?5done?0?5message?5bo@ 00540b6c     pjsip-ua-i386-win32-vc8-debug:sip_inv.obj
 0003:00001ba4       ??_C@_0BI@BGFFELKE@Error?5parsing?5SDP?5in?5?$CFs?$AA@ 00540ba4     pjsip-ua-i386-win32-vc8-debug:sip_inv.obj
 0003:00001bc0       ??_C@_1DK@GHGIGOBH@?$AAs?$AAd?$AAp?$AA_?$AAi?$AAn?$AAf?$AAo?$AA?9?$AA?$DO?$AAs?$AAd?$AAp?$AA?5?$AA?$CB?$AA?$DN?$AA?5?$AA?$CI?$AA?$CI?$AAv?$AAo?$AAi?$AAd?$AA?5?$AA?$CK?$AA?$CJ?$AA0?$AA?$CJ?$AA?$AA@ 00540bc0     pjsip-ua-i386-win32-vc8-debug:sip_inv.obj
 0003:00001c08       ??_C@_0BE@EPLINLEA@Got?5SDP?5offer?5in?5?$CFs?$AA@ 00540c08     pjsip-ua-i386-win32-vc8-debug:sip_inv.obj
 0003:00001c20       ??_C@_0CA@NKIPLGEL@Error?5processing?5SDP?5offer?5in?5?$CF?$AA@ 00540c20     pjsip-ua-i386-win32-vc8-debug:sip_inv.obj
 0003:00001c48       ??_C@_0EG@MIAPKNNJ@Ignoring?5on_rx_offer?$CI?$CJ?5status?5be@ 00540c48     pjsip-ua-i386-win32-vc8-debug:sip_inv.obj
 0003:00001c9c       ??_C@_0BF@NJIJAPGF@Got?5SDP?5answer?5in?5?$CFs?$AA@ 00540c9c     pjsip-ua-i386-win32-vc8-debug:sip_inv.obj
 0003:00001cb8       ??_C@_0CC@MICCHKNP@Error?5processing?5SDP?5answer?5in?5?$CF@ 00540cb8     pjsip-ua-i386-win32-vc8-debug:sip_inv.obj
 0003:00001ce0       ??_C@_0CK@CNMHAOHC@Ignored?5SDP?5in?5?$CFs?3?5negotiator?5st@ 00540ce0     pjsip-ua-i386-win32-vc8-debug:sip_inv.obj
 0003:00001d14       ??_C@_13COJANIEC@?$AA0?$AA?$AA@ 00540d14     pjsip-ua-i386-win32-vc8-debug:sip_inv.obj
 0003:00001d18       ??_C@_1CA@LLHICPOK@?$AAi?$AAn?$AAv?$AA?9?$AA?$DO?$AAi?$AAn?$AAv?$AAi?$AAt?$AAe?$AA_?$AAt?$AAs?$AAx?$AA?$AA@ 00540d18     pjsip-ua-i386-win32-vc8-debug:sip_inv.obj
 0003:00001d40       ??_C@_0BC@DKICHHDF@Initial?5answer?5?$CFs?$AA@ 00540d40     pjsip-ua-i386-win32-vc8-debug:sip_inv.obj
 0003:00001d58       ??_C@_1CC@OFHPEPC@?$AAi?$AAn?$AAv?$AA?9?$AA?$DO?$AAl?$AAa?$AAs?$AAt?$AA_?$AAa?$AAn?$AAs?$AAw?$AAe?$AAr?$AA?$AA@ 00540d58     pjsip-ua-i386-win32-vc8-debug:sip_inv.obj
 0003:00001d80       ??_C@_1BG@KMJGABE@?$AAi?$AAn?$AAv?$AA?5?$AA?$CG?$AA?$CG?$AA?5?$AAs?$AAd?$AAp?$AA?$AA@ 00540d80     pjsip-ua-i386-win32-vc8-debug:sip_inv.obj
 0003:00001d9c       ??_C@_1DO@EECGANDN@?$AAi?$AAn?$AAv?$AA?9?$AA?$DO?$AAi?$AAn?$AAv?$AAi?$AAt?$AAe?$AA_?$AAt?$AAs?$AAx?$AA?5?$AA?$CB?$AA?$DN?$AA?5?$AA?$CI?$AA?$CI?$AAv?$AAo?$AAi?$AAd?$AA?5?$AA?$CK?$AA?$CJ?$AA0?$AA?$CJ?$AA?$AA@ 00540d9c     pjsip-ua-i386-win32-vc8-debug:sip_inv.obj
 0003:00001de8       ??_C@_0DO@HEALFLEC@Delaying?5CANCEL?5since?5no?5provisi@ 00540de8     pjsip-ua-i386-win32-vc8-debug:sip_inv.obj
 0003:00001e34       ??_C@_1CK@IGANNOPN@?$AAt?$AAd?$AAa?$AAt?$AAa?$AA?5?$AA?$CB?$AA?$DN?$AA?5?$AA?$CI?$AA?$CI?$AAv?$AAo?$AAi?$AAd?$AA?5?$AA?$CK?$AA?$CJ?$AA0?$AA?$CJ?$AA?$AA@ 00540e34     pjsip-ua-i386-win32-vc8-debug:sip_inv.obj
 0003:00001e68       ??_C@_0BD@KGOPLDMJ@Invalid?5operation?$CB?$AA@ 00540e68     pjsip-ua-i386-win32-vc8-debug:sip_inv.obj
 0003:00001e80       ??_C@_1CM@NIACOCAG@?$AA?$CB?$AA?$CC?$AAI?$AAn?$AAv?$AAa?$AAl?$AAi?$AAd?$AA?5?$AAo?$AAp?$AAe?$AAr?$AAa?$AAt?$AAi?$AAo?$AAn?$AA?$CB?$AA?$CC?$AA?$AA@ 00540e80     pjsip-ua-i386-win32-vc8-debug:sip_inv.obj
 0003:00001eb4       ??_C@_03MPAIKGMI@sip?$AA@  00540eb4     pjsip-ua-i386-win32-vc8-debug:sip_inv.obj
 0003:00001eb8       ??_C@_04JBGCGIBB@sips?$AA@ 00540eb8     pjsip-ua-i386-win32-vc8-debug:sip_inv.obj
 0003:00001ec0       ??_C@_0BG@HEMHFPBP@Should?5not?5reach?5here?$AA@ 00540ec0     pjsip-ua-i386-win32-vc8-debug:sip_inv.obj
 0003:00001edc       ??_C@_1DC@HODPDJOC@?$AA?$CB?$AA?$CC?$AAS?$AAh?$AAo?$AAu?$AAl?$AAd?$AA?5?$AAn?$AAo?$AAt?$AA?5?$AAr?$AAe?$AAa?$AAc?$AAh?$AA?5?$AAh?$AAe?$AAr?$AAe?$AA?$CC?$AA?$AA@ 00540edc     pjsip-ua-i386-win32-vc8-debug:sip_inv.obj
 0003:00001f18       ??_C@_1EI@LPOKHMME@?$AAi?$AAn?$AAv?$AA?5?$AA?$CG?$AA?$CG?$AA?5?$AAo?$AAp?$AA?5?$AA?$CB?$AA?$DN?$AA?5?$AAP?$AAJ?$AAS?$AAI?$AAP?$AA_?$AAR?$AAE?$AAD?$AAI?$AAR?$AAE?$AAC?$AAT?$AA_?$AAP?$AAE?$AAN?$AAD@ 00540f18     pjsip-ua-i386-win32-vc8-debug:sip_inv.obj
 0003:00001f70       ??_C@_0BI@DIMJOHLK@?$DM?9error?3?5uri?5too?5long?9?$DO?$AA@ 00540f70     pjsip-ua-i386-win32-vc8-debug:sip_inv.obj
 0003:00001f8c       ??_C@_0BC@KLJDOBBG@Should?5not?5happen?$AA@ 00540f8c     pjsip-ua-i386-win32-vc8-debug:sip_inv.obj
 0003:00001fa4       ??_C@_1CK@OMJLCHM@?$AA?$CB?$AA?$CC?$AAS?$AAh?$AAo?$AAu?$AAl?$AAd?$AA?5?$AAn?$AAo?$AAt?$AA?5?$AAh?$AAa?$AAp?$AAp?$AAe?$AAn?$AA?$CC?$AA?$AA@ 00540fa4     pjsip-ua-i386-win32-vc8-debug:sip_inv.obj
 0003:00001fd8       ??_C@_07PMMFKIFM@Contact?$AA@ 00540fd8     pjsip-ua-i386-win32-vc8-debug:sip_inv.obj
 0003:00001fe4       ??_C@_0BO@INEDICFJ@Unexpected?5SDP?5neg?5state?5NULL?$AA@ 00540fe4     pjsip-ua-i386-win32-vc8-debug:sip_inv.obj
 0003:00002008       ??_C@_1EC@BLGMPBAH@?$AA?$CB?$AA?$CC?$AAU?$AAn?$AAe?$AAx?$AAp?$AAe?$AAc?$AAt?$AAe?$AAd?$AA?5?$AAS?$AAD?$AAP?$AA?5?$AAn?$AAe?$AAg?$AA?5?$AAs?$AAt?$AAa?$AAt?$AAe?$AA?5?$AAN?$AAU?$AAL?$AAL?$AA?$CC@ 00541008     pjsip-ua-i386-win32-vc8-debug:sip_inv.obj
 0003:00002058       ??_C@_0EA@JEELPGOL@pjsip_inv_reinvite?3?5already?5have@ 00541058     pjsip-ua-i386-win32-vc8-debug:sip_inv.obj
 0003:000020a8       ??_C@_0EB@ECNPIPJI@pjsip_inv_reinvite?3?5SDP?5in?5WAIT_@ 005410a8     pjsip-ua-i386-win32-vc8-debug:sip_inv.obj
 0003:000020f8       ??_C@_1GE@CJEEMPEH@?$AAi?$AAn?$AAv?$AA?9?$AA?$DO?$AAd?$AAl?$AAg?$AA?9?$AA?$DO?$AAs?$AAt?$AAa?$AAt?$AAe?$AA?5?$AA?$DN?$AA?$DN?$AA?5?$AAP?$AAJ?$AAS?$AAI?$AAP?$AA_?$AAD?$AAI?$AAA?$AAL?$AAO?$AAG?$AA_@ 005410f8     pjsip-ua-i386-win32-vc8-debug:sip_inv.obj
 0003:00002170       ??_C@_1FE@KEFJDLFA@?$AAi?$AAn?$AAv?$AA?9?$AA?$DO?$AAs?$AAt?$AAa?$AAt?$AAe?$AA?5?$AA?$DM?$AA?5?$AAP?$AAJ?$AAS?$AAI?$AAP?$AA_?$AAI?$AAN?$AAV?$AA_?$AAS?$AAT?$AAA?$AAT?$AAE?$AA_?$AAD?$AAI?$AAS@ 00541170     pjsip-ua-i386-win32-vc8-debug:sip_inv.obj
 0003:000021d4       ??_C@_0CK@INPGLEAA@Invalid?5SDP?5offer?1answer?5state?5f@ 005411d4     pjsip-ua-i386-win32-vc8-debug:sip_inv.obj
 0003:00002208       ??_C@_1BK@LKOBIJHK@?$AAi?$AAn?$AAv?$AA?5?$AA?$CG?$AA?$CG?$AA?5?$AAt?$AAd?$AAa?$AAt?$AAa?$AA?$AA@ 00541208     pjsip-ua-i386-win32-vc8-debug:sip_inv.obj
 0003:00002228       ??_C@_0L@BPIOADDE@Sending?5?$CFs?$AA@ 00541228     pjsip-ua-i386-win32-vc8-debug:sip_inv.obj
 0003:00002238       ??_C@_0CL@IIMHLPDD@Delaying?5BYE?5request?5until?5ACK?5i@ 00541238     pjsip-ua-i386-win32-vc8-debug:sip_inv.obj
 0003:00002270       ??_C@_1BBA@FBGJFHAJ@?$AA?$CI?$AAc?$AAs?$AAe?$AAq?$AA?$DN?$AA?$CI?$AAp?$AAj?$AAs?$AAi?$AAp?$AA_?$AAc?$AAs?$AAe?$AAq?$AA_?$AAh?$AAd?$AAr?$AA?$CK?$AA?$CJ?$AAp?$AAj?$AAs?$AAi?$AAp?$AA_?$AAm?$AAs?$AAg@ 00541270     pjsip-ua-i386-win32-vc8-debug:sip_inv.obj
 0003:000023b8       ??_C@_1FK@OLGMKDFB@?$AAe?$AA?9?$AA?$DO?$AAb?$AAo?$AAd?$AAy?$AA?4?$AAt?$AAs?$AAx?$AA_?$AAs?$AAt?$AAa?$AAt?$AAe?$AA?4?$AAt?$AAy?$AAp?$AAe?$AA?5?$AA?$DN?$AA?$DN?$AA?5?$AAP?$AAJ?$AAS?$AAI?$AAP?$AA_@ 005413b8     pjsip-ua-i386-win32-vc8-debug:sip_inv.obj
 0003:00002428       ??_C@_1EG@JDJOKKMM@?$AAi?$AAn?$AAv?$AAi?$AAt?$AAe?$AA_?$AAt?$AAs?$AAx?$AA?9?$AA?$DO?$AAl?$AAa?$AAs?$AAt?$AA_?$AAt?$AAx?$AA?5?$AA?$CB?$AA?$DN?$AA?5?$AA?$CI?$AA?$CI?$AAv?$AAo?$AAi?$AAd?$AA?5?$AA?$CK?$AA?$CJ@ 00541428     pjsip-ua-i386-win32-vc8-debug:sip_inv.obj
 0003:0000247c       ??_C@_1BK@BCEMGCPF@?$AAt?$AAs?$AAx?$AA_?$AAi?$AAn?$AAv?$AA_?$AAd?$AAa?$AAt?$AAa?$AA?$AA@ 0054147c     pjsip-ua-i386-win32-vc8-debug:sip_inv.obj
 0003:0000249c       ??_C@_0DG@BKONCIHK@Ignored?5message?5body?5in?5?$CFs?5as?5no@ 0054149c     pjsip-ua-i386-win32-vc8-debug:sip_inv.obj
 0003:000024dc       ??_C@_1BG@EJKNJBON@?$AAt?$AAs?$AAx?$AA?5?$AA?$CG?$AA?$CG?$AA?5?$AAd?$AAl?$AAg?$AA?$AA@ 005414dc     pjsip-ua-i386-win32-vc8-debug:sip_inv.obj
 0003:000024f8       ??_C@_0BM@DEIBJIKO@Unexpected?5transaction?5type?$AA@ 005414f8     pjsip-ua-i386-win32-vc8-debug:sip_inv.obj
 0003:0000251c       ??_C@_1DO@GGDHOIGC@?$AA?$CB?$AA?$CC?$AAU?$AAn?$AAe?$AAx?$AAp?$AAe?$AAc?$AAt?$AAe?$AAd?$AA?5?$AAt?$AAr?$AAa?$AAn?$AAs?$AAa?$AAc?$AAt?$AAi?$AAo?$AAn?$AA?5?$AAt?$AAy?$AAp?$AAe?$AA?$CC?$AA?$AA@ 0054151c     pjsip-ua-i386-win32-vc8-debug:sip_inv.obj
 0003:00002568       ??_C@_1DI@FIJLFHDF@?$AAt?$AAs?$AAx?$AA?9?$AA?$DO?$AAr?$AAo?$AAl?$AAe?$AA?5?$AA?$DN?$AA?$DN?$AA?5?$AAP?$AAJ?$AAS?$AAI?$AAP?$AA_?$AAU?$AAA?$AAC?$AA_?$AAR?$AAO?$AAL?$AAE?$AA?$AA@ 00541568     pjsip-ua-i386-win32-vc8-debug:sip_inv.obj
 0003:000025ac       ??_C@_0BI@BMAGDFPC@Unexpected?5INVITE?5state?$AA@ 005415ac     pjsip-ua-i386-win32-vc8-debug:sip_inv.obj
 0003:000025c8       ??_C@_1DG@COAHJHHL@?$AA?$CB?$AA?$CC?$AAU?$AAn?$AAe?$AAx?$AAp?$AAe?$AAc?$AAt?$AAe?$AAd?$AA?5?$AAI?$AAN?$AAV?$AAI?$AAT?$AAE?$AA?5?$AAs?$AAt?$AAa?$AAt?$AAe?$AA?$CC?$AA?$AA@ 005415c8     pjsip-ua-i386-win32-vc8-debug:sip_inv.obj
 0003:00002608       ??_C@_0BM@GPHCPLAL@Unexpected?5INVITE?5tsx?5state?$AA@ 00541608     pjsip-ua-i386-win32-vc8-debug:sip_inv.obj
 0003:0000262c       ??_C@_1DO@PPPPLNCC@?$AA?$CB?$AA?$CC?$AAU?$AAn?$AAe?$AAx?$AAp?$AAe?$AAc?$AAt?$AAe?$AAd?$AA?5?$AAI?$AAN?$AAV?$AAI?$AAT?$AAE?$AA?5?$AAt?$AAs?$AAx?$AA?5?$AAs?$AAt?$AAa?$AAt?$AAe?$AA?$CC?$AA?$AA@ 0054162c     pjsip-ua-i386-win32-vc8-debug:sip_inv.obj
 0003:00002678       ??_C@_0BB@MBJACEGJ@Unexpected?5state?$AA@ 00541678     pjsip-ua-i386-win32-vc8-debug:sip_inv.obj
 0003:0000268c       ??_C@_1CI@PIODLIDM@?$AA?$CB?$AA?$CC?$AAU?$AAn?$AAe?$AAx?$AAp?$AAe?$AAc?$AAt?$AAe?$AAd?$AA?5?$AAs?$AAt?$AAa?$AAt?$AAe?$AA?$CC?$AA?$AA@ 0054168c     pjsip-ua-i386-win32-vc8-debug:sip_inv.obj
 0003:000026bc       ??_C@_0CH@BBKLGGDE@Another?5INVITE?5transaction?5in?5pr@ 005416bc     pjsip-ua-i386-win32-vc8-debug:sip_inv.obj
 0003:000026ec       ??_C@_0BM@KEOGGKDD@on_rx_reinvite?$CI?$CJ?5returns?5?$CFd?$AA@ 005416ec     pjsip-ua-i386-win32-vc8-debug:sip_inv.obj
 0003:00002710       ??_C@_0BH@GJLJMANH@SDP?5negotiation?5failed?$AA@ 00541710     pjsip-ua-i386-win32-vc8-debug:sip_inv.obj
 0003:00002730       ??_C@_1GK@CLEDBDLA@?$AAi?$AAn?$AAv?$AA?9?$AA?$DO?$AAi?$AAn?$AAv?$AAi?$AAt?$AAe?$AA_?$AAt?$AAs?$AAx?$AA?$DN?$AA?$DN?$AA?$CI?$AA?$CI?$AAv?$AAo?$AAi?$AAd?$AA?5?$AA?$CK?$AA?$CJ?$AA0?$AA?$CJ?$AA?5?$AA?$HM?$AA?$HM?$AA?5@ 00541730     pjsip-ua-i386-win32-vc8-debug:sip_inv.obj
 0003:000027b0       ??_C@_05ECJJFAAP@PRACK?$AA@ 005417b0     pjsip-ua-i386-win32-vc8-debug:sip_100rel.obj
 0003:000027d0       _pjsip_prack_method        005417d0     pjsip-ua-i386-win32-vc8-debug:sip_100rel.obj
 0003:000027e4       ??_C@_04NKIOHFHJ@RSeq?$AA@ 005417e4     pjsip-ua-i386-win32-vc8-debug:sip_100rel.obj
 0003:000027ec       ??_C@_04JEDOGMAE@RAck?$AA@ 005417ec     pjsip-ua-i386-win32-vc8-debug:sip_100rel.obj
 0003:000027f4       ??_C@_0L@KBAFDJEE@mod?9100rel?$AA@ 005417f4     pjsip-ua-i386-win32-vc8-debug:sip_100rel.obj
 0003:00002808       ??_C@_1MC@LIKGGPEK@?$AAc?$AA?3?$AA?2?$AAu?$AAs?$AAe?$AAr?$AAs?$AA?2?$AA9?$AA2?$AA0?$AA0?$AA?2?$AAd?$AAe?$AAs?$AAk?$AAt?$AAo?$AAp?$AA?2?$AAw?$AAo?$AAr?$AAk?$AA?2?$AAp?$AAj?$AAs?$AAi?$AAp@ 00541808     pjsip-ua-i386-win32-vc8-debug:sip_100rel.obj
 0003:000028f0       ??_C@_1CO@GFBPPKIH@?$AAm?$AAo?$AAd?$AA_?$AA1?$AA0?$AA0?$AAr?$AAe?$AAl?$AA?4?$AAm?$AAo?$AAd?$AA?4?$AAi?$AAd?$AA?5?$AA?$DO?$AA?$DN?$AA?5?$AA0?$AA?$AA@ 005418f0     pjsip-ua-i386-win32-vc8-debug:sip_100rel.obj
 0003:00002928       ??_C@_0BH@ONPFCEOK@100rel?5module?5attached?$AA@ 00541928     pjsip-ua-i386-win32-vc8-debug:sip_100rel.obj
 0003:00002948       ??_C@_1EA@HNPHDELL@?$AAm?$AAs?$AAg?$AA?9?$AA?$DO?$AAt?$AAy?$AAp?$AAe?$AA?5?$AA?$DN?$AA?$DN?$AA?5?$AAP?$AAJ?$AAS?$AAI?$AAP?$AA_?$AAR?$AAE?$AAS?$AAP?$AAO?$AAN?$AAS?$AAE?$AA_?$AAM?$AAS?$AAG?$AA?$AA@ 00541948     pjsip-ua-i386-win32-vc8-debug:sip_100rel.obj
 0003:00002994       ??_C@_1CE@MOGMKPAG@?$AAd?$AAd?$AA?5?$AA?$CB?$AA?$DN?$AA?5?$AA?$CI?$AA?$CI?$AAv?$AAo?$AAi?$AAd?$AA?5?$AA?$CK?$AA?$CJ?$AA0?$AA?$CJ?$AA?$AA@ 00541994     pjsip-ua-i386-win32-vc8-debug:sip_100rel.obj
 0003:000029c0       ??_C@_1BAG@DPLLFNLE@?$AAt?$AAs?$AAx?$AA?9?$AA?$DO?$AAr?$AAo?$AAl?$AAe?$AA?5?$AA?$DN?$AA?$DN?$AA?5?$AAP?$AAJ?$AAS?$AAI?$AAP?$AA_?$AAR?$AAO?$AAL?$AAE?$AA_?$AAU?$AAA?$AAC?$AA?5?$AA?$CG?$AA?$CG?$AA?5?$AAt@ 005419c0     pjsip-ua-i386-win32-vc8-debug:sip_100rel.obj
 0003:00002afc       ??_C@_0CN@FOEJAHIE@Ignoring?5100rel?5response?5with?5no@ 00541afc     pjsip-ua-i386-win32-vc8-debug:sip_100rel.obj
 0003:00002b38       ??_C@_0EC@BLMHGGJH@Ignoring?5100rel?5response?5because@ 00541b38     pjsip-ua-i386-win32-vc8-debug:sip_100rel.obj
 0003:00002b88       ??_C@_0DL@FCLLNCLO@Ignoring?5100rel?5response?5with?5no@ 00541b88     pjsip-ua-i386-win32-vc8-debug:sip_100rel.obj
 0003:00002bd0       ??_C@_0L@IBEMKGAL@?$CFu?5?$CFu?5?$CF?4?$CKs?$AA@ 00541bd0     pjsip-ua-i386-win32-vc8-debug:sip_100rel.obj
 0003:00002be0       ??_C@_1EI@KJPPCBLJ@?$AA?$CB?$AAd?$AAd?$AA?9?$AA?$DO?$AAu?$AAa?$AAs?$AA_?$AAs?$AAt?$AAa?$AAt?$AAe?$AA?9?$AA?$DO?$AAr?$AAe?$AAt?$AAr?$AAa?$AAn?$AAs?$AAm?$AAi?$AAt?$AA_?$AAt?$AAi?$AAm?$AAe?$AAr@ 00541be0     pjsip-ua-i386-win32-vc8-debug:sip_100rel.obj
 0003:00002c38       ??_C@_1FI@OEODKMCI@?$AAp?$AAj?$AA_?$AAl?$AAi?$AAs?$AAt?$AA_?$AAe?$AAm?$AAp?$AAt?$AAy?$AA?$CI?$AA?$CG?$AAd?$AAd?$AA?9?$AA?$DO?$AAu?$AAa?$AAs?$AA_?$AAs?$AAt?$AAa?$AAt?$AAe?$AA?9?$AA?$DO?$AAt?$AAx@ 00541c38     pjsip-ua-i386-win32-vc8-debug:sip_100rel.obj
 0003:00002ca4       ??_C@_1CG@CMEADMBF@?$AAt?$AAs?$AAx?$AA?5?$AA?$CB?$AA?$DN?$AA?5?$AA?$CI?$AA?$CI?$AAv?$AAo?$AAi?$AAd?$AA?5?$AA?$CK?$AA?$CJ?$AA0?$AA?$CJ?$AA?$AA@ 00541ca4     pjsip-ua-i386-win32-vc8-debug:sip_100rel.obj
 0003:00002cd4       ??_C@_0BB@IEDINMFC@Unexpected?5PRACK?$AA@ 00541cd4     pjsip-ua-i386-win32-vc8-debug:sip_100rel.obj
 0003:00002ce8       ??_C@_0CE@PLNFEICH@PRACK?5ignored?5?9?5no?5pending?5respo@ 00541ce8     pjsip-ua-i386-win32-vc8-debug:sip_100rel.obj
 0003:00002d14       ??_C@_0P@BPOGJPKH@No?5RAck?5header?$AA@ 00541d14     pjsip-ua-i386-win32-vc8-debug:sip_100rel.obj
 0003:00002d28       ??_C@_0CM@DOMMHELC@Rx?5PRACK?5with?5no?5matching?5reliab@ 00541d28     pjsip-ua-i386-win32-vc8-debug:sip_100rel.obj
 0003:00002d5c       ??_C@_0BM@HPALGIGM@Reliable?5response?5timed?5out?$AA@ 00541d5c     pjsip-ua-i386-win32-vc8-debug:sip_100rel.obj
 0003:00002d80       ??_C@_1FK@JBJPEPJI@?$AA?$CB?$AAp?$AAj?$AA_?$AAl?$AAi?$AAs?$AAt?$AA_?$AAe?$AAm?$AAp?$AAt?$AAy?$AA?$CI?$AA?$CG?$AAd?$AAd?$AA?9?$AA?$DO?$AAu?$AAa?$AAs?$AA_?$AAs?$AAt?$AAa?$AAt?$AAe?$AA?9?$AA?$DO?$AAt@ 00541d80     pjsip-ua-i386-win32-vc8-debug:sip_100rel.obj
 0003:00002dec       ??_C@_0BN@GEBHFEMC@Reliable?5response?5?$CFs?5created?$AA@ 00541dec     pjsip-ua-i386-win32-vc8-debug:sip_100rel.obj
 0003:00002e10       ??_C@_1EO@KDLDBGFC@?$AAt?$AAd?$AAa?$AAt?$AAa?$AA?9?$AA?$DO?$AAm?$AAs?$AAg?$AA?9?$AA?$DO?$AAt?$AAy?$AAp?$AAe?$AA?5?$AA?$DN?$AA?$DN?$AA?5?$AAP?$AAJ?$AAS?$AAI?$AAP?$AA_?$AAR?$AAE?$AAS?$AAP?$AAO?$AAN@ 00541e10     pjsip-ua-i386-win32-vc8-debug:sip_100rel.obj
 0003:00002e70       ??_C@_1DA@KBFAOJJC@?$AAc?$AAs?$AAe?$AAq?$AA_?$AAh?$AAd?$AAr?$AA?5?$AA?$CB?$AA?$DN?$AA?5?$AA?$CI?$AA?$CI?$AAv?$AAo?$AAi?$AAd?$AA?5?$AA?$CK?$AA?$CJ?$AA0?$AA?$CJ?$AA?$AA@ 00541e70     pjsip-ua-i386-win32-vc8-debug:sip_100rel.obj
 0003:00002eb0       ??_C@_1FG@CPHIALLB@?$AAc?$AAs?$AAe?$AAq?$AA_?$AAh?$AAd?$AAr?$AA?9?$AA?$DO?$AAm?$AAe?$AAt?$AAh?$AAo?$AAd?$AA?4?$AAi?$AAd?$AA?5?$AA?$DN?$AA?$DN?$AA?5?$AAP?$AAJ?$AAS?$AAI?$AAP?$AA_?$AAI?$AAN?$AAV@ 00541eb0     pjsip-ua-i386-win32-vc8-debug:sip_100rel.obj
 0003:00002f18       ??_C@_0CG@JIMKEDOL@2xx?5response?5will?5be?5sent?5after?5@ 00541f18     pjsip-ua-i386-win32-vc8-debug:sip_100rel.obj
 0003:00002f48       ??_C@_0CE@BEBCMEH@No?5SDP?5sent?5so?5far?0?5sending?52xx?5@ 00541f48     pjsip-ua-i386-win32-vc8-debug:sip_100rel.obj
 0003:00002f78       ??_C@_1EM@CPJEFMIN@?$AAc?$AAs?$AAe?$AAq?$AA_?$AAh?$AAd?$AAr?$AA?9?$AA?$DO?$AAc?$AAs?$AAe?$AAq?$AA?5?$AA?$DN?$AA?$DN?$AA?5?$AAd?$AAd?$AA?9?$AA?$DO?$AAu?$AAa?$AAs?$AA_?$AAs?$AAt?$AAa?$AAt?$AAe?$AA?9@ 00541f78     pjsip-ua-i386-win32-vc8-debug:sip_100rel.obj
 0003:00002fd4       ??_C@_02GMHACPFF@?$CFu?$AA@ 00541fd4     pjsip-ua-i386-win32-vc8-debug:sip_100rel.obj
 0003:00002fd8       ??_C@_0CL@JLPOAJFO@Reliable?5?$CFd?5response?5enqueued?5?$CI?$CF@ 00541fd8     pjsip-ua-i386-win32-vc8-debug:sip_100rel.obj
 0003:00003044       _pjsip_update_method       00542044     pjsip-ua-i386-win32-vc8-debug:sip_timer.obj
 0003:00003060       ??_C@_0BA@HCNJNBAB@Session?9Expires?$AA@ 00542060     pjsip-ua-i386-win32-vc8-debug:sip_timer.obj
 0003:00003074       ??_C@_01FJMABOPO@x?$AA@    00542074     pjsip-ua-i386-win32-vc8-debug:sip_timer.obj
 0003:00003078       ??_C@_06PPBKPPMM@Min?9SE?$AA@ 00542078     pjsip-ua-i386-win32-vc8-debug:sip_timer.obj
 0003:00003080       ??_C@_09NOICKHFM@refresher?$AA@ 00542080     pjsip-ua-i386-win32-vc8-debug:sip_timer.obj
 0003:0000308c       ??_C@_03IFJPOJDO@uac?$AA@  0054208c     pjsip-ua-i386-win32-vc8-debug:sip_timer.obj
 0003:00003090       ??_C@_03MPFNPLGP@uas?$AA@  00542090     pjsip-ua-i386-win32-vc8-debug:sip_timer.obj
 0003:00003098       ??_C@_1MA@GCHMLJMG@?$AAc?$AA?3?$AA?2?$AAu?$AAs?$AAe?$AAr?$AAs?$AA?2?$AA9?$AA2?$AA0?$AA0?$AA?2?$AAd?$AAe?$AAs?$AAk?$AAt?$AAo?$AAp?$AA?2?$AAw?$AAo?$AAr?$AAk?$AA?2?$AAp?$AAj?$AAs?$AAi?$AAp@ 00542098     pjsip-ua-i386-win32-vc8-debug:sip_timer.obj
 0003:00003180       ??_C@_1IE@OMKPDGNF@?$AAp?$AAj?$AAm?$AAe?$AAd?$AAi?$AAa?$AA_?$AAs?$AAd?$AAp?$AA_?$AAn?$AAe?$AAg?$AA_?$AAg?$AAe?$AAt?$AA_?$AAs?$AAt?$AAa?$AAt?$AAe?$AA?$CI?$AAi?$AAn?$AAv?$AA?9?$AA?$DO?$AAn@ 00542180     pjsip-ua-i386-win32-vc8-debug:sip_timer.obj
 0003:00003220       ??_C@_0DF@MFNPLMLE@Refreshing?5session?5after?5?$CFds?5?$CIex@ 00542220     pjsip-ua-i386-win32-vc8-debug:sip_timer.obj
 0003:00003260       ??_C@_0BB@FFFNADMG@refresh?5response?$AA@ 00542260     pjsip-ua-i386-win32-vc8-debug:sip_timer.obj
 0003:00003274       ??_C@_07HPCLKEG@refresh?$AA@ 00542274     pjsip-ua-i386-win32-vc8-debug:sip_timer.obj
 0003:00003280       ??_C@_0FA@NNHOKPAC@No?5session?5?$CFs?5received?5after?5?$CFds@ 00542280     pjsip-ua-i386-win32-vc8-debug:sip_timer.obj
 0003:000032e0       ??_C@_0L@BHFFIHLE@refreshing?$AA@ 005422e0     pjsip-ua-i386-win32-vc8-debug:sip_timer.obj
 0003:000032f0       ??_C@_0M@CIHJDPCM@terminating?$AA@ 005422f0     pjsip-ua-i386-win32-vc8-debug:sip_timer.obj
 0003:00003300       ??_C@_0BK@JNGKHHHE@Error?5in?5?$CFs?5session?5timer?$AA@ 00542300     pjsip-ua-i386-win32-vc8-debug:sip_timer.obj
 0003:00003320       ??_C@_1DM@HPEEEJGB@?$AAi?$AAn?$AAv?$AA?9?$AA?$DO?$AAt?$AAi?$AAm?$AAe?$AAr?$AA?9?$AA?$DO?$AAa?$AAc?$AAt?$AAi?$AAv?$AAe?$AA?5?$AA?$DN?$AA?$DN?$AA?5?$AAP?$AAJ?$AA_?$AAT?$AAR?$AAU?$AAE?$AA?$AA@ 00542320     pjsip-ua-i386-win32-vc8-debug:sip_timer.obj
 0003:00003368       ??_C@_1M@EACLICAA@?$AAe?$AAn?$AAd?$AAp?$AAt?$AA?$AA@ 00542368     pjsip-ua-i386-win32-vc8-debug:sip_timer.obj
 0003:00003378       ??_C@_0CJ@JCEACFK@Failed?5to?5register?5Session?5Timer@ 00542378     pjsip-ua-i386-win32-vc8-debug:sip_timer.obj
 0003:000033b0       ??_C@_1FI@ILAKGBLO@?$AA?$CB?$AA?$CC?$AAF?$AAa?$AAi?$AAl?$AAe?$AAd?$AA?5?$AAt?$AAo?$AA?5?$AAr?$AAe?$AAg?$AAi?$AAs?$AAt?$AAe?$AAr?$AA?5?$AAS?$AAe?$AAs?$AAs?$AAi?$AAo?$AAn?$AA?5?$AAT?$AAi?$AAm@ 005423b0     pjsip-ua-i386-win32-vc8-debug:sip_timer.obj
 0003:0000341c       ??_C@_0M@MJHMIAGK@sip_timer?4c?$AA@ 0054241c     pjsip-ua-i386-win32-vc8-debug:sip_timer.obj
 0003:0000342c       ??_C@_1BO@JAEBLEHN@?$AAi?$AAs?$AA_?$AAi?$AAn?$AAi?$AAt?$AAi?$AAa?$AAl?$AAi?$AAz?$AAe?$AAd?$AA?$AA@ 0054242c     pjsip-ua-i386-win32-vc8-debug:sip_timer.obj
 0003:00003450       ??_C@_1CM@NJFBGLBB@?$AAs?$AAe?$AAt?$AAt?$AAi?$AAn?$AAg?$AA?9?$AA?$DO?$AAm?$AAi?$AAn?$AA_?$AAs?$AAe?$AA?5?$AA?$DO?$AA?$DN?$AA?5?$AA9?$AA0?$AA?$AA@ 00542450     pjsip-ua-i386-win32-vc8-debug:sip_timer.obj
 0003:00003488       ??_C@_1FC@PFINMCFP@?$AAs?$AAe?$AAt?$AAt?$AAi?$AAn?$AAg?$AA?9?$AA?$DO?$AAs?$AAe?$AAs?$AAs?$AA_?$AAe?$AAx?$AAp?$AAi?$AAr?$AAe?$AAs?$AA?5?$AA?$DO?$AA?$DN?$AA?5?$AAs?$AAe?$AAt?$AAt?$AAi?$AAn?$AAg@ 00542488     pjsip-ua-i386-win32-vc8-debug:sip_timer.obj
 0003:000034ec       ??_C@_1BK@FFNMCMJK@?$AAi?$AAn?$AAv?$AA?5?$AA?$CG?$AA?$CG?$AA?5?$AAr?$AAd?$AAa?$AAt?$AAa?$AA?$AA@ 005424ec     pjsip-ua-i386-win32-vc8-debug:sip_timer.obj
 0003:00003510       ??_C@_0EK@JCMLCMLM@Received?5422?5?$CISession?5Interval?5T@ 00542510     pjsip-ua-i386-win32-vc8-debug:sip_timer.obj
 0003:00003568       ??_C@_1BG@OMODNANJ@?$AAi?$AAn?$AAv?$AA?9?$AA?$DO?$AAt?$AAi?$AAm?$AAe?$AAr?$AA?$AA@ 00542568     pjsip-ua-i386-win32-vc8-debug:sip_timer.obj
 0003:00003584       ??_C@_17FMIDHGHF@?$AAv?$AAi?$AAa?$AA?$AA@ 00542584     pjsip-ua-i386-win32-vc8-debug:sip_timer.obj
 0003:00003590       ??_C@_0IG@FLJLCDDH@Peer?5responds?5with?5bad?5Session?9E@ 00542590     pjsip-ua-i386-win32-vc8-debug:sip_timer.obj
 0003:00003630       ??_C@_1BK@EPMHPBJG@?$AAi?$AAn?$AAv?$AA?5?$AA?$CG?$AA?$CG?$AA?5?$AAe?$AAv?$AAe?$AAn?$AAt?$AA?$AA@ 00542630     pjsip-ua-i386-win32-vc8-debug:sip_timer.obj
 0003:00003650       ??_C@_0EI@EKPLKHLI@Receive?5error?5?$CFd?5for?5refresh?5req@ 00542650     pjsip-ua-i386-win32-vc8-debug:sip_timer.obj
 0003:000036a8       ??_C@_1DO@INEDJOPJ@?$AAm?$AAs?$AAg?$AA?9?$AA?$DO?$AAt?$AAy?$AAp?$AAe?$AA?5?$AA?$DN?$AA?$DN?$AA?5?$AAP?$AAJ?$AAS?$AAI?$AAP?$AA_?$AAR?$AAE?$AAQ?$AAU?$AAE?$AAS?$AAT?$AA_?$AAM?$AAS?$AAG?$AA?$AA@ 005426a8     pjsip-ua-i386-win32-vc8-debug:sip_timer.obj
 0003:000036f4       ??_C@_1BA@OFFBENJP@?$AAr?$AAe?$AAq?$AA_?$AAh?$AAd?$AAr?$AA?$AA@ 005426f4     pjsip-ua-i386-win32-vc8-debug:sip_timer.obj
 0003:00003708       _pjsip_invite_method       00542708     pjsip-core-i386-win32-vc8-debug:sip_msg.obj
 0003:00003714       _pjsip_cancel_method       00542714     pjsip-core-i386-win32-vc8-debug:sip_msg.obj
 0003:00003720       _pjsip_ack_method          00542720     pjsip-core-i386-win32-vc8-debug:sip_msg.obj
 0003:0000372c       _pjsip_bye_method          0054272c     pjsip-core-i386-win32-vc8-debug:sip_msg.obj
 0003:00003738       _pjsip_register_method     00542738     pjsip-core-i386-win32-vc8-debug:sip_msg.obj
 0003:00003744       _pjsip_options_method      00542744     pjsip-core-i386-win32-vc8-debug:sip_msg.obj
 0003:00003750       _pjsip_hdr_names           00542750     pjsip-core-i386-win32-vc8-debug:sip_msg.obj
 0003:000039e8       ??_C@_08EINEADGI@REGISTER?$AA@ 005429e8     pjsip-core-i386-win32-vc8-debug:sip_msg.obj
 0003:000039f4       ??_C@_07KDKMIPIP@OPTIONS?$AA@ 005429f4     pjsip-core-i386-win32-vc8-debug:sip_msg.obj
 0003:00003a00       ??_C@_06MDEHPNLG@Accept?$AA@ 00542a00     pjsip-core-i386-win32-vc8-debug:sip_msg.obj
 0003:00003a08       ??_C@_0BA@KDJCHKHJ@Accept?9Encoding?$AA@ 00542a08     pjsip-core-i386-win32-vc8-debug:sip_msg.obj
 0003:00003a1c       ??_C@_0BA@POEGPCPD@Accept?9Language?$AA@ 00542a1c     pjsip-core-i386-win32-vc8-debug:sip_msg.obj
 0003:00003a30       ??_C@_0L@DDNEKGOG@Alert?9Info?$AA@ 00542a30     pjsip-core-i386-win32-vc8-debug:sip_msg.obj
 0003:00003a40       ??_C@_05IEPODGEO@Allow?$AA@ 00542a40     pjsip-core-i386-win32-vc8-debug:sip_msg.obj
 0003:00003a48       ??_C@_0BE@KPJFGFDH@Authentication?9Info?$AA@ 00542a48     pjsip-core-i386-win32-vc8-debug:sip_msg.obj
 0003:00003a60       ??_C@_0O@NAFGPKMI@Authorization?$AA@ 00542a60     pjsip-core-i386-win32-vc8-debug:sip_msg.obj
 0003:00003a70       ??_C@_07IKPMLMAJ@Call?9ID?$AA@ 00542a70     pjsip-core-i386-win32-vc8-debug:sip_msg.obj
 0003:00003a7c       ??_C@_01KBJDNOO@i?$AA@     00542a7c     pjsip-core-i386-win32-vc8-debug:sip_msg.obj
 0003:00003a80       ??_C@_09HCKFEBLC@Call?9Info?$AA@ 00542a80     pjsip-core-i386-win32-vc8-debug:sip_msg.obj
 0003:00003a8c       ??_C@_01GOHFPIOK@m?$AA@    00542a8c     pjsip-core-i386-win32-vc8-debug:sip_msg.obj
 0003:00003a90       ??_C@_0BE@LMOOGHBG@Content?9Disposition?$AA@ 00542a90     pjsip-core-i386-win32-vc8-debug:sip_msg.obj
 0003:00003aa8       ??_C@_0BB@KFPPKJHF@Content?9Encoding?$AA@ 00542aa8     pjsip-core-i386-win32-vc8-debug:sip_msg.obj
 0003:00003abc       ??_C@_01KGKMHCOC@e?$AA@    00542abc     pjsip-core-i386-win32-vc8-debug:sip_msg.obj
 0003:00003ac0       ??_C@_0BB@PICLCBPP@Content?9Language?$AA@ 00542ac0     pjsip-core-i386-win32-vc8-debug:sip_msg.obj
 0003:00003ad4       ??_C@_0P@HOJGPHBA@Content?9Length?$AA@ 00542ad4     pjsip-core-i386-win32-vc8-debug:sip_msg.obj
 0003:00003ae8       ??_C@_01HHGOMJKL@l?$AA@    00542ae8     pjsip-core-i386-win32-vc8-debug:sip_msg.obj
 0003:00003aec       ??_C@_0N@LAFFMKKA@Content?9Type?$AA@ 00542aec     pjsip-core-i386-win32-vc8-debug:sip_msg.obj
 0003:00003afc       ??_C@_01PAPGNFGE@c?$AA@    00542afc     pjsip-core-i386-win32-vc8-debug:sip_msg.obj
 0003:00003b00       ??_C@_04IHAOMLEL@CSeq?$AA@ 00542b00     pjsip-core-i386-win32-vc8-debug:sip_msg.obj
 0003:00003b08       ??_C@_04FMEGDJGD@Date?$AA@ 00542b08     pjsip-core-i386-win32-vc8-debug:sip_msg.obj
 0003:00003b10       ??_C@_0L@PGKFFKEH@Error?9Info?$AA@ 00542b10     pjsip-core-i386-win32-vc8-debug:sip_msg.obj
 0003:00003b20       ??_C@_07DABPCBEH@Expires?$AA@ 00542b20     pjsip-core-i386-win32-vc8-debug:sip_msg.obj
 0003:00003b2c       ??_C@_04LMIAFEOL@From?$AA@ 00542b2c     pjsip-core-i386-win32-vc8-debug:sip_msg.obj
 0003:00003b34       ??_C@_01INIBCBCB@f?$AA@    00542b34     pjsip-core-i386-win32-vc8-debug:sip_msg.obj
 0003:00003b38       ??_C@_0M@OJFKFNND@In?9Reply?9To?$AA@ 00542b38     pjsip-core-i386-win32-vc8-debug:sip_msg.obj
 0003:00003b48       ??_C@_0N@KAKEBINL@Max?9Forwards?$AA@ 00542b48     pjsip-core-i386-win32-vc8-debug:sip_msg.obj
 0003:00003b58       ??_C@_0N@PNJFOFFK@MIME?9Version?$AA@ 00542b58     pjsip-core-i386-win32-vc8-debug:sip_msg.obj
 0003:00003b68       ??_C@_0M@BHCNHHNF@Min?9Expires?$AA@ 00542b68     pjsip-core-i386-win32-vc8-debug:sip_msg.obj
 0003:00003b78       ??_C@_0N@MHPBIIPD@Organization?$AA@ 00542b78     pjsip-core-i386-win32-vc8-debug:sip_msg.obj
 0003:00003b88       ??_C@_08KGEIBGG@Priority?$AA@ 00542b88     pjsip-core-i386-win32-vc8-debug:sip_msg.obj
 0003:00003b94       ??_C@_0BD@GKJFGNG@Proxy?9Authenticate?$AA@ 00542b94     pjsip-core-i386-win32-vc8-debug:sip_msg.obj
 0003:00003bac       ??_C@_0BE@DCLKKIPG@Proxy?9Authorization?$AA@ 00542bac     pjsip-core-i386-win32-vc8-debug:sip_msg.obj
 0003:00003bc4       ??_C@_0O@ICDCLCHE@Proxy?9Require?$AA@ 00542bc4     pjsip-core-i386-win32-vc8-debug:sip_msg.obj
 0003:00003bd4       ??_C@_0N@KJFPNEHF@Record?9Route?$AA@ 00542bd4     pjsip-core-i386-win32-vc8-debug:sip_msg.obj
 0003:00003be4       ??_C@_08GBENDHCN@Reply?9To?$AA@ 00542be4     pjsip-core-i386-win32-vc8-debug:sip_msg.obj
 0003:00003bf0       ??_C@_07KMMNJNOB@Require?$AA@ 00542bf0     pjsip-core-i386-win32-vc8-debug:sip_msg.obj
 0003:00003bfc       ??_C@_0M@CMFFKFHP@Retry?9After?$AA@ 00542bfc     pjsip-core-i386-win32-vc8-debug:sip_msg.obj
 0003:00003c0c       ??_C@_05DIKBIPM@Route?$AA@ 00542c0c     pjsip-core-i386-win32-vc8-debug:sip_msg.obj
 0003:00003c14       ??_C@_06LGMEBDBC@Server?$AA@ 00542c14     pjsip-core-i386-win32-vc8-debug:sip_msg.obj
 0003:00003c1c       ??_C@_07GEKACEDI@Subject?$AA@ 00542c1c     pjsip-core-i386-win32-vc8-debug:sip_msg.obj
 0003:00003c28       ??_C@_01LKDEMHDF@s?$AA@    00542c28     pjsip-core-i386-win32-vc8-debug:sip_msg.obj
 0003:00003c2c       ??_C@_09GFDKPDGA@Supported?$AA@ 00542c2c     pjsip-core-i386-win32-vc8-debug:sip_msg.obj
 0003:00003c38       ??_C@_01DICPFPGM@k?$AA@    00542c38     pjsip-core-i386-win32-vc8-debug:sip_msg.obj
 0003:00003c3c       ??_C@_09KDGENIOP@Timestamp?$AA@ 00542c3c     pjsip-core-i386-win32-vc8-debug:sip_msg.obj
 0003:00003c48       ??_C@_02IJGONHOJ@To?$AA@   00542c48     pjsip-core-i386-win32-vc8-debug:sip_msg.obj
 0003:00003c4c       ??_C@_01PFHFFBPC@t?$AA@    00542c4c     pjsip-core-i386-win32-vc8-debug:sip_msg.obj
 0003:00003c50       ??_C@_0M@BEECMOIL@Unsupported?$AA@ 00542c50     pjsip-core-i386-win32-vc8-debug:sip_msg.obj
 0003:00003c60       ??_C@_0L@DMPACEMJ@User?9Agent?$AA@ 00542c60     pjsip-core-i386-win32-vc8-debug:sip_msg.obj
 0003:00003c70       ??_C@_03LDNNKNE@Via?$AA@   00542c70     pjsip-core-i386-win32-vc8-debug:sip_msg.obj
 0003:00003c74       ??_C@_01MHEDDDHA@v?$AA@    00542c74     pjsip-core-i386-win32-vc8-debug:sip_msg.obj
 0003:00003c78       ??_C@_07KGMMFLDN@Warning?$AA@ 00542c78     pjsip-core-i386-win32-vc8-debug:sip_msg.obj
 0003:00003c84       ??_C@_0BB@KEDJJIFI@WWW?9Authenticate?$AA@ 00542c84     pjsip-core-i386-win32-vc8-debug:sip_msg.obj
 0003:00003c98       ??_C@_0BA@MKEDBJEA@_Unknown?9Header?$AA@ 00542c98     pjsip-core-i386-win32-vc8-debug:sip_msg.obj
 0003:00003cac       ??_C@_0BH@JEAOBKFE@Default?5status?5message?$AA@ 00542cac     pjsip-core-i386-win32-vc8-debug:sip_msg.obj
 0003:00003cc8       ??_C@_06CJPKGAJC@Trying?$AA@ 00542cc8     pjsip-core-i386-win32-vc8-debug:sip_msg.obj
 0003:00003cd0       ??_C@_07KEMHLLKP@Ringing?$AA@ 00542cd0     pjsip-core-i386-win32-vc8-debug:sip_msg.obj
 0003:00003cdc       ??_C@_0BI@HBFDMPGA@Call?5Is?5Being?5Forwarded?$AA@ 00542cdc     pjsip-core-i386-win32-vc8-debug:sip_msg.obj
 0003:00003cf8       ??_C@_06POGAFBAL@Queued?$AA@ 00542cf8     pjsip-core-i386-win32-vc8-debug:sip_msg.obj
 0003:00003d00       ??_C@_0BB@FKJCNOGD@Session?5Progress?$AA@ 00542d00     pjsip-core-i386-win32-vc8-debug:sip_msg.obj
 0003:00003d14       ??_C@_02GIPFHKNO@OK?$AA@   00542d14     pjsip-core-i386-win32-vc8-debug:sip_msg.obj
 0003:00003d18       ??_C@_08DOBOODLA@Accepted?$AA@ 00542d18     pjsip-core-i386-win32-vc8-debug:sip_msg.obj
 0003:00003d24       ??_C@_0BB@HLFEHKPE@Multiple?5Choices?$AA@ 00542d24     pjsip-core-i386-win32-vc8-debug:sip_msg.obj
 0003:00003d38       ??_C@_0BC@BPBCNFPI@Moved?5Permanently?$AA@ 00542d38     pjsip-core-i386-win32-vc8-debug:sip_msg.obj
 0003:00003d50       ??_C@_0BC@LODIMCJL@Moved?5Temporarily?$AA@ 00542d50     pjsip-core-i386-win32-vc8-debug:sip_msg.obj
 0003:00003d68       ??_C@_09JFBGBFIM@Use?5Proxy?$AA@ 00542d68     pjsip-core-i386-win32-vc8-debug:sip_msg.obj
 0003:00003d74       ??_C@_0BE@MCFGMBHK@Alternative?5Service?$AA@ 00542d74     pjsip-core-i386-win32-vc8-debug:sip_msg.obj
 0003:00003d8c       ??_C@_0M@LNAIDEEG@Bad?5Request?$AA@ 00542d8c     pjsip-core-i386-win32-vc8-debug:sip_msg.obj
 0003:00003d9c       ??_C@_0N@OOAPMOJA@Unauthorized?$AA@ 00542d9c     pjsip-core-i386-win32-vc8-debug:sip_msg.obj
 0003:00003dac       ??_C@_0BB@LMPIHCBH@Payment?5Required?$AA@ 00542dac     pjsip-core-i386-win32-vc8-debug:sip_msg.obj
 0003:00003dc0       ??_C@_09LMDIMFJD@Forbidden?$AA@ 00542dc0     pjsip-core-i386-win32-vc8-debug:sip_msg.obj
 0003:00003dcc       ??_C@_09CFCBFJND@Not?5Found?$AA@ 00542dcc     pjsip-core-i386-win32-vc8-debug:sip_msg.obj
 0003:00003dd8       ??_C@_0BD@CCIPIALO@Method?5Not?5Allowed?$AA@ 00542dd8     pjsip-core-i386-win32-vc8-debug:sip_msg.obj
 0003:00003df0       ??_C@_0P@HHIDFAOI@Not?5Acceptable?$AA@ 00542df0     pjsip-core-i386-win32-vc8-debug:sip_msg.obj
 0003:00003e04       ??_C@_0BO@ONPAAOGI@Proxy?5Authentication?5Required?$AA@ 00542e04     pjsip-core-i386-win32-vc8-debug:sip_msg.obj
 0003:00003e28       ??_C@_0BA@HALFGGF@Request?5Timeout?$AA@ 00542e28     pjsip-core-i386-win32-vc8-debug:sip_msg.obj
 0003:00003e3c       ??_C@_04OKIIBCCG@Gone?$AA@ 00542e3c     pjsip-core-i386-win32-vc8-debug:sip_msg.obj
 0003:00003e44       ??_C@_0BJ@MMEIEOIG@Request?5Entity?5Too?5Large?$AA@ 00542e44     pjsip-core-i386-win32-vc8-debug:sip_msg.obj
 0003:00003e64       ??_C@_0BF@LPICFNOC@Request?5URI?5Too?5Long?$AA@ 00542e64     pjsip-core-i386-win32-vc8-debug:sip_msg.obj
 0003:00003e80       ??_C@_0BH@HLJJIAEN@Unsupported?5Media?5Type?$AA@ 00542e80     pjsip-core-i386-win32-vc8-debug:sip_msg.obj
 0003:00003e9c       ??_C@_0BH@HMDPMBIK@Unsupported?5URI?5Scheme?$AA@ 00542e9c     pjsip-core-i386-win32-vc8-debug:sip_msg.obj
 0003:00003eb8       ??_C@_0O@EABFLJJG@Bad?5Extension?$AA@ 00542eb8     pjsip-core-i386-win32-vc8-debug:sip_msg.obj
 0003:00003ec8       ??_C@_0BD@LEDCNIMD@Extension?5Required?$AA@ 00542ec8     pjsip-core-i386-win32-vc8-debug:sip_msg.obj
 0003:00003ee0       ??_C@_0BI@DEDCGMIH@Session?5Timer?5Too?5Small?$AA@ 00542ee0     pjsip-core-i386-win32-vc8-debug:sip_msg.obj
 0003:00003efc       ??_C@_0BD@NHGMJMLN@Interval?5Too?5Brief?$AA@ 00542efc     pjsip-core-i386-win32-vc8-debug:sip_msg.obj
 0003:00003f14       ??_C@_0BI@JBJKOKGE@Temporarily?5Unavailable?$AA@ 00542f14     pjsip-core-i386-win32-vc8-debug:sip_msg.obj
 0003:00003f30       ??_C@_0CA@DPKMEAMP@Call?1Transaction?5Does?5Not?5Exist?$AA@ 00542f30     pjsip-core-i386-win32-vc8-debug:sip_msg.obj
 0003:00003f58       ??_C@_0O@KJBLEGOO@Loop?5Detected?$AA@ 00542f58     pjsip-core-i386-win32-vc8-debug:sip_msg.obj
 0003:00003f68       ??_C@_0O@CFHODMHD@Too?5Many?5Hops?$AA@ 00542f68     pjsip-core-i386-win32-vc8-debug:sip_msg.obj
 0003:00003f78       ??_C@_0BE@DLCDBHJG@Address?5Incompleted?$AA@ 00542f78     pjsip-core-i386-win32-vc8-debug:sip_msg.obj
 0003:00003f90       ??_C@_09FNGPAEJC@Ambiguous?$AA@ 00542f90     pjsip-core-i386-win32-vc8-debug:sip_msg.obj
 0003:00003f9c       ??_C@_09ELAJPHFG@Busy?5Here?$AA@ 00542f9c     pjsip-core-i386-win32-vc8-debug:sip_msg.obj
 0003:00003fa8       ??_C@_0BD@IGJOBDDO@Request?5Terminated?$AA@ 00542fa8     pjsip-core-i386-win32-vc8-debug:sip_msg.obj
 0003:00003fc0       ??_C@_0BE@HMIMPLAH@Not?5Acceptable?5Here?$AA@ 00542fc0     pjsip-core-i386-win32-vc8-debug:sip_msg.obj
 0003:00003fd8       ??_C@_09HKNLJBHH@Bad?5Event?$AA@ 00542fd8     pjsip-core-i386-win32-vc8-debug:sip_msg.obj
 0003:00003fe4       ??_C@_0BA@DKJEBJFB@Request?5Updated?$AA@ 00542fe4     pjsip-core-i386-win32-vc8-debug:sip_msg.obj
 0003:00003ff8       ??_C@_0BA@KLOCDLCK@Request?5Pending?$AA@ 00542ff8     pjsip-core-i386-win32-vc8-debug:sip_msg.obj
 0003:0000400c       ??_C@_0P@EIPIHDNL@Undecipherable?$AA@ 0054300c     pjsip-core-i386-win32-vc8-debug:sip_msg.obj
 0003:00004020       ??_C@_0BG@NJGANGCC@Internal?5Server?5Error?$AA@ 00543020     pjsip-core-i386-win32-vc8-debug:sip_msg.obj
 0003:0000403c       ??_C@_0BA@JGKGKAME@Not?5Implemented?$AA@ 0054303c     pjsip-core-i386-win32-vc8-debug:sip_msg.obj
 0003:00004050       ??_C@_0M@BNCNLPGM@Bad?5Gateway?$AA@ 00543050     pjsip-core-i386-win32-vc8-debug:sip_msg.obj
 0003:00004060       ??_C@_0BE@NGHLFKBN@Service?5Unavailable?$AA@ 00543060     pjsip-core-i386-win32-vc8-debug:sip_msg.obj
 0003:00004078       ??_C@_0P@KPHBHCBP@Server?5Timeout?$AA@ 00543078     pjsip-core-i386-win32-vc8-debug:sip_msg.obj
 0003:0000408c       ??_C@_0BG@DGJHJFEF@Version?5Not?5Supported?$AA@ 0054308c     pjsip-core-i386-win32-vc8-debug:sip_msg.obj
 0003:000040a8       ??_C@_0BC@FOIGPIGF@Message?5Too?5Large?$AA@ 005430a8     pjsip-core-i386-win32-vc8-debug:sip_msg.obj
 0003:000040c0       ??_C@_0BF@PJIFKKPF@Precondition?5Failure?$AA@ 005430c0     pjsip-core-i386-win32-vc8-debug:sip_msg.obj
 0003:000040dc       ??_C@_0BA@BNEEJKIK@Busy?5Everywhere?$AA@ 005430dc     pjsip-core-i386-win32-vc8-debug:sip_msg.obj
 0003:000040f0       ??_C@_07CAMLKJDK@Decline?$AA@ 005430f0     pjsip-core-i386-win32-vc8-debug:sip_msg.obj
 0003:000040fc       ??_C@_0BI@JILKKJAA@Does?5Not?5Exist?5Anywhere?$AA@ 005430fc     pjsip-core-i386-win32-vc8-debug:sip_msg.obj
 0003:00004118       ??_C@_0CE@LJDLADFN@No?5response?5from?5destination?5ser@ 00543118     pjsip-core-i386-win32-vc8-debug:sip_msg.obj
 0003:00004144       ??_C@_0CF@KIECMFPG@Unable?5to?5resolve?5destination?5se@ 00543144     pjsip-core-i386-win32-vc8-debug:sip_msg.obj
 0003:00004170       ??_C@_0CM@KOHFAKJI@Error?5sending?5message?5to?5destina@ 00543170     pjsip-core-i386-win32-vc8-debug:sip_msg.obj
 0003:000041a8       ??_C@_1LG@LPGIHILH@?$AAc?$AA?3?$AA?2?$AAu?$AAs?$AAe?$AAr?$AAs?$AA?2?$AA9?$AA2?$AA0?$AA0?$AA?2?$AAd?$AAe?$AAs?$AAk?$AAt?$AAo?$AAp?$AA?2?$AAw?$AAo?$AAr?$AAk?$AA?2?$AAp?$AAj?$AAs?$AAi?$AAp@ 005431a8     pjsip-core-i386-win32-vc8-debug:sip_msg.obj
 0003:00004284       ??_C@_1DA@EAHANDFO@?$AAm?$AAe?$AA?5?$AA?$DM?$AA?5?$AAP?$AAJ?$AAS?$AAI?$AAP?$AA_?$AAO?$AAT?$AAH?$AAE?$AAR?$AA_?$AAM?$AAE?$AAT?$AAH?$AAO?$AAD?$AA?$AA@ 00543284     pjsip-core-i386-win32-vc8-debug:sip_msg.obj
 0003:000042c0       ??_C@_0BB@NFGDEPJM@Content?9Length?3?5?$AA@ 005432c0     pjsip-core-i386-win32-vc8-debug:sip_msg.obj
 0003:000042d4       ??_C@_03BDDDCMLM@l?3?5?$AA@ 005432d4     pjsip-core-i386-win32-vc8-debug:sip_msg.obj
 0003:000042d8       ??_C@_0L@GLHKEHNL@?5SIP?12?40?$AN?6?$AA@ 005432d8     pjsip-core-i386-win32-vc8-debug:sip_msg.obj
 0003:000042e8       ??_C@_08JLDHODKJ@SIP?12?40?5?$AA@ 005432e8     pjsip-core-i386-win32-vc8-debug:sip_msg.obj
 0003:000042f4       ??_C@_0P@GJMOGDPG@Content?9Type?3?5?$AA@ 005432f4     pjsip-core-i386-win32-vc8-debug:sip_msg.obj
 0003:00004308       ??_C@_03ELFADMOK@c?3?5?$AA@ 00543308     pjsip-core-i386-win32-vc8-debug:sip_msg.obj
 0003:0000430c       ??_C@_1BG@OBOCDDDP@?$AAm?$AAt?$AA1?$AA?5?$AA?$CG?$AA?$CG?$AA?5?$AAm?$AAt?$AA2?$AA?$AA@ 0054330c     pjsip-core-i386-win32-vc8-debug:sip_msg.obj
 0003:00004328       ??_C@_1CG@CIFOCGJH@?$AAp?$AAo?$AAo?$AAl?$AA?5?$AA?$CG?$AA?$CG?$AA?5?$AAd?$AAs?$AAt?$AA?5?$AA?$CG?$AA?$CG?$AA?5?$AAs?$AAr?$AAc?$AA?$AA@ 00543328     pjsip-core-i386-win32-vc8-debug:sip_msg.obj
 0003:00004358       ??_C@_02KEGNLNML@?0?5?$AA@ 00543358     pjsip-core-i386-win32-vc8-debug:sip_msg.obj
 0003:0000435c       ??_C@_03MGEKBFJK@?$DLq?$DN?$AA@ 0054335c     pjsip-core-i386-win32-vc8-debug:sip_msg.obj
 0003:00004360       ??_C@_09JFABAEBI@?$DLexpires?$DN?$AA@ 00543360     pjsip-core-i386-win32-vc8-debug:sip_msg.obj
 0003:0000436c       ??_C@_05IIDIOKEA@?$DLtag?$DN?$AA@ 0054336c     pjsip-core-i386-win32-vc8-debug:sip_msg.obj
 0003:00004374       ??_C@_04IBOFHAPJ@hide?$AA@ 00543374     pjsip-core-i386-win32-vc8-debug:sip_msg.obj
 0003:0000437c       ??_C@_1CO@JIKPCADP@?$AAs?$AAi?$AAp?$AA_?$AAu?$AAr?$AAi?$AA?9?$AA?$DO?$AAl?$AAr?$AA_?$AAp?$AAa?$AAr?$AAa?$AAm?$AA?5?$AA?$CB?$AA?$DN?$AA?5?$AA0?$AA?$AA@ 0054337c     pjsip-core-i386-win32-vc8-debug:sip_msg.obj
 0003:000043b4       ??_C@_08BMKPPPGG@SIP?12?40?1?$AA@ 005433b4     pjsip-core-i386-win32-vc8-debug:sip_msg.obj
 0003:000043be       ??_C@_00CNPNBAHC@?$AA@     005433be     pjsip-core-i386-win32-vc8-debug:sip_msg.obj
 0003:000043c0       ??_C@_05ODKKKCAM@?$DLttl?$DN?$AA@ 005433c0     pjsip-core-i386-win32-vc8-debug:sip_msg.obj
 0003:000043c8       ??_C@_06IKMHKLF@?$DLrport?$AA@ 005433c8     pjsip-core-i386-win32-vc8-debug:sip_msg.obj
 0003:000043d0       ??_C@_07IONINLDO@?$DLmaddr?$DN?$AA@ 005433d0     pjsip-core-i386-win32-vc8-debug:sip_msg.obj
 0003:000043dc       ??_C@_0L@IMDGLAJB@?$DLreceived?$DN?$AA@ 005433dc     pjsip-core-i386-win32-vc8-debug:sip_msg.obj
 0003:000043ec       ??_C@_08LMLOEMIC@?$DLbranch?$DN?$AA@ 005433ec     pjsip-core-i386-win32-vc8-debug:sip_msg.obj
 0003:000043f8       ??_C@_0P@DNLLBOJA@?$CFu?5?$CF?4?$CKs?5?$CC?$CF?4?$CKs?$CC?$AA@ 005433f8     pjsip-core-i386-win32-vc8-debug:sip_msg.obj
 0003:00004410       ??_C@_1EE@EHJGOGAJ@?$AAs?$AAr?$AAc?$AA_?$AAb?$AAo?$AAd?$AAy?$AA?9?$AA?$DO?$AAc?$AAl?$AAo?$AAn?$AAe?$AA_?$AAd?$AAa?$AAt?$AAa?$AA?$CB?$AA?$DN?$AA?$CI?$AA?$CI?$AAv?$AAo?$AAi?$AAd?$AA?5?$AA?$CK?$AA?$CJ?$AA0@ 00543410     pjsip-core-i386-win32-vc8-debug:sip_msg.obj
 0003:00004464       ??_C@_1BC@LNNMKCAC@?$AAn?$AAe?$AAw?$AA_?$AAb?$AAo?$AAd?$AAy?$AA?$AA@ 00543464     pjsip-core-i386-win32-vc8-debug:sip_msg.obj
 0003:00004480       ??_C@_1EA@CGNCHEIG@?$AAp?$AAo?$AAo?$AAl?$AA?5?$AA?$CG?$AA?$CG?$AA?5?$AAt?$AAy?$AAp?$AAe?$AA?5?$AA?$CG?$AA?$CG?$AA?5?$AAs?$AAu?$AAb?$AAt?$AAy?$AAp?$AAe?$AA?5?$AA?$CG?$AA?$CG?$AA?5?$AAt?$AAe?$AAx?$AAt?$AA?$AA@ 00543480     pjsip-core-i386-win32-vc8-debug:sip_msg.obj
 0003:000044cc       ??_C@_0O@EMLDOJH@mod?9msg?9print?$AA@ 005434cc     pjsip-core-i386-win32-vc8-debug:sip_transport.obj
 0003:000044dc       ??_C@_0M@NNPCGPMF@Unspecified?$AA@ 005434dc     pjsip-core-i386-win32-vc8-debug:sip_transport.obj
 0003:000044ec       ??_C@_03OPEAKHDL@UDP?$AA@  005434ec     pjsip-core-i386-win32-vc8-debug:sip_transport.obj
 0003:000044f0       ??_C@_0O@KHAHCMDL@UDP?5transport?$AA@ 005434f0     pjsip-core-i386-win32-vc8-debug:sip_transport.obj
 0003:00004500       ??_C@_03FCLDNGNL@TCP?$AA@  00543500     pjsip-core-i386-win32-vc8-debug:sip_transport.obj
 0003:00004504       ??_C@_0O@EHHLMLBF@TCP?5transport?$AA@ 00543504     pjsip-core-i386-win32-vc8-debug:sip_transport.obj
 0003:00004514       ??_C@_03HCMCMCCF@TLS?$AA@  00543514     pjsip-core-i386-win32-vc8-debug:sip_transport.obj
 0003:00004518       ??_C@_0O@BHJFMMNA@TLS?5transport?$AA@ 00543518     pjsip-core-i386-win32-vc8-debug:sip_transport.obj
 0003:00004528       ??_C@_04BOMBJBBC@SCTP?$AA@ 00543528     pjsip-core-i386-win32-vc8-debug:sip_transport.obj
 0003:00004530       ??_C@_0P@BEPMAJFA@SCTP?5transport?$AA@ 00543530     pjsip-core-i386-win32-vc8-debug:sip_transport.obj
 0003:00004544       ??_C@_04KGNEGCGI@LOOP?$AA@ 00543544     pjsip-core-i386-win32-vc8-debug:sip_transport.obj
 0003:0000454c       ??_C@_0BD@IJLEDLFM@Loopback?5transport?$AA@ 0054354c     pjsip-core-i386-win32-vc8-debug:sip_transport.obj
 0003:00004564       ??_C@_0L@PGGNCDOP@LOOP?9DGRAM?$AA@ 00543564     pjsip-core-i386-win32-vc8-debug:sip_transport.obj
 0003:00004574       ??_C@_0BM@JFHDLEFO@Loopback?5datagram?5transport?$AA@ 00543574     pjsip-core-i386-win32-vc8-debug:sip_transport.obj
 0003:00004598       ??_C@_0BD@LIBJHFGK@UDP?5IPv6?5transport?$AA@ 00543598     pjsip-core-i386-win32-vc8-debug:sip_transport.obj
 0003:000045b0       ??_C@_0BD@IONFPPFG@TCP?5IPv6?5transport?$AA@ 005435b0     pjsip-core-i386-win32-vc8-debug:sip_transport.obj
 0003:000045c8       ??_C@_0BD@CLDAAALK@TLS?5IPv6?5transport?$AA@ 005435c8     pjsip-core-i386-win32-vc8-debug:sip_transport.obj
 0003:000045e0       ??_C@_0BI@BEOAFBKO@Invalid?5transport?5type?$CB?$AA@ 005435e0     pjsip-core-i386-win32-vc8-debug:sip_transport.obj
 0003:00004600       ??_C@_1MC@IMKCGPAC@?$AAc?$AA?3?$AA?2?$AAu?$AAs?$AAe?$AAr?$AAs?$AA?2?$AA9?$AA2?$AA0?$AA0?$AA?2?$AAd?$AAe?$AAs?$AAk?$AAt?$AAo?$AAp?$AA?2?$AAw?$AAo?$AAr?$AAk?$AA?2?$AAp?$AAj?$AAs?$AAi?$AAp@ 00543600     pjsip-core-i386-win32-vc8-debug:sip_transport.obj
 0003:000046e8       ??_C@_1DG@DHAGKGN@?$AA?$CB?$AA?$CC?$AAI?$AAn?$AAv?$AAa?$AAl?$AAi?$AAd?$AA?5?$AAt?$AAr?$AAa?$AAn?$AAs?$AAp?$AAo?$AAr?$AAt?$AA?5?$AAt?$AAy?$AAp?$AAe?$AA?$CB?$AA?$CC?$AA?$AA@ 005436e8     pjsip-core-i386-win32-vc8-debug:sip_transport.obj
 0003:00004728       ??_C@_1DO@EBDIFFC@?$AAt?$AAp?$AA_?$AAf?$AAl?$AAa?$AAg?$AA?5?$AA?$CG?$AA?$CG?$AA?5?$AAt?$AAp?$AA_?$AAn?$AAa?$AAm?$AAe?$AA?5?$AA?$CG?$AA?$CG?$AA?5?$AAd?$AAe?$AAf?$AA_?$AAp?$AAo?$AAr?$AAt?$AA?$AA@ 00543728     pjsip-core-i386-win32-vc8-debug:sip_transport.obj
 0003:00004778       ??_C@_1LO@NBPJFAFK@?$AAs?$AAt?$AAr?$AAl?$AAe?$AAn?$AA?$CI?$AAt?$AAp?$AA_?$AAn?$AAa?$AAm?$AAe?$AA?$CJ?$AA?5?$AA?$DM?$AA?5?$AA?$CI?$AAs?$AAi?$AAz?$AAe?$AAo?$AAf?$AA?$CI?$AAt?$AAr?$AAa?$AAn?$AAs?$AAp@ 00543778     pjsip-core-i386-win32-vc8-debug:sip_transport.obj
 0003:0000485c       ??_C@_0BH@GGHDBDC@Invalid?5transport?5name?$AA@ 0054385c     pjsip-core-i386-win32-vc8-debug:sip_transport.obj
 0003:00004878       ??_C@_1DE@EFHDJIP@?$AA?$CB?$AA?$CC?$AAI?$AAn?$AAv?$AAa?$AAl?$AAi?$AAd?$AA?5?$AAt?$AAr?$AAa?$AAn?$AAs?$AAp?$AAo?$AAr?$AAt?$AA?5?$AAn?$AAa?$AAm?$AAe?$AA?$CC?$AA?$AA@ 00543878     pjsip-core-i386-win32-vc8-debug:sip_transport.obj
 0003:000048b8       ??_C@_0BH@KNGEPBEC@Invalid?5transport?5type?$AA@ 005438b8     pjsip-core-i386-win32-vc8-debug:sip_transport.obj
 0003:000048d4       ??_C@_1DE@DBLPNJPE@?$AA?$CB?$AA?$CC?$AAI?$AAn?$AAv?$AAa?$AAl?$AAi?$AAd?$AA?5?$AAt?$AAr?$AAa?$AAn?$AAs?$AAp?$AAo?$AAr?$AAt?$AA?5?$AAt?$AAy?$AAp?$AAe?$AA?$CC?$AA?$AA@ 005438d4     pjsip-core-i386-win32-vc8-debug:sip_transport.obj
 0003:00004914       ??_C@_1BO@MBFJAAKI@?$AAm?$AAg?$AAr?$AA?5?$AA?$CG?$AA?$CG?$AA?5?$AAp?$AA_?$AAt?$AAd?$AAa?$AAt?$AAa?$AA?$AA@ 00543914     pjsip-core-i386-win32-vc8-debug:sip_transport.obj
 0003:00004938       ??_C@_06HHKALCGB@tdta?$CFp?$AA@ 00543938     pjsip-core-i386-win32-vc8-debug:sip_transport.obj
 0003:00004940       ??_C@_0BF@FNAOFPOF@Destroying?5txdata?5?$CFs?$AA@ 00543940     pjsip-core-i386-win32-vc8-debug:sip_transport.obj
 0003:00004960       ??_C@_1EE@POPHHCJO@?$AAp?$AAj?$AA_?$AAa?$AAt?$AAo?$AAm?$AAi?$AAc?$AA_?$AAg?$AAe?$AAt?$AA?$CI?$AAt?$AAd?$AAa?$AAt?$AAa?$AA?9?$AA?$DO?$AAr?$AAe?$AAf?$AA_?$AAc?$AAn?$AAt?$AA?$CJ?$AA?5?$AA?$DO?$AA?5@ 00543960     pjsip-core-i386-win32-vc8-debug:sip_transport.obj
 0003:000049b4       ??_C@_1BE@PNMDECGB@?$AAs?$AAi?$AAz?$AAe?$AA?5?$AA?$CB?$AA?$DN?$AA?5?$AA0?$AA?$AA@ 005439b4     pjsip-core-i386-win32-vc8-debug:sip_transport.obj
 0003:000049cc       ??_C@_1CI@MFBAJOBD@?$AAc?$AAs?$AAe?$AAq?$AA?5?$AA?$CB?$AA?$DN?$AA?5?$AA?$CI?$AA?$CI?$AAv?$AAo?$AAi?$AAd?$AA?5?$AA?$CK?$AA?$CJ?$AA0?$AA?$CJ?$AA?$AA@ 005439cc     pjsip-core-i386-win32-vc8-debug:sip_transport.obj
 0003:000049fc       ??_C@_0M@JCCICOOO@INVALID?5MSG?$AA@ 005439fc     pjsip-core-i386-win32-vc8-debug:sip_transport.obj
 0003:00004a0c       ??_C@_0BO@FBJFIDDA@Request?5msg?5?$CF?4?$CKs?1cseq?$DN?$CFd?5?$CI?$CFs?$CJ?$AA@ 00543a0c     pjsip-core-i386-win32-vc8-debug:sip_transport.obj
 0003:00004a30       ??_C@_0CC@DIPPPFIF@Response?5msg?5?$CFd?1?$CF?4?$CKs?1cseq?$DN?$CFd?5?$CI?$CFs@ 00543a30     pjsip-core-i386-win32-vc8-debug:sip_transport.obj
 0003:00004a58       ??_C@_1M@HEACFIIF@?$AAt?$AAd?$AAa?$AAt?$AAa?$AA?$AA@ 00543a58     pjsip-core-i386-win32-vc8-debug:sip_transport.obj
 0003:00004a68       ??_C@_1BK@GHEHKPIH@?$AAt?$AAd?$AAa?$AAt?$AAa?$AA?5?$AA?$CG?$AA?$CG?$AA?5?$AAs?$AAe?$AAl?$AA?$AA@ 00543a68     pjsip-core-i386-win32-vc8-debug:sip_transport.obj
 0003:00004a88       ??_C@_1CI@IBHLBIFH@?$AAr?$AAd?$AAa?$AAt?$AAa?$AA?9?$AA?$DO?$AAm?$AAs?$AAg?$AA_?$AAi?$AAn?$AAf?$AAo?$AA?4?$AAm?$AAs?$AAg?$AA?$AA@ 00543a88     pjsip-core-i386-win32-vc8-debug:sip_transport.obj
 0003:00004ab8       ??_C@_05MIOBCJBH@rdata?$AA@ 00543ab8     pjsip-core-i386-win32-vc8-debug:sip_transport.obj
 0003:00004ac0       ??_C@_02BBAHNLBA@?$CFp?$AA@ 00543ac0     pjsip-core-i386-win32-vc8-debug:sip_transport.obj
 0003:00004ac4       ??_C@_1DG@KNBFDMFD@?$AAs?$AAr?$AAc?$AA?5?$AA?$CG?$AA?$CG?$AA?5?$AAf?$AAl?$AAa?$AAg?$AAs?$AA?$DN?$AA?$DN?$AA0?$AA?5?$AA?$CG?$AA?$CG?$AA?5?$AAp?$AA_?$AAr?$AAd?$AAa?$AAt?$AAa?$AA?$AA@ 00543ac4     pjsip-core-i386-win32-vc8-debug:sip_transport.obj
 0003:00004b04       ??_C@_05KBHICJDA@rtd?$CFp?$AA@ 00543b04     pjsip-core-i386-win32-vc8-debug:sip_transport.obj
 0003:00004b0c       ??_C@_1M@JLDPPNGF@?$AAr?$AAd?$AAa?$AAt?$AAa?$AA?$AA@ 00543b0c     pjsip-core-i386-win32-vc8-debug:sip_transport.obj
 0003:00004b1c       ??_C@_1CI@IPCNOINL@?$AAt?$AAr?$AA?5?$AA?$CG?$AA?$CG?$AA?5?$AAt?$AAd?$AAa?$AAt?$AAa?$AA?5?$AA?$CG?$AA?$CG?$AA?5?$AAa?$AAd?$AAd?$AAr?$AA?$AA@ 00543b1c     pjsip-core-i386-win32-vc8-debug:sip_transport.obj
 0003:00004b4c       ??_C@_0BI@ECCEKPHK@Invalid?5operation?5step?$CB?$AA@ 00543b4c     pjsip-core-i386-win32-vc8-debug:sip_transport.obj
 0003:00004b68       ??_C@_1DG@KNKCHNAG@?$AA?$CB?$AA?$CC?$AAI?$AAn?$AAv?$AAa?$AAl?$AAi?$AAd?$AA?5?$AAo?$AAp?$AAe?$AAr?$AAa?$AAt?$AAi?$AAo?$AAn?$AA?5?$AAs?$AAt?$AAe?$AAp?$AA?$CB?$AA?$CC?$AA?$AA@ 00543b68     pjsip-core-i386-win32-vc8-debug:sip_transport.obj
 0003:00004ba8       ??_C@_0CG@GHPNJCCG@Unable?5to?5send?5?$CFs?3?5message?5is?5pe@ 00543ba8     pjsip-core-i386-win32-vc8-debug:sip_transport.obj
 0003:00004bd8       ??_C@_0BA@BCOMPIDA@sip_transport?4c?$AA@ 00543bd8     pjsip-core-i386-win32-vc8-debug:sip_transport.obj
 0003:00004bec       ??_C@_03DGOGAGNC@raw?$AA@  00543bec     pjsip-core-i386-win32-vc8-debug:sip_transport.obj
 0003:00004bf0       ??_C@_1CE@JIJCJACB@?$AAt?$AAp?$AA?5?$AA?$CB?$AA?$DN?$AA?5?$AA?$CI?$AA?$CI?$AAv?$AAo?$AAi?$AAd?$AA?5?$AA?$CK?$AA?$CJ?$AA0?$AA?$CJ?$AA?$AA@ 00543bf0     pjsip-core-i386-win32-vc8-debug:sip_transport.obj
 0003:00004c1c       ??_C@_1DO@GDEEOGNP@?$AAp?$AAj?$AA_?$AAa?$AAt?$AAo?$AAm?$AAi?$AAc?$AA_?$AAg?$AAe?$AAt?$AA?$CI?$AAt?$AAp?$AA?9?$AA?$DO?$AAr?$AAe?$AAf?$AA_?$AAc?$AAn?$AAt?$AA?$CJ?$AA?5?$AA?$DO?$AA?5?$AA0?$AA?$AA@ 00543c1c     pjsip-core-i386-win32-vc8-debug:sip_transport.obj
 0003:00004c68       ??_C@_1CO@KHDNBGFB@?$AAt?$AAp?$AA?9?$AA?$DO?$AAi?$AAd?$AAl?$AAe?$AA_?$AAt?$AAi?$AAm?$AAe?$AAr?$AA?4?$AAi?$AAd?$AA?5?$AA?$DN?$AA?$DN?$AA?5?$AA0?$AA?$AA@ 00543c68     pjsip-core-i386-win32-vc8-debug:sip_transport.obj
 0003:00004ca0       ??_C@_1EA@LALNJIBK@?$AAp?$AAj?$AA_?$AAa?$AAt?$AAo?$AAm?$AAi?$AAc?$AA_?$AAg?$AAe?$AAt?$AA?$CI?$AAt?$AAp?$AA?9?$AA?$DO?$AAr?$AAe?$AAf?$AA_?$AAc?$AAn?$AAt?$AA?$CJ?$AA?5?$AA?$DN?$AA?$DN?$AA?5?$AA0?$AA?$AA@ 00543ca0     pjsip-core-i386-win32-vc8-debug:sip_transport.obj
 0003:00004cf0       ??_C@_1GE@ODJKLGAI@?$AAp?$AAj?$AA_?$AAl?$AAi?$AAs?$AAt?$AA_?$AAf?$AAi?$AAn?$AAd?$AA_?$AAn?$AAo?$AAd?$AAe?$AA?$CI?$AA?$CG?$AAm?$AAg?$AAr?$AA?9?$AA?$DO?$AAf?$AAa?$AAc?$AAt?$AAo?$AAr?$AAy?$AA_@ 00543cf0     pjsip-core-i386-win32-vc8-debug:sip_transport.obj
 0003:00004d68       ??_C@_1EA@MDAPBLGD@?$AAp?$AAo?$AAo?$AAl?$AA?5?$AA?$CG?$AA?$CG?$AA?5?$AAe?$AAn?$AAd?$AAp?$AAt?$AA?5?$AA?$CG?$AA?$CG?$AA?5?$AAr?$AAx?$AA_?$AAc?$AAb?$AA?5?$AA?$CG?$AA?$CG?$AA?5?$AAp?$AA_?$AAm?$AAg?$AAr?$AA?$AA@ 00543d68     pjsip-core-i386-win32-vc8-debug:sip_transport.obj
 0003:00004db4       ??_C@_06DFEDPGIK@tmgr?$CFp?$AA@ 00543db4     pjsip-core-i386-win32-vc8-debug:sip_transport.obj
 0003:00004dbc       ??_C@_0BL@FCLJOKON@Transport?5manager?5created?4?$AA@ 00543dbc     pjsip-core-i386-win32-vc8-debug:sip_transport.obj
 0003:00004de0       ??_C@_0EN@CAHOMDCB@Warning?3?5unable?5to?5determine?5loc@ 00543de0     pjsip-core-i386-win32-vc8-debug:sip_transport.obj
 0003:00004e3c       ??_C@_1CK@EDLELAMO@?$AAt?$AAp?$AAm?$AAg?$AAr?$AA?5?$AA?$CG?$AA?$CG?$AA?5?$AAp?$AAo?$AAo?$AAl?$AA?5?$AA?$CG?$AA?$CG?$AA?5?$AAp?$AAr?$AAm?$AA?$AA@ 00543e3c     pjsip-core-i386-win32-vc8-debug:sip_transport.obj
 0003:00004e70       ??_C@_0CN@DKCAIDHL@Warning?3?5unable?5to?5determine?5loc@ 00543e70     pjsip-core-i386-win32-vc8-debug:sip_transport.obj
 0003:00004ea8       ??_C@_0BN@ICLNKKAJ@Destroying?5transport?5manager?$AA@ 00543ea8     pjsip-core-i386-win32-vc8-debug:sip_transport.obj
 0003:00004ecc       ??_C@_0CK@FGDGGPEI@Warning?3?5?$CFd?5transmit?5buffer?$CIs?$CJ?5n@ 00543ecc     pjsip-core-i386-win32-vc8-debug:sip_transport.obj
 0003:00004f00       ??_C@_0CI@HJKHOKAG@Cleaned?5up?5dangling?5transmit?5buf@ 00543f00     pjsip-core-i386-win32-vc8-debug:sip_transport.obj
 0003:00004f30       ??_C@_1DA@MFMDOPJP@?$AAr?$AAd?$AAa?$AAt?$AAa?$AA?9?$AA?$DO?$AAp?$AAk?$AAt?$AA_?$AAi?$AAn?$AAf?$AAo?$AA?4?$AAl?$AAe?$AAn?$AA?5?$AA?$DO?$AA?5?$AA0?$AA?$AA@ 00543f30     pjsip-core-i386-win32-vc8-debug:sip_transport.obj
 0003:00004f6c       ??_C@_0DM@LJBJFPEI@?3?5?$CFs?5exception?5when?5parsing?5?8?$CF?4?$CK@ 00543f6c     pjsip-core-i386-win32-vc8-debug:sip_transport.obj
 0003:00004fb8       ??_C@_0EM@JMILNFHN@Error?5processing?5?$CFd?5bytes?5packet@ 00543fb8     pjsip-core-i386-win32-vc8-debug:sip_transport.obj
 0003:00005014       ??_C@_1CA@IPAHCLBF@?$AAt?$AAp?$AA?$CB?$AA?$DN?$AA?$CI?$AA?$CI?$AAv?$AAo?$AAi?$AAd?$AA?5?$AA?$CK?$AA?$CJ?$AA0?$AA?$CJ?$AA?$AA@ 00544014     pjsip-core-i386-win32-vc8-debug:sip_transport.obj
 0003:0000503c       ??_C@_0CC@ENNFECFA@?5Outstanding?5transmit?5buffers?3?5?$CF@ 0054403c     pjsip-core-i386-win32-vc8-debug:sip_transport.obj
 0003:00005064       ??_C@_0BE@FLCADGMP@?5Dumping?5listeners?3?$AA@ 00544064     pjsip-core-i386-win32-vc8-debug:sip_transport.obj
 0003:0000507c       ??_C@_0BA@BNAMNLNN@?5?5?$CFs?5?$CFs?3?$CF?4?$CKs?3?$CFd?$AA@ 0054407c     pjsip-core-i386-win32-vc8-debug:sip_transport.obj
 0003:00005090       ??_C@_0BF@HNGNBCHG@?5Dumping?5transports?3?$AA@ 00544090     pjsip-core-i386-win32-vc8-debug:sip_transport.obj
 0003:000050ac       ??_C@_07DBMJBCPL@?5?$FLidle?$FN?$AA@ 005440ac     pjsip-core-i386-win32-vc8-debug:sip_transport.obj
 0003:000050b8       ??_C@_0BG@IGFLAEKF@?5?5?$CFs?5?$CFs?5?$CIrefcnt?$DN?$CFd?$CFs?$CJ?$AA@ 005440b8     pjsip-core-i386-win32-vc8-debug:sip_transport.obj
 0003:000050d4       ??_C@_17FPEMCAJ@?$AAm?$AAg?$AAr?$AA?$AA@ 005440d4     pjsip-core-i386-win32-vc8-debug:sip_transport.obj
 0003:000050e0       ??_C@_1CA@DOBLFHPM@?$AAt?$AAp?$AA?5?$AA?$CG?$AA?$CG?$AA?5?$AA?$CB?$AAt?$AAp?$AA?9?$AA?$DO?$AAd?$AAa?$AAt?$AAa?$AA?$AA@ 005440e0     pjsip-core-i386-win32-vc8-debug:sip_transport.obj
 0003:00005108       ??_C@_1CA@DHDBBMCM@?$AAt?$AAp?$AA?5?$AA?$CG?$AA?$CG?$AA?5?$AAc?$AAb?$AA?5?$AA?$CG?$AA?$CG?$AA?5?$AAk?$AAe?$AAy?$AA?$AA@ 00544108     pjsip-core-i386-win32-vc8-debug:sip_transport.obj
 0003:00005130       ??_C@_1BE@OBCKLIJC@?$AAt?$AAp?$AA?5?$AA?$CG?$AA?$CG?$AA?5?$AAk?$AAe?$AAy?$AA?$AA@ 00544130     pjsip-core-i386-win32-vc8-debug:sip_transport.obj
 0003:00005148       ??_C@_0CF@MDLECAOH@Invalid?5transport?5state?5listener@ 00544148     pjsip-core-i386-win32-vc8-debug:sip_transport.obj
 0003:00005178       ??_C@_1FA@PLCLAKCJ@?$AA?$CB?$AA?$CC?$AAI?$AAn?$AAv?$AAa?$AAl?$AAi?$AAd?$AA?5?$AAt?$AAr?$AAa?$AAn?$AAs?$AAp?$AAo?$AAr?$AAt?$AA?5?$AAs?$AAt?$AAa?$AAt?$AAe?$AA?5?$AAl?$AAi?$AAs?$AAt?$AAe?$AAn@ 00544178     pjsip-core-i386-win32-vc8-debug:sip_transport.obj
 0003:000051d8       ??_C@_1MA@HDOEENFJ@?$AAc?$AA?3?$AA?2?$AAu?$AAs?$AAe?$AAr?$AAs?$AA?2?$AA9?$AA2?$AA0?$AA0?$AA?2?$AAd?$AAe?$AAs?$AAk?$AAt?$AAo?$AAp?$AA?2?$AAw?$AAo?$AAr?$AAk?$AA?2?$AAp?$AAj?$AAs?$AAi?$AAp@ 005441d8     pjsip-core-i386-win32-vc8-debug:sip_endpoint.obj
 0003:000052c0       ??_C@_1HG@GNGHDJKP@?$AAp?$AAj?$AA_?$AAl?$AAi?$AAs?$AAt?$AA_?$AAf?$AAi?$AAn?$AAd?$AA_?$AAn?$AAo?$AAd?$AAe?$AA?$CI?$AA?$CG?$AAe?$AAn?$AAd?$AAp?$AAt?$AA?9?$AA?$DO?$AAm?$AAo?$AAd?$AAu?$AAl?$AAe@ 005442c0     pjsip-core-i386-win32-vc8-debug:sip_endpoint.obj
 0003:00005350       ??_C@_1JI@DOGDNJFM@?$AAp?$AAj?$AA_?$AAl?$AAi?$AAs?$AAt?$AA_?$AAs?$AAe?$AAa?$AAr?$AAc?$AAh?$AA?$CI?$AA?$CG?$AAe?$AAn?$AAd?$AAp?$AAt?$AA?9?$AA?$DO?$AAm?$AAo?$AAd?$AAu?$AAl?$AAe?$AA_?$AAl?$AAi@ 00544350     pjsip-core-i386-win32-vc8-debug:sip_endpoint.obj
 0003:00005408       ??_C@_0BN@JLCMAAMG@Too?5many?5modules?5registered?$CB?$AA@ 00544408     pjsip-core-i386-win32-vc8-debug:sip_endpoint.obj
 0003:00005430       ??_C@_1EA@BBMDBCME@?$AA?$CB?$AA?$CC?$AAT?$AAo?$AAo?$AA?5?$AAm?$AAa?$AAn?$AAy?$AA?5?$AAm?$AAo?$AAd?$AAu?$AAl?$AAe?$AAs?$AA?5?$AAr?$AAe?$AAg?$AAi?$AAs?$AAt?$AAe?$AAr?$AAe?$AAd?$AA?$CB?$AA?$CC?$AA?$AA@ 00544430     pjsip-core-i386-win32-vc8-debug:sip_endpoint.obj
 0003:0000547c       ??_C@_0BJ@MGECBGBK@Module?5?$CC?$CF?4?$CKs?$CC?5registered?$AA@ 0054447c     pjsip-core-i386-win32-vc8-debug:sip_endpoint.obj
 0003:0000549c       ??_C@_0P@EGLGAFCL@sip_endpoint?4c?$AA@ 0054449c     pjsip-core-i386-win32-vc8-debug:sip_endpoint.obj
 0003:000054b0       ??_C@_1GG@LPLFIINA@?$AAp?$AAj?$AA_?$AAl?$AAi?$AAs?$AAt?$AA_?$AAf?$AAi?$AAn?$AAd?$AA_?$AAn?$AAo?$AAd?$AAe?$AA?$CI?$AA?$CG?$AAe?$AAn?$AAd?$AAp?$AAt?$AA?9?$AA?$DO?$AAm?$AAo?$AAd?$AAu?$AAl?$AAe@ 005444b0     pjsip-core-i386-win32-vc8-debug:sip_endpoint.obj
 0003:00005530       ??_C@_1OA@ELJJGPEE@?$AAm?$AAo?$AAd?$AA?9?$AA?$DO?$AAi?$AAd?$AA?$DO?$AA?$DN?$AA0?$AA?5?$AA?$CG?$AA?$CG?$AA?5?$AAm?$AAo?$AAd?$AA?9?$AA?$DO?$AAi?$AAd?$AA?$DM?$AA?$CI?$AAi?$AAn?$AAt?$AA?$CJ?$AA?$CI?$AAs?$AAi?$AAz?$AAe@ 00544530     pjsip-core-i386-win32-vc8-debug:sip_endpoint.obj
 0003:0000563c       ??_C@_0CK@DNCAODEI@Module?5?$CC?$CF?4?$CKs?$CC?5can?5not?5be?5unregis@ 0054463c     pjsip-core-i386-win32-vc8-debug:sip_endpoint.obj
 0003:00005670       ??_C@_1BK@JGLJFHIM@?$AAm?$AAo?$AAd?$AA?9?$AA?$DO?$AAi?$AAd?$AA?5?$AA?$DO?$AA?$DN?$AA?5?$AA0?$AA?$AA@ 00544670     pjsip-core-i386-win32-vc8-debug:sip_endpoint.obj
 0003:00005690       ??_C@_0BL@HDLPHBNM@Module?5?$CC?$CF?4?$CKs?$CC?5unregistered?$AA@ 00544690     pjsip-core-i386-win32-vc8-debug:sip_endpoint.obj
 0003:000056b0       ??_C@_1CK@LGNMMEDO@?$AAe?$AAn?$AAd?$AAp?$AAt?$AA?5?$AA?$CB?$AA?$DN?$AA?5?$AA?$CI?$AA?$CI?$AAv?$AAo?$AAi?$AAd?$AA?5?$AA?$CK?$AA?$CJ?$AA0?$AA?$CJ?$AA?$AA@ 005446b0     pjsip-core-i386-win32-vc8-debug:sip_endpoint.obj
 0003:000056e8       ??_C@_1EA@JHJJOPDK@?$AAh?$AAt?$AAy?$AAp?$AAe?$AA?5?$AA?$CB?$AA?$DN?$AA?5?$AAP?$AAJ?$AAS?$AAI?$AAP?$AA_?$AAH?$AA_?$AAO?$AAT?$AAH?$AAE?$AAR?$AA?5?$AA?$HM?$AA?$HM?$AA?5?$AAh?$AAn?$AAa?$AAm?$AAe?$AA?$AA@ 005446e8     pjsip-core-i386-win32-vc8-debug:sip_endpoint.obj
 0003:00005734       ??_C@_1CK@NFBOGGCD@?$AAt?$AAo?$AAk?$AAe?$AAn?$AA?5?$AA?$CB?$AA?$DN?$AA?5?$AA?$CI?$AA?$CI?$AAv?$AAo?$AAi?$AAd?$AA?5?$AA?$CK?$AA?$CJ?$AA0?$AA?$CJ?$AA?$AA@ 00544734     pjsip-core-i386-win32-vc8-debug:sip_endpoint.obj
 0003:00005768       ??_C@_1EM@KKEECKPB@?$AAe?$AAn?$AAd?$AAp?$AAt?$AA?$CB?$AA?$DN?$AA?$CI?$AA?$CI?$AAv?$AAo?$AAi?$AAd?$AA?5?$AA?$CK?$AA?$CJ?$AA0?$AA?$CJ?$AA?5?$AA?$CG?$AA?$CG?$AA?5?$AAc?$AAo?$AAu?$AAn?$AAt?$AA?$DO?$AA0?$AA?5?$AA?$CG?$AA?$CG@ 00544768     pjsip-core-i386-win32-vc8-debug:sip_endpoint.obj
 0003:000057c8       ??_C@_1JE@INLJHCK@?$AAh?$AAt?$AAy?$AAp?$AAe?$AA?$DN?$AA?$DN?$AAP?$AAJ?$AAS?$AAI?$AAP?$AA_?$AAH?$AA_?$AAA?$AAC?$AAC?$AAE?$AAP?$AAT?$AA?5?$AA?$HM?$AA?$HM?$AA?5?$AAh?$AAt?$AAy?$AAp?$AAe?$AA?$DN?$AA?$DN@ 005447c8     pjsip-core-i386-win32-vc8-debug:sip_endpoint.obj
 0003:0000587c       ??_C@_0BO@COOMMINE@Creating?5endpoint?5instance?4?4?4?$AA@ 0054487c     pjsip-core-i386-win32-vc8-debug:sip_endpoint.obj
 0003:000058a0       ??_C@_06NKPEEELK@pept?$CFp?$AA@ 005448a0     pjsip-core-i386-win32-vc8-debug:sip_endpoint.obj
 0003:000058a8       ??_C@_05BKDCOKEM@ept?$CFp?$AA@ 005448a8     pjsip-core-i386-win32-vc8-debug:sip_endpoint.obj
 0003:000058b0       ??_C@_06CEEOCEHG@edpt?$CFp?$AA@ 005448b0     pjsip-core-i386-win32-vc8-debug:sip_endpoint.obj
 0003:000058b8       ??_C@_0CB@HGCDKNNC@Error?5creating?5resolver?5instance@ 005448b8     pjsip-core-i386-win32-vc8-debug:sip_endpoint.obj
 0003:000058e0       ??_C@_0BI@MLLMLNGM@Error?5creating?5endpoint?$AA@ 005448e0     pjsip-core-i386-win32-vc8-debug:sip_endpoint.obj
 0003:000058fc       ??_C@_0BP@COABEKEP@Destroying?5endpoing?5instance?4?4?$AA@ 005448fc     pjsip-core-i386-win32-vc8-debug:sip_endpoint.obj
 0003:00005924       ??_C@_0BG@NIAFLHGE@Endpoint?5?$CFp?5destroyed?$AA@ 00544924     pjsip-core-i386-win32-vc8-debug:sip_endpoint.obj
 0003:00005940       ??_C@_0BK@KKFMILKM@Unable?5to?5create?5pool?5?$CFs?$CB?$AA@ 00544940     pjsip-core-i386-win32-vc8-debug:sip_endpoint.obj
 0003:00005960       ??_C@_1EM@EIDGDNFK@?$AAt?$AAi?$AAm?$AAe?$AAo?$AAu?$AAt?$AA?4?$AAs?$AAe?$AAc?$AA?5?$AA?$DO?$AA?$DN?$AA?5?$AA0?$AA?5?$AA?$CG?$AA?$CG?$AA?5?$AAt?$AAi?$AAm?$AAe?$AAo?$AAu?$AAt?$AA?4?$AAm?$AAs?$AAe?$AAc@ 00544960     pjsip-core-i386-win32-vc8-debug:sip_endpoint.obj
 0003:000059bc       ??_C@_1BO@DGLGIKJI@?$AAe?$AAn?$AAd?$AAp?$AAt?$AA?5?$AA?$CG?$AA?$CG?$AA?5?$AAr?$AAd?$AAa?$AAt?$AAa?$AA?$AA@ 005449bc     pjsip-core-i386-win32-vc8-debug:sip_endpoint.obj
 0003:000059e0       ??_C@_0CC@POJNFGFL@Distributing?5rdata?5to?5modules?3?5?$CF@ 005449e0     pjsip-core-i386-win32-vc8-debug:sip_endpoint.obj
 0003:00005a08       ??_C@_05MMMMAHGD@?5From?$AA@ 00544a08     pjsip-core-i386-win32-vc8-debug:sip_endpoint.obj
 0003:00005a10       ??_C@_03PHFJHONJ@?5To?$AA@ 00544a10     pjsip-core-i386-win32-vc8-debug:sip_endpoint.obj
 0003:00005a14       ??_C@_04CNJKNNNB@?5Via?$AA@ 00544a14     pjsip-core-i386-win32-vc8-debug:sip_endpoint.obj
 0003:00005a1c       ??_C@_05PHECJIMD@?5CSeq?$AA@ 00544a1c     pjsip-core-i386-win32-vc8-debug:sip_endpoint.obj
 0003:00005a28       ??_C@_0EM@MDGMOKGH@Error?5processing?5packet?5from?5?$CFs?3@ 00544a28     pjsip-core-i386-win32-vc8-debug:sip_endpoint.obj
 0003:00005a84       ??_C@_0CA@HOLDFAO@Processing?5incoming?5message?3?5?$CFs?$AA@ 00544a84     pjsip-core-i386-win32-vc8-debug:sip_endpoint.obj
 0003:00005aac       ??_C@_0DD@CJCKLIHE@?$CFs?5from?5?$CFs?3?$CFd?5was?5dropped?1unhand@ 00544aac     pjsip-core-i386-win32-vc8-debug:sip_endpoint.obj
 0003:00005aec       ??_C@_1CA@EMOCFNLD@?$AAe?$AAn?$AAd?$AAp?$AAt?$AA?5?$AA?$CG?$AA?$CG?$AA?5?$AAp?$AA_?$AAr?$AAe?$AAs?$AAv?$AA?$AA@ 00544aec     pjsip-core-i386-win32-vc8-debug:sip_endpoint.obj
 0003:00005b14       ??_C@_0M@HFADNKMO@?3?5?$FLerr?5?$CFd?$FN?5?$AA@ 00544b14     pjsip-core-i386-win32-vc8-debug:sip_endpoint.obj
 0003:00005b24       ??_C@_0BD@LFIBIDIN@pjsip_endpt_dump?$CI?$CJ?$AA@ 00544b24     pjsip-core-i386-win32-vc8-debug:sip_endpoint.obj
 0003:00005b3c       ??_C@_0BF@NCGFABFO@Dumping?5endpoint?5?$CFp?3?$AA@ 00544b3c     pjsip-core-i386-win32-vc8-debug:sip_endpoint.obj
 0003:00005b58       ??_C@_0CJ@IKGHIDDJ@?5Endpoint?5pool?5capacity?$DN?$CFu?0?5used@ 00544b58     pjsip-core-i386-win32-vc8-debug:sip_endpoint.obj
 0003:00005b8c       ??_C@_0BL@JFJBMKJJ@?5Timer?5heap?5has?5?$CFu?5entries?$AA@ 00544b8c     pjsip-core-i386-win32-vc8-debug:sip_endpoint.obj
 0003:00005bac       ??_C@_1BM@MOILAMIP@?$AAe?$AAn?$AAd?$AAp?$AAt?$AA?5?$AA?$CG?$AA?$CG?$AA?5?$AAf?$AAu?$AAn?$AAc?$AA?$AA@ 00544bac     pjsip-core-i386-win32-vc8-debug:sip_endpoint.obj
 0003:00005bd0       ??_C@_0N@IDBMKGKC@UNIDENTIFIED?$AA@ 00544bd0     pjsip-core-i386-win32-vc8-debug:sip_util.obj
 0003:00005be0       ??_C@_05BLGDNOJI@TIMER?$AA@ 00544be0     pjsip-core-i386-win32-vc8-debug:sip_util.obj
 0003:00005be8       ??_C@_06FHCLPGGO@TX_MSG?$AA@ 00544be8     pjsip-core-i386-win32-vc8-debug:sip_util.obj
 0003:00005bf0       ??_C@_06DEPLMDFE@RX_MSG?$AA@ 00544bf0     pjsip-core-i386-win32-vc8-debug:sip_util.obj
 0003:00005bf8       ??_C@_0BA@DJFINPGH@TRANSPORT_ERROR?$AA@ 00544bf8     pjsip-core-i386-win32-vc8-debug:sip_util.obj
 0003:00005c0c       ??_C@_09DGJBKMAD@TSX_STATE?$AA@ 00544c0c     pjsip-core-i386-win32-vc8-debug:sip_util.obj
 0003:00005c18       ??_C@_04OOEKJIOI@USER?$AA@ 00544c18     pjsip-core-i386-win32-vc8-debug:sip_util.obj
 0003:00005c20       ??_C@_04CIMGMMMG@text?$AA@ 00544c20     pjsip-core-i386-win32-vc8-debug:sip_util.obj
 0003:00005c28       ??_C@_05CGDPOPDB@plain?$AA@ 00544c28     pjsip-core-i386-win32-vc8-debug:sip_util.obj
 0003:00005c30       ??_C@_1LI@DLANABLA@?$AAc?$AA?3?$AA?2?$AAu?$AAs?$AAe?$AAr?$AAs?$AA?2?$AA9?$AA2?$AA0?$AA0?$AA?2?$AAd?$AAe?$AAs?$AAk?$AAt?$AAo?$AAp?$AA?2?$AAw?$AAo?$AAr?$AAk?$AA?2?$AAp?$AAj?$AAs?$AAi?$AAp@ 00544c30     pjsip-core-i386-win32-vc8-debug:sip_util.obj
 0003:00005d0c       ??_C@_1CI@HKFMDIPD@?$AAt?$AAs?$AAe?$AAt?$AA?5?$AA?$CG?$AA?$CG?$AA?5?$AAp?$AAo?$AAo?$AAl?$AA?5?$AA?$CG?$AA?$CG?$AA?5?$AAu?$AAr?$AAi?$AA?$AA@ 00544d0c     pjsip-core-i386-win32-vc8-debug:sip_util.obj
 0003:00005d3c       ??_C@_1CI@POIBLGPL@?$AAt?$AAs?$AAe?$AAt?$AA?5?$AA?$CG?$AA?$CG?$AA?5?$AAp?$AAo?$AAo?$AAl?$AA?5?$AA?$CG?$AA?$CG?$AA?5?$AAm?$AAs?$AAg?$AA?$AA@ 00544d3c     pjsip-core-i386-win32-vc8-debug:sip_util.obj
 0003:00005d6c       ??_C@_1BO@LKKKGIN@?$AAt?$AAs?$AAe?$AAt?$AA?5?$AA?$CG?$AA?$CG?$AA?5?$AAt?$AAa?$AAr?$AAg?$AAe?$AAt?$AA?$AA@ 00544d6c     pjsip-core-i386-win32-vc8-debug:sip_util.obj
 0003:00005d90       ??_C@_1FO@EDPIABID@?$AAp?$AAj?$AA_?$AAl?$AAi?$AAs?$AAt?$AA_?$AAf?$AAi?$AAn?$AAd?$AA_?$AAn?$AAo?$AAd?$AAe?$AA?$CI?$AAt?$AAs?$AAe?$AAt?$AA?0?$AA?5?$AAt?$AAa?$AAr?$AAg?$AAe?$AAt?$AA?$CJ?$AA?5@ 00544d90     pjsip-core-i386-win32-vc8-debug:sip_util.obj
 0003:00005e00       ??_C@_1FA@NPKACEOK@?$AAt?$AAa?$AAr?$AAg?$AAe?$AAt?$AA?5?$AA?$CG?$AA?$CG?$AA?5?$AAp?$AAo?$AAo?$AAl?$AA?5?$AA?$CG?$AA?$CG?$AA?5?$AAs?$AAt?$AAa?$AAt?$AAu?$AAs?$AA_?$AAc?$AAo?$AAd?$AAe?$AA?5?$AA?$CG?$AA?$CG@ 00544e00     pjsip-core-i386-win32-vc8-debug:sip_util.obj
 0003:00005e60       ??_C@_0M@PJOLBNIF@?$CFs?5created?4?$AA@ 00544e60     pjsip-core-i386-win32-vc8-debug:sip_util.obj
 0003:00005e70       ??_C@_08OKOOPKMJ@endpoint?$AA@ 00544e70     pjsip-core-i386-win32-vc8-debug:sip_util.obj
 0003:00005e80       ??_C@_1IK@ICLIJJGE@?$AAe?$AAn?$AAd?$AAp?$AAt?$AA?5?$AA?$CG?$AA?$CG?$AA?5?$AAm?$AAe?$AAt?$AAh?$AAo?$AAd?$AA?5?$AA?$CG?$AA?$CG?$AA?5?$AAp?$AAa?$AAr?$AAa?$AAm?$AA_?$AAt?$AAa?$AAr?$AAg?$AAe?$AAt?$AA?5@ 00544e80     pjsip-core-i386-win32-vc8-debug:sip_util.obj
 0003:00005f28       ??_C@_1DE@IINODGEM@?$AAe?$AAn?$AAd?$AAp?$AAt?$AA?5?$AA?$CG?$AA?$CG?$AA?5?$AAr?$AAd?$AAa?$AAt?$AAa?$AA?5?$AA?$CG?$AA?$CG?$AA?5?$AAp?$AA_?$AAt?$AAd?$AAa?$AAt?$AAa?$AA?$AA@ 00544f28     pjsip-core-i386-win32-vc8-debug:sip_util.obj
 0003:00005f68       ??_C@_1EC@MNMNJBHH@?$AAs?$AAt?$AA_?$AAc?$AAo?$AAd?$AAe?$AA?5?$AA?$DO?$AA?$DN?$AA?5?$AA1?$AA0?$AA0?$AA?5?$AA?$CG?$AA?$CG?$AA?5?$AAs?$AAt?$AA_?$AAc?$AAo?$AAd?$AAe?$AA?5?$AA?$DM?$AA?$DN?$AA?5?$AA6?$AA9?$AA9@ 00544f68     pjsip-core-i386-win32-vc8-debug:sip_util.obj
 0003:00005fb8       ??_C@_1EG@OHLFPFNN@?$AAr?$AAe?$AAq?$AA_?$AAm?$AAs?$AAg?$AA?9?$AA?$DO?$AAt?$AAy?$AAp?$AAe?$AA?5?$AA?$DN?$AA?$DN?$AA?5?$AAP?$AAJ?$AAS?$AAI?$AAP?$AA_?$AAR?$AAE?$AAQ?$AAU?$AAE?$AAS?$AAT?$AA_?$AAM@ 00544fb8     pjsip-core-i386-win32-vc8-debug:sip_util.obj
 0003:00006010       ??_C@_1GA@JMEMIMKF@?$AAr?$AAe?$AAq?$AA_?$AAm?$AAs?$AAg?$AA?9?$AA?$DO?$AAl?$AAi?$AAn?$AAe?$AA?4?$AAr?$AAe?$AAq?$AA?4?$AAm?$AAe?$AAt?$AAh?$AAo?$AAd?$AA?4?$AAi?$AAd?$AA?5?$AA?$CB?$AA?$DN?$AA?5?$AAP@ 00545010     pjsip-core-i386-win32-vc8-debug:sip_util.obj
 0003:00006084       ??_C@_0L@IOBEOHFD@?$CFs?5created?$AA@ 00545084     pjsip-core-i386-win32-vc8-debug:sip_util.obj
 0003:00006098       ??_C@_1LM@BLCEOEIP@?$AAr?$AAd?$AAa?$AAt?$AAa?$AA?9?$AA?$DO?$AAm?$AAs?$AAg?$AA_?$AAi?$AAn?$AAf?$AAo?$AA?4?$AAm?$AAs?$AAg?$AA?9?$AA?$DO?$AAt?$AAy?$AAp?$AAe?$AA?$DN?$AA?$DN?$AAP?$AAJ?$AAS?$AAI?$AAP@ 00545098     pjsip-core-i386-win32-vc8-debug:sip_util.obj
 0003:0000617c       ??_C@_1DA@DIFHNMJK@?$AAf?$AAr?$AAo?$AAm?$AA_?$AAh?$AAd?$AAr?$AA?5?$AA?$CB?$AA?$DN?$AA?5?$AA?$CI?$AA?$CI?$AAv?$AAo?$AAi?$AAd?$AA?5?$AA?$CK?$AA?$CJ?$AA0?$AA?$CJ?$AA?$AA@ 0054517c     pjsip-core-i386-win32-vc8-debug:sip_util.obj
 0003:000061b8       ??_C@_1CM@GOJPLHLH@?$AAt?$AAo?$AA_?$AAh?$AAd?$AAr?$AA?5?$AA?$CB?$AA?$DN?$AA?5?$AA?$CI?$AA?$CI?$AAv?$AAo?$AAi?$AAd?$AA?5?$AA?$CK?$AA?$CJ?$AA0?$AA?$CJ?$AA?$AA@ 005451b8     pjsip-core-i386-win32-vc8-debug:sip_util.obj
 0003:000061f0       ??_C@_1MO@LJCCFAB@?$AAr?$AAe?$AAq?$AA_?$AAt?$AAd?$AAa?$AAt?$AAa?$AA?9?$AA?$DO?$AAm?$AAs?$AAg?$AA?9?$AA?$DO?$AAt?$AAy?$AAp?$AAe?$AA?5?$AA?$DN?$AA?$DN?$AA?5?$AAP?$AAJ?$AAS?$AAI?$AAP?$AA_?$AAR?$AAE@ 005451f0     pjsip-core-i386-win32-vc8-debug:sip_util.obj
 0003:000062e8       ??_C@_0ED@BNKEGDBC@Automatic?5switch?5to?5TLS?5transpor@ 005452e8     pjsip-core-i386-win32-vc8-debug:sip_util.obj
 0003:00006338       ??_C@_1EM@DOAFADCA@?$AAt?$AAd?$AAa?$AAt?$AAa?$AA?9?$AA?$DO?$AAm?$AAs?$AAg?$AA?9?$AA?$DO?$AAt?$AAy?$AAp?$AAe?$AA?5?$AA?$DN?$AA?$DN?$AA?5?$AAP?$AAJ?$AAS?$AAI?$AAP?$AA_?$AAR?$AAE?$AAQ?$AAU?$AAE?$AAS@ 00545338     pjsip-core-i386-win32-vc8-debug:sip_util.obj
 0003:00006394       ??_C@_1DC@HHMAIHFO@?$AAd?$AAe?$AAs?$AAt?$AA_?$AAi?$AAn?$AAf?$AAo?$AA?5?$AA?$CB?$AA?$DN?$AA?5?$AA?$CI?$AA?$CI?$AAv?$AAo?$AAi?$AAd?$AA?5?$AA?$CK?$AA?$CJ?$AA0?$AA?$CJ?$AA?$AA@ 00545394     pjsip-core-i386-win32-vc8-debug:sip_util.obj
 0003:000063d0       ??_C@_1EO@HBGKJAKM@?$AAt?$AAd?$AAa?$AAt?$AAa?$AA?9?$AA?$DO?$AAs?$AAa?$AAv?$AAe?$AAd?$AA_?$AAs?$AAt?$AAr?$AAi?$AAc?$AAt?$AA_?$AAr?$AAo?$AAu?$AAt?$AAe?$AA?$DN?$AA?$DN?$AA?$CI?$AA?$CI?$AAv?$AAo?$AAi@ 005453d0     pjsip-core-i386-win32-vc8-debug:sip_util.obj
 0003:00006430       ??_C@_0BM@CDDIENAL@Message?5route?5was?5modified?$DP?$AA@ 00545430     pjsip-core-i386-win32-vc8-debug:sip_util.obj
 0003:00006454       ??_C@_1DO@CDPMFNOH@?$AA?$CB?$AA?$CC?$AAM?$AAe?$AAs?$AAs?$AAa?$AAg?$AAe?$AA?5?$AAr?$AAo?$AAu?$AAt?$AAe?$AA?5?$AAw?$AAa?$AAs?$AA?5?$AAm?$AAo?$AAd?$AAi?$AAf?$AAi?$AAe?$AAd?$AA?$DP?$AA?$CC?$AA?$AA@ 00545454     pjsip-core-i386-win32-vc8-debug:sip_util.obj
 0003:000064a0       ??_C@_1DO@JEKLALDB@?$AAt?$AAd?$AAa?$AAt?$AAa?$AA?5?$AA?$DN?$AA?$DN?$AA?5?$AAs?$AAt?$AAa?$AAt?$AAe?$AAl?$AAe?$AAs?$AAs?$AA_?$AAd?$AAa?$AAt?$AAa?$AA?9?$AA?$DO?$AAt?$AAd?$AAa?$AAt?$AAa?$AA?$AA@ 005454a0     pjsip-core-i386-win32-vc8-debug:sip_util.obj
 0003:000064ec       ??_C@_0BG@FPBMHPCA@Via?5header?5not?5found?$CB?$AA@ 005454ec     pjsip-core-i386-win32-vc8-debug:sip_util.obj
 0003:00006508       ??_C@_1DC@MBKIMGNC@?$AA?$CB?$AA?$CC?$AAV?$AAi?$AAa?$AA?5?$AAh?$AAe?$AAa?$AAd?$AAe?$AAr?$AA?5?$AAn?$AAo?$AAt?$AA?5?$AAf?$AAo?$AAu?$AAn?$AAd?$AA?$CB?$AA?$CC?$AA?$AA@ 00545508     pjsip-core-i386-win32-vc8-debug:sip_util.obj
 0003:00006544       ??_C@_07LDFFKCFH@z9hG4bK?$AA@ 00545544     pjsip-core-i386-win32-vc8-debug:sip_util.obj
 0003:00006550       ??_C@_05NKHOCLEE@alias?$AA@ 00545550     pjsip-core-i386-win32-vc8-debug:sip_util.obj
 0003:00006558       ??_C@_1EC@PLNFGKCO@?$AAt?$AAd?$AAa?$AAt?$AAa?$AA?9?$AA?$DO?$AAd?$AAe?$AAs?$AAt?$AA_?$AAi?$AAn?$AAf?$AAo?$AA?4?$AAa?$AAd?$AAd?$AAr?$AA?4?$AAc?$AAo?$AAu?$AAn?$AAt?$AA?5?$AA?$CB?$AA?$DN?$AA?5?$AA0@ 00545558     pjsip-core-i386-win32-vc8-debug:sip_util.obj
 0003:000065a8       ??_C@_0DF@HEHPNNHP@?$CFs?5exceeds?5UDP?5size?5threshold?5?$CI?$CF@ 005455a8     pjsip-core-i386-win32-vc8-debug:sip_util.obj
 0003:000065e8       ??_C@_1BO@NJILCPHI@?$AAe?$AAn?$AAd?$AAp?$AAt?$AA?5?$AA?$CG?$AA?$CG?$AA?5?$AAt?$AAd?$AAa?$AAt?$AAa?$AA?$AA@ 005455e8     pjsip-core-i386-win32-vc8-debug:sip_util.obj
 0003:0000660c       ??_C@_0DO@JCGKHENM@?$CFs?3?5skipping?5target?5resolution?5b@ 0054560c     pjsip-core-i386-win32-vc8-debug:sip_util.obj
 0003:00006658       ??_C@_1CC@HIDCECHH@?$AAa?$AAd?$AAd?$AAr?$AA?9?$AA?$DO?$AAc?$AAo?$AAu?$AAn?$AAt?$AA?5?$AA?$CB?$AA?$DN?$AA?5?$AA0?$AA?$AA@ 00545658     pjsip-core-i386-win32-vc8-debug:sip_util.obj
 0003:00006680       ??_C@_1DE@DPBHNDLB@?$AAp?$AAo?$AAo?$AAl?$AA?5?$AA?$CG?$AA?$CG?$AA?5?$AAr?$AAd?$AAa?$AAt?$AAa?$AA?5?$AA?$CG?$AA?$CG?$AA?5?$AAr?$AAe?$AAs?$AA_?$AAa?$AAd?$AAd?$AAr?$AA?$AA@ 00545680     pjsip-core-i386-win32-vc8-debug:sip_util.obj
 0003:000066c0       ??_C@_1FO@LCFELEGO@?$AAr?$AAd?$AAa?$AAt?$AAa?$AA?9?$AA?$DO?$AAm?$AAs?$AAg?$AA_?$AAi?$AAn?$AAf?$AAo?$AA?4?$AAm?$AAs?$AAg?$AA?9?$AA?$DO?$AAt?$AAy?$AAp?$AAe?$AA?5?$AA?$DN?$AA?$DN?$AA?5?$AAP?$AAJ?$AAS@ 005456c0     pjsip-core-i386-win32-vc8-debug:sip_util.obj
 0003:00006730       ??_C@_1FG@CEKNLJLE@?$AAr?$AAd?$AAa?$AAt?$AAa?$AA?9?$AA?$DO?$AAm?$AAs?$AAg?$AA_?$AAi?$AAn?$AAf?$AAo?$AA?4?$AAv?$AAi?$AAa?$AA?9?$AA?$DO?$AAr?$AAe?$AAc?$AAv?$AAd?$AA_?$AAp?$AAa?$AAr?$AAa?$AAm@ 00545730     pjsip-core-i386-win32-vc8-debug:sip_util.obj
 0003:00006798       ??_C@_1FA@JGJIBFBC@?$AAp?$AAj?$AAs?$AAi?$AAp?$AA_?$AAr?$AAd?$AAa?$AAt?$AAa?$AA_?$AAg?$AAe?$AAt?$AA_?$AAt?$AAs?$AAx?$AA?$CI?$AAr?$AAd?$AAa?$AAt?$AAa?$AA?$CJ?$AA?$DN?$AA?$DN?$AA?$CI?$AA?$CI?$AAv?$AAo@ 00545798     pjsip-core-i386-win32-vc8-debug:sip_util.obj
 0003:000067f8       ??_C@_0BC@OBBFELDN@mod?9stateful?9util?$AA@ 005457f8     pjsip-core-i386-win32-vc8-debug:sip_util_statefull.obj
 0003:00006810       ??_C@_1MM@KMLBPBHH@?$AAc?$AA?3?$AA?2?$AAu?$AAs?$AAe?$AAr?$AAs?$AA?2?$AA9?$AA2?$AA0?$AA0?$AA?2?$AAd?$AAe?$AAs?$AAk?$AAt?$AAo?$AAp?$AA?2?$AAw?$AAo?$AAr?$AAk?$AA?2?$AAp?$AAj?$AAs?$AAi?$AAp@ 00545810     pjsip-core-i386-win32-vc8-debug:sip_util_statefull.obj
 0003:00006908       ??_C@_1FK@KDJACFDP@?$AAe?$AAn?$AAd?$AAp?$AAt?$AA?5?$AA?$CG?$AA?$CG?$AA?5?$AAt?$AAd?$AAa?$AAt?$AAa?$AA?5?$AA?$CG?$AA?$CG?$AA?5?$AA?$CI?$AAt?$AAi?$AAm?$AAe?$AAo?$AAu?$AAt?$AA?$DN?$AA?$DN?$AA?9?$AA1?$AA?5?$AA?$HM@ 00545908     pjsip-core-i386-win32-vc8-debug:sip_util_statefull.obj
 0003:00006974       ??_C@_1DG@FANFAPDE@?$AAm?$AAo?$AAd?$AA_?$AAs?$AAt?$AAa?$AAt?$AAe?$AAf?$AAu?$AAl?$AA_?$AAu?$AAt?$AAi?$AAl?$AA?4?$AAi?$AAd?$AA?5?$AA?$CB?$AA?$DN?$AA?5?$AA?9?$AA1?$AA?$AA@ 00545974     pjsip-core-i386-win32-vc8-debug:sip_util_statefull.obj
 0003:000069b4       ??_C@_0BF@GBGCNFO@It?5shouldn?8t?5happen?$CB?$AA@ 005459b4     pjsip-core-i386-win32-vc8-debug:sip_transport_udp.obj
 0003:000069d0       ??_C@_1MK@OLDFMFBJ@?$AAc?$AA?3?$AA?2?$AAu?$AAs?$AAe?$AAr?$AAs?$AA?2?$AA9?$AA2?$AA0?$AA0?$AA?2?$AAd?$AAe?$AAs?$AAk?$AAt?$AAo?$AAp?$AA?2?$AAw?$AAo?$AAr?$AAk?$AA?2?$AAp?$AAj?$AAs?$AAi?$AAp@ 005459d0     pjsip-core-i386-win32-vc8-debug:sip_transport_udp.obj
 0003:00006ac4       ??_C@_1DA@HAPHJBON@?$AA?$CB?$AA?$CC?$AAI?$AAt?$AA?5?$AAs?$AAh?$AAo?$AAu?$AAl?$AAd?$AAn?$AA?8?$AAt?$AA?5?$AAh?$AAa?$AAp?$AAp?$AAe?$AAn?$AA?$CB?$AA?$CC?$AA?$AA@ 00545ac4     pjsip-core-i386-win32-vc8-debug:sip_transport_udp.obj
 0003:00006b00       ??_C@_0CO@OCMFJIFA@Warning?3?5pj_ioqueue_recvfrom?$CI?$CJ?5c@ 00545b00     pjsip-core-i386-win32-vc8-debug:sip_transport_udp.obj
 0003:00006b38       ??_C@_1DC@OPBFPDDM@?$AAi?$AA?5?$AA?$DM?$AA?5?$AAM?$AAA?$AAX?$AA_?$AAI?$AAM?$AAM?$AAE?$AAD?$AAI?$AAA?$AAT?$AAE?$AA_?$AAP?$AAA?$AAC?$AAK?$AAE?$AAT?$AA?$AA@ 00545b38     pjsip-core-i386-win32-vc8-debug:sip_transport_udp.obj
 0003:00006b74       ??_C@_0BN@BEFELMIM@Warning?3?5pj_ioqueue_recvfrom?$AA@ 00545b74     pjsip-core-i386-win32-vc8-debug:sip_transport_udp.obj
 0003:00006b98       ??_C@_0EC@ICGMJAB@FATAL?3?5pj_ioqueue_recvfrom?$CI?$CJ?5err@ 00545b98     pjsip-core-i386-win32-vc8-debug:sip_transport_udp.obj
 0003:00006be8       ??_C@_1CG@BGOACFGG@?$AAt?$AAr?$AAa?$AAn?$AAs?$AAp?$AAo?$AAr?$AAt?$AA?5?$AA?$CG?$AA?$CG?$AA?5?$AAt?$AAd?$AAa?$AAt?$AAa?$AA?$AA@ 00545be8     pjsip-core-i386-win32-vc8-debug:sip_transport_udp.obj
 0003:00006c18       ??_C@_1EG@GPLFHMJI@?$AAt?$AAd?$AAa?$AAt?$AAa?$AA?9?$AA?$DO?$AAo?$AAp?$AA_?$AAk?$AAe?$AAy?$AA?4?$AAt?$AAd?$AAa?$AAt?$AAa?$AA?5?$AA?$DN?$AA?$DN?$AA?5?$AA?$CI?$AA?$CI?$AAv?$AAo?$AAi?$AAd?$AA?5?$AA?$CK?$AA?$CJ@ 00545c18     pjsip-core-i386-win32-vc8-debug:sip_transport_udp.obj
 0003:00006c6c       ??_C@_1CO@BFILFBP@?$AAa?$AA_?$AAn?$AAa?$AAm?$AAe?$AA?9?$AA?$DO?$AAh?$AAo?$AAs?$AAt?$AA?4?$AAs?$AAl?$AAe?$AAn?$AA?5?$AA?$CB?$AA?$DN?$AA?5?$AA0?$AA?$AA@ 00545c6c     pjsip-core-i386-win32-vc8-debug:sip_transport_udp.obj
 0003:00006ca4       ??_C@_0BM@EECGNFMH@udp?5?$CFs?5?$FLpublished?5as?5?$CFs?3?$CFd?$FN?$AA@ 00545ca4     pjsip-core-i386-win32-vc8-debug:sip_transport_udp.obj
 0003:00006cc8       ??_C@_0DC@GICKAICP@Shouldn?8t?5happen?5because?5PJ_IOQU@ 00545cc8     pjsip-core-i386-win32-vc8-debug:sip_transport_udp.obj
 0003:00006d08       ??_C@_1GK@HIOEKOAM@?$AA?$CB?$AA?$CC?$AAS?$AAh?$AAo?$AAu?$AAl?$AAd?$AAn?$AA?8?$AAt?$AA?5?$AAh?$AAa?$AAp?$AAp?$AAe?$AAn?$AA?5?$AAb?$AAe?$AAc?$AAa?$AAu?$AAs?$AAe?$AA?5?$AAP?$AAJ?$AA_?$AAI?$AAO@ 00545d08     pjsip-core-i386-win32-vc8-debug:sip_transport_udp.obj
 0003:00006d88       ??_C@_1FK@GHPFMLFH@?$AAe?$AAn?$AAd?$AAp?$AAt?$AA?5?$AA?$CG?$AA?$CG?$AA?5?$AAs?$AAo?$AAc?$AAk?$AA?$CB?$AA?$DN?$AA?$CI?$AA?9?$AA1?$AA?$CJ?$AA?5?$AA?$CG?$AA?$CG?$AA?5?$AAa?$AA_?$AAn?$AAa?$AAm?$AAe?$AA?5?$AA?$CG?$AA?$CG@ 00545d88     pjsip-core-i386-win32-vc8-debug:sip_transport_udp.obj
 0003:00006df4       ??_C@_07LINNJFLK@udpv6?$CFp?$AA@ 00545df4     pjsip-core-i386-win32-vc8-debug:sip_transport_udp.obj
 0003:00006e00       ??_C@_01OHGJGJJP@?$FL?$AA@ 00545e00     pjsip-core-i386-win32-vc8-debug:sip_transport_udp.obj
 0003:00006e04       ??_C@_01LBDDMOBJ@?$FN?$AA@ 00545e04     pjsip-core-i386-win32-vc8-debug:sip_transport_udp.obj
 0003:00006e08       ??_C@_05DOGEOMC@udp?$CFp?$AA@ 00545e08     pjsip-core-i386-win32-vc8-debug:sip_transport_udp.obj
 0003:00006e10       ??_C@_07OHKHACFK@0?40?40?40?$AA@ 00545e10     pjsip-core-i386-win32-vc8-debug:sip_transport_udp.obj
 0003:00006e1c       ??_C@_03LHJHGOJD@?3?30?$AA@ 00545e1c     pjsip-core-i386-win32-vc8-debug:sip_transport_udp.obj
 0003:00006e20       ??_C@_0DB@MDELAJDF@SIP?5?$CFs?5started?0?5published?5addres@ 00545e20     pjsip-core-i386-win32-vc8-debug:sip_transport_udp.obj
 0003:00006e5c       ??_C@_1CG@LPEBONOA@?$AAe?$AAn?$AAd?$AAp?$AAt?$AA?5?$AA?$CG?$AA?$CG?$AA?5?$AAa?$AAs?$AAy?$AAn?$AAc?$AA_?$AAc?$AAn?$AAt?$AA?$AA@ 00545e5c     pjsip-core-i386-win32-vc8-debug:sip_transport_udp.obj
 0003:00006e8c       ??_C@_1DC@PPCDJBEG@?$AAt?$AAr?$AAa?$AAn?$AAs?$AAp?$AAo?$AAr?$AAt?$AA?5?$AA?$CB?$AA?$DN?$AA?5?$AA?$CI?$AA?$CI?$AAv?$AAo?$AAi?$AAd?$AA?5?$AA?$CK?$AA?$CJ?$AA0?$AA?$CJ?$AA?$AA@ 00545e8c     pjsip-core-i386-win32-vc8-debug:sip_transport_udp.obj
 0003:00006ec8       ??_C@_1CK@GGMIAGNJ@?$AA?$CI?$AAo?$AAp?$AAt?$AAi?$AAo?$AAn?$AA?5?$AA?$CG?$AA?5?$AA0?$AAx?$AA0?$AA3?$AA?$CJ?$AA?5?$AA?$CB?$AA?$DN?$AA?5?$AA0?$AA?$AA@ 00545ec8     pjsip-core-i386-win32-vc8-debug:sip_transport_udp.obj
 0003:00006efc       ??_C@_1CC@MEECDJNB@?$AAt?$AAp?$AA?9?$AA?$DO?$AAi?$AAs?$AA_?$AAp?$AAa?$AAu?$AAs?$AAe?$AAd?$AA?$DN?$AA?$DN?$AA0?$AA?$AA@ 00545efc     pjsip-core-i386-win32-vc8-debug:sip_transport_udp.obj
 0003:00006f24       ??_C@_0BJ@OONKAPDN@SIP?5UDP?5transport?5paused?$AA@ 00545f24     pjsip-core-i386-win32-vc8-debug:sip_transport_udp.obj
 0003:00006f44       ??_C@_1BM@MDAHBGKL@?$AAt?$AAp?$AA?9?$AA?$DO?$AAi?$AAs?$AA_?$AAp?$AAa?$AAu?$AAs?$AAe?$AAd?$AA?$AA@ 00545f44     pjsip-core-i386-win32-vc8-debug:sip_transport_udp.obj
 0003:00006f68       ??_C@_0DK@BDLNOKD@SIP?5UDP?5transport?5restarted?0?5pub@ 00545f68     pjsip-core-i386-win32-vc8-debug:sip_transport_udp.obj
 0003:00006fb0       ??_C@_0BB@IDOBLAPN@?$CFs?3?5?$CFs?5?$FLcode?$DN?$CFd?$FN?$AA@ 00545fb0     pjsip-core-i386-win32-vc8-debug:sip_transport_tcp.obj
 0003:00006fc8       ??_C@_1MK@JCEMJCAP@?$AAc?$AA?3?$AA?2?$AAu?$AAs?$AAe?$AAr?$AAs?$AA?2?$AA9?$AA2?$AA0?$AA0?$AA?2?$AAd?$AAe?$AAs?$AAk?$AAt?$AAo?$AAp?$AA?2?$AAw?$AAo?$AAr?$AAk?$AA?2?$AAp?$AAj?$AAs?$AAi?$AAp@ 00545fc8     pjsip-core-i386-win32-vc8-debug:sip_transport_tcp.obj
 0003:000070bc       ??_C@_1DA@HJFHJJDJ@?$AAe?$AAn?$AAd?$AAp?$AAt?$AA?5?$AA?$CG?$AA?$CG?$AA?5?$AAc?$AAf?$AAg?$AA?9?$AA?$DO?$AAa?$AAs?$AAy?$AAn?$AAc?$AA_?$AAc?$AAn?$AAt?$AA?$AA@ 005460bc     pjsip-core-i386-win32-vc8-debug:sip_transport_tcp.obj
 0003:000070f8       ??_C@_06DPOCNLKD@tcplis?$AA@ 005460f8     pjsip-core-i386-win32-vc8-debug:sip_transport_tcp.obj
 0003:00007100       ??_C@_19GLKFFFDC@?$AAp?$AAo?$AAo?$AAl?$AA?$AA@ 00546100     pjsip-core-i386-win32-vc8-debug:sip_transport_tcp.obj
 0003:0000710c       ??_C@_01DHDKHMHF@6?$AA@    0054610c     pjsip-core-i386-win32-vc8-debug:sip_transport_tcp.obj
 0003:00007110       ??_C@_0BI@POMKCEN@SIP?5TCP?5listener?5socket?$AA@ 00546110     pjsip-core-i386-win32-vc8-debug:sip_transport_tcp.obj
 0003:0000712c       ??_C@_0CF@JENAKNGB@Warning?3?5error?5applying?5SO_REUSE@ 0054612c     pjsip-core-i386-win32-vc8-debug:sip_transport_tcp.obj
 0003:00007158       ??_C@_09FHHHEOOL@tcplis?3?$CFd?$AA@ 00546158     pjsip-core-i386-win32-vc8-debug:sip_transport_tcp.obj
 0003:00007164       ??_C@_0DL@FNMEJJLB@SIP?5TCP?5listener?5ready?5for?5incom@ 00546164     pjsip-core-i386-win32-vc8-debug:sip_transport_tcp.obj
 0003:000071ac       ??_C@_0BL@KAOHHPGJ@SIP?5TCP?5listener?5destroyed?$AA@ 005461ac     pjsip-core-i386-win32-vc8-debug:sip_transport_tcp.obj
 0003:000071cc       ??_C@_04FMMHFHOO@?$AN?6?$AN?6?$AA@ 005461cc     pjsip-core-i386-win32-vc8-debug:sip_transport_tcp.obj
 0003:000071d4       ??_C@_1BK@NCDAOFCM@?$AAs?$AAo?$AAc?$AAk?$AA?5?$AA?$CB?$AA?$DN?$AA?5?$AA?$CI?$AA?9?$AA1?$AA?$CJ?$AA?$AA@ 005461d4     pjsip-core-i386-win32-vc8-debug:sip_transport_tcp.obj
 0003:000071f4       ??_C@_03FPEIBLKH@tcp?$AA@  005461f4     pjsip-core-i386-win32-vc8-debug:sip_transport_tcp.obj
 0003:000071f8       ??_C@_1CI@KPEGEECM@?$AAp?$AAo?$AAo?$AAl?$AA?5?$AA?$CB?$AA?$DN?$AA?5?$AA?$CI?$AA?$CI?$AAv?$AAo?$AAi?$AAd?$AA?5?$AA?$CK?$AA?$CJ?$AA0?$AA?$CJ?$AA?$AA@ 005461f8     pjsip-core-i386-win32-vc8-debug:sip_transport_tcp.obj
 0003:00007228       ??_C@_06GFDFLLAN@tcps?$CFp?$AA@ 00546228     pjsip-core-i386-win32-vc8-debug:sip_transport_tcp.obj
 0003:00007230       ??_C@_06DFCMOMJC@tcpc?$CFp?$AA@ 00546230     pjsip-core-i386-win32-vc8-debug:sip_transport_tcp.obj
 0003:00007238       ??_C@_08CNIFCNBJ@?$CFs?5to?5?$CFs?$AA@ 00546238     pjsip-core-i386-win32-vc8-debug:sip_transport_tcp.obj
 0003:00007244       ??_C@_06HJHJCKIO@server?$AA@ 00546244     pjsip-core-i386-win32-vc8-debug:sip_transport_tcp.obj
 0003:0000724c       ??_C@_06DGDLPBAN@client?$AA@ 0054624c     pjsip-core-i386-win32-vc8-debug:sip_transport_tcp.obj
 0003:00007254       ??_C@_0BJ@DFHDKEKC@TCP?5?$CFs?5transport?5created?$AA@ 00546254     pjsip-core-i386-win32-vc8-debug:sip_transport_tcp.obj
 0003:00007274       ??_C@_0CL@FENNCGAI@TCP?5transport?5destroyed?5with?5rea@ 00546274     pjsip-core-i386-win32-vc8-debug:sip_transport_tcp.obj
 0003:000072a8       ??_C@_0CB@PCGILDE@TCP?5transport?5destroyed?5normally@ 005462a8     pjsip-core-i386-win32-vc8-debug:sip_transport_tcp.obj
 0003:000072d0       ??_C@_0BG@HHDCAEDN@Unable?5to?5create?5pool?$AA@ 005462d0     pjsip-core-i386-win32-vc8-debug:sip_transport_tcp.obj
 0003:000072ec       ??_C@_0CM@POHAPFFF@pj_activesock_start_read?$CI?$CJ?5error@ 005462ec     pjsip-core-i386-win32-vc8-debug:sip_transport_tcp.obj
 0003:00007320       ??_C@_1HO@HECPKCCC@?$AAf?$AAa?$AAc?$AAt?$AAo?$AAr?$AAy?$AA?5?$AA?$CG?$AA?$CG?$AA?5?$AAm?$AAg?$AAr?$AA?5?$AA?$CG?$AA?$CG?$AA?5?$AAe?$AAn?$AAd?$AAp?$AAt?$AA?5?$AA?$CG?$AA?$CG?$AA?5?$AAr?$AAe?$AAm?$AA_?$AAa@ 00546320     pjsip-core-i386-win32-vc8-debug:sip_transport_tcp.obj
 0003:000073b8       ??_C@_1BEG@KEABEOOH@?$AA?$CI?$AAr?$AAe?$AAm?$AA_?$AAa?$AAd?$AAd?$AAr?$AA?9?$AA?$DO?$AAa?$AAd?$AAd?$AAr?$AA?4?$AAs?$AAa?$AA_?$AAf?$AAa?$AAm?$AAi?$AAl?$AAy?$AA?5?$AA?$DN?$AA?$DN?$AA?5?$AAP?$AAJ?$AA_@ 005463b8     pjsip-core-i386-win32-vc8-debug:sip_transport_tcp.obj
 0003:00007540       ??_C@_0BI@FPEGINLL@outgoing?5SIP?5TCP?5socket?$AA@ 00546540     pjsip-core-i386-win32-vc8-debug:sip_transport_tcp.obj
 0003:0000755c       ??_C@_0DC@DDJEFAFO@TCP?5transport?5?$CF?4?$CKs?3?$CFd?5is?5connect@ 0054655c     pjsip-core-i386-win32-vc8-debug:sip_transport_tcp.obj
 0003:00007598       ??_C@_0ED@KEGBPDAH@TCP?5listener?5?$CF?4?$CKs?3?$CFd?3?5got?5incomi@ 00546598     pjsip-core-i386-win32-vc8-debug:sip_transport_tcp.obj
 0003:000075e8       ??_C@_0BI@LLEHCIEH@incoming?5SIP?5TCP?5socket?$AA@ 005465e8     pjsip-core-i386-win32-vc8-debug:sip_transport_tcp.obj
 0003:00007604       ??_C@_0BI@EPFKOGCB@New?5transport?5cancelled?$AA@ 00546604     pjsip-core-i386-win32-vc8-debug:sip_transport_tcp.obj
 0003:00007620       ??_C@_0BK@CIEPOKAA@TCP?5send?$CI?$CJ?5error?0?5sent?$DN?$CFd?$AA@ 00546620     pjsip-core-i386-win32-vc8-debug:sip_transport_tcp.obj
 0003:00007640       ??_C@_1KI@HICCKOLL@?$AAr?$AAe?$AAm?$AA_?$AAa?$AAd?$AAd?$AAr?$AA?5?$AA?$CG?$AA?$CG?$AA?5?$AA?$CI?$AAa?$AAd?$AAd?$AAr?$AA_?$AAl?$AAe?$AAn?$AA?$DN?$AA?$DN?$AAs?$AAi?$AAz?$AAe?$AAo?$AAf?$AA?$CI?$AAp?$AAj@ 00546640     pjsip-core-i386-win32-vc8-debug:sip_transport_tcp.obj
 0003:00007710       ??_C@_1EM@HDDFAKKF@?$AA?$CI?$AAv?$AAo?$AAi?$AAd?$AA?$CK?$AA?$CJ?$AAr?$AAd?$AAa?$AAt?$AAa?$AA?9?$AA?$DO?$AAp?$AAk?$AAt?$AA_?$AAi?$AAn?$AAf?$AAo?$AA?4?$AAp?$AAa?$AAc?$AAk?$AAe?$AAt?$AA?5?$AA?$DN?$AA?$DN@ 00546710     pjsip-core-i386-win32-vc8-debug:sip_transport_tcp.obj
 0003:00007770       ??_C@_1FK@OPJEJPNA@?$AAs?$AAi?$AAz?$AAe?$AA_?$AAe?$AAa?$AAt?$AAe?$AAn?$AA?5?$AA?$DM?$AA?$DN?$AA?5?$AA?$CI?$AAp?$AAj?$AA_?$AAs?$AAi?$AAz?$AAe?$AA_?$AAt?$AA?$CJ?$AAr?$AAd?$AAa?$AAt?$AAa?$AA?9?$AA?$DO@ 00546770     pjsip-core-i386-win32-vc8-debug:sip_transport_tcp.obj
 0003:000077dc       ??_C@_0BG@IILKCFP@TCP?5connection?5closed?$AA@ 005467dc     pjsip-core-i386-win32-vc8-debug:sip_transport_tcp.obj
 0003:000077f8       ??_C@_0BE@FIBBDPPG@TCP?5connect?$CI?$CJ?5error?$AA@ 005467f8     pjsip-core-i386-win32-vc8-debug:sip_transport_tcp.obj
 0003:00007810       ??_C@_0CO@PIABINJH@TCP?5transport?5?$CF?4?$CKs?3?$CFd?5is?5connect@ 00546810     pjsip-core-i386-win32-vc8-debug:sip_transport_tcp.obj
 0003:00007848       ??_C@_0CJ@BGCNPAGK@Sending?5?$CFd?5byte?$CIs?$CJ?5keep?9alive?5to@ 00546848     pjsip-core-i386-win32-vc8-debug:sip_transport_tcp.obj
 0003:0000787c       ??_C@_0CA@COAPONPJ@Error?5sending?5keep?9alive?5packet?$AA@ 0054687c     pjsip-core-i386-win32-vc8-debug:sip_transport_tcp.obj
 0003:000078a4       ??_C@_0O@CDKJIHHI@mod?9tsx?9layer?$AA@ 005468a4     pjsip-core-i386-win32-vc8-debug:sip_transaction.obj
 0003:000078b4       ??_C@_04KHKKIIL@Null?$AA@  005468b4     pjsip-core-i386-win32-vc8-debug:sip_transaction.obj
 0003:000078bc       ??_C@_07BNCBFEGH@Calling?$AA@ 005468bc     pjsip-core-i386-win32-vc8-debug:sip_transaction.obj
 0003:000078c8       ??_C@_0L@BKKAFK@Proceeding?$AA@ 005468c8     pjsip-core-i386-win32-vc8-debug:sip_transaction.obj
 0003:000078d8       ??_C@_09MIJAKHKB@Completed?$AA@ 005468d8     pjsip-core-i386-win32-vc8-debug:sip_transaction.obj
 0003:000078e4       ??_C@_09ONANMLIC@Confirmed?$AA@ 005468e4     pjsip-core-i386-win32-vc8-debug:sip_transaction.obj
 0003:000078f0       ??_C@_0L@NNDINIPK@Terminated?$AA@ 005468f0     pjsip-core-i386-win32-vc8-debug:sip_transaction.obj
 0003:00007900       ??_C@_09KDBKJCNL@Destroyed?$AA@ 00546900     pjsip-core-i386-win32-vc8-debug:sip_transaction.obj
 0003:0000790c       ??_C@_03IIGECEEC@UAC?$AA@  0054690c     pjsip-core-i386-win32-vc8-debug:sip_transaction.obj
 0003:00007910       ??_C@_03MCKGDGBD@UAS?$AA@  00546910     pjsip-core-i386-win32-vc8-debug:sip_transaction.obj
 0003:00007918       ??_C@_1MG@GDFDIOIH@?$AAc?$AA?3?$AA?2?$AAu?$AAs?$AAe?$AAr?$AAs?$AA?2?$AA9?$AA2?$AA0?$AA0?$AA?2?$AAd?$AAe?$AAs?$AAk?$AAt?$AAo?$AAp?$AA?2?$AAw?$AAo?$AAr?$AAk?$AA?2?$AAp?$AAj?$AAs?$AAi?$AAp@ 00546918     pjsip-core-i386-win32-vc8-debug:sip_transaction.obj
 0003:00007a08       ??_C@_1DO@OMOBPGDD@?$AAp?$AAo?$AAo?$AAl?$AA?5?$AA?$CG?$AA?$CG?$AA?5?$AAs?$AAt?$AAr?$AA?5?$AA?$CG?$AA?$CG?$AA?5?$AAm?$AAe?$AAt?$AAh?$AAo?$AAd?$AA?5?$AA?$CG?$AA?$CG?$AA?5?$AAr?$AAd?$AAa?$AAt?$AAa?$AA?$AA@ 00546a08     pjsip-core-i386-win32-vc8-debug:sip_transaction.obj
 0003:00007a54       ??_C@_1CI@CHIMELAL@?$AAr?$AAd?$AAa?$AAt?$AAa?$AA?9?$AA?$DO?$AAm?$AAs?$AAg?$AA_?$AAi?$AAn?$AAf?$AAo?$AA?4?$AAv?$AAi?$AAa?$AA?$AA@ 00546a54     pjsip-core-i386-win32-vc8-debug:sip_transaction.obj
 0003:00007a84       ??_C@_1CK@GGBEIEPP@?$AAr?$AAd?$AAa?$AAt?$AAa?$AA?9?$AA?$DO?$AAm?$AAs?$AAg?$AA_?$AAi?$AAn?$AAf?$AAo?$AA?4?$AAc?$AAs?$AAe?$AAq?$AA?$AA@ 00546a84     pjsip-core-i386-win32-vc8-debug:sip_transaction.obj
 0003:00007ab8       ??_C@_1CK@PHMDIEGE@?$AAr?$AAd?$AAa?$AAt?$AAa?$AA?9?$AA?$DO?$AAm?$AAs?$AAg?$AA_?$AAi?$AAn?$AAf?$AAo?$AA?4?$AAf?$AAr?$AAo?$AAm?$AA?$AA@ 00546ab8     pjsip-core-i386-win32-vc8-debug:sip_transaction.obj
 0003:00007af0       ??_C@_1EA@DKNNOODP@?$AAp?$AAo?$AAo?$AAl?$AA?5?$AA?$CG?$AA?$CG?$AA?5?$AAk?$AAe?$AAy?$AA?5?$AA?$CG?$AA?$CG?$AA?5?$AAm?$AAe?$AAt?$AAh?$AAo?$AAd?$AA?5?$AA?$CG?$AA?$CG?$AA?5?$AAb?$AAr?$AAa?$AAn?$AAc?$AAh?$AA?$AA@ 00546af0     pjsip-core-i386-win32-vc8-debug:sip_transaction.obj
 0003:00007b40       ??_C@_1EC@OCCPJFL@?$AAm?$AAo?$AAd?$AA_?$AAt?$AAs?$AAx?$AA_?$AAl?$AAa?$AAy?$AAe?$AAr?$AA?4?$AAe?$AAn?$AAd?$AAp?$AAt?$AA?$DN?$AA?$DN?$AA?$CI?$AA?$CI?$AAv?$AAo?$AAi?$AAd?$AA?5?$AA?$CK?$AA?$CJ?$AA0?$AA?$CJ@ 00546b40     pjsip-core-i386-win32-vc8-debug:sip_transaction.obj
 0003:00007b90       ??_C@_08NHKHBNMC@tsxlayer?$AA@ 00546b90     pjsip-core-i386-win32-vc8-debug:sip_transaction.obj
 0003:00007ba0       ??_C@_1EC@BOAFDEBH@?$AAm?$AAo?$AAd?$AA_?$AAt?$AAs?$AAx?$AA_?$AAl?$AAa?$AAy?$AAe?$AAr?$AA?4?$AAe?$AAn?$AAd?$AAp?$AAt?$AA?$CB?$AA?$DN?$AA?$CI?$AA?$CI?$AAv?$AAo?$AAi?$AAd?$AA?5?$AA?$CK?$AA?$CJ?$AA0?$AA?$CJ@ 00546ba0     pjsip-core-i386-win32-vc8-debug:sip_transaction.obj
 0003:00007bf0       ??_C@_1DO@OMIGMOJO@?$AAt?$AAs?$AAx?$AA?9?$AA?$DO?$AAt?$AAr?$AAa?$AAn?$AAs?$AAa?$AAc?$AAt?$AAi?$AAo?$AAn?$AA_?$AAk?$AAe?$AAy?$AA?4?$AAs?$AAl?$AAe?$AAn?$AA?5?$AA?$CB?$AA?$DN?$AA?5?$AA0?$AA?$AA@ 00546bf0     pjsip-core-i386-win32-vc8-debug:sip_transaction.obj
 0003:00007c3c       ??_C@_0DB@ELBLLJGF@Unable?5to?5register?5?$CF?4?$CKs?5transact@ 00546c3c     pjsip-core-i386-win32-vc8-debug:sip_transaction.obj
 0003:00007c78       ??_C@_0BC@LHFGMDJJ@sip_transaction?4c?$AA@ 00546c78     pjsip-core-i386-win32-vc8-debug:sip_transaction.obj
 0003:00007c90       ??_C@_0CC@CEIKILH@Stopping?5transaction?5layer?5modul@ 00546c90     pjsip-core-i386-win32-vc8-debug:sip_transaction.obj
 0003:00007cb8       ??_C@_0CB@HOMFNBLL@Stopped?5transaction?5layer?5module@ 00546cb8     pjsip-core-i386-win32-vc8-debug:sip_transaction.obj
 0003:00007ce0       ??_C@_0CD@MKMHPCL@Transaction?5layer?5module?5destroy@ 00546ce0     pjsip-core-i386-win32-vc8-debug:sip_transaction.obj
 0003:00007d0c       ??_C@_0DF@EFJDAPKP@Failed?5to?5register?5transaction?5l@ 00546d0c     pjsip-core-i386-win32-vc8-debug:sip_transaction.obj
 0003:00007d4c       ??_C@_0BL@LHNOMDKC@Dumping?5transaction?5table?3?$AA@ 00546d4c     pjsip-core-i386-win32-vc8-debug:sip_transaction.obj
 0003:00007d6c       ??_C@_0BH@LNPIBBJK@?5Total?5?$CFd?5transactions?$AA@ 00546d6c     pjsip-core-i386-win32-vc8-debug:sip_transaction.obj
 0003:00007d88       ??_C@_0L@PECGINLK@?5?9?5none?5?9?5?$AA@ 00546d88     pjsip-core-i386-win32-vc8-debug:sip_transaction.obj
 0003:00007d98       ??_C@_04CGFJFPFD@none?$AA@ 00546d98     pjsip-core-i386-win32-vc8-debug:sip_transaction.obj
 0003:00007da0       ??_C@_0N@KCFHGJA@?5?$CFs?5?$CFs?$HM?$CFd?$HM?$CFs?$AA@ 00546da0     pjsip-core-i386-win32-vc8-debug:sip_transaction.obj
 0003:00007db0       ??_C@_1BO@PMNFIKDL@?$AAa?$AAc?$AAt?$AAi?$AAv?$AAe?$AA_?$AAi?$AAd?$AA?5?$AA?$CB?$AA?$DN?$AA?5?$AA0?$AA?$AA@ 00546db0     pjsip-core-i386-win32-vc8-debug:sip_transaction.obj
 0003:00007dd4       ??_C@_03ILLHDCNP@tsx?$AA@  00546dd4     pjsip-core-i386-win32-vc8-debug:sip_transaction.obj
 0003:00007dd8       ??_C@_05NPMOPOBK@tsx?$CFp?$AA@ 00546dd8     pjsip-core-i386-win32-vc8-debug:sip_transaction.obj
 0003:00007de0       ??_C@_0BH@PDBDIMMK@Transaction?5destroyed?$CB?$AA@ 00546de0     pjsip-core-i386-win32-vc8-debug:sip_transaction.obj
 0003:00007dfc       ??_C@_0DE@PFNICBJL@Will?5destroy?5later?5because?5trans@ 00546dfc     pjsip-core-i386-win32-vc8-debug:sip_transaction.obj
 0003:00007e3c       ??_C@_0L@KEAKDBBB@Retransmit?$AA@ 00546e3c     pjsip-core-i386-win32-vc8-debug:sip_transaction.obj
 0003:00007e4c       ??_C@_07MKALMBDJ@Timeout?$AA@ 00546e4c     pjsip-core-i386-win32-vc8-debug:sip_transaction.obj
 0003:00007e58       ??_C@_0P@ICKHIBGF@?$CFs?5timer?5event?$AA@ 00546e58     pjsip-core-i386-win32-vc8-debug:sip_transaction.obj
 0003:00007e6c       ??_C@_1CI@LMGEKOLO@?$AAs?$AAt?$AAa?$AAt?$AAe?$AA?5?$AA?$DO?$AA?$DN?$AA?5?$AAt?$AAs?$AAx?$AA?9?$AA?$DO?$AAs?$AAt?$AAa?$AAt?$AAe?$AA?$AA@ 00546e6c     pjsip-core-i386-win32-vc8-debug:sip_transaction.obj
 0003:00007e9c       ??_C@_0CG@BHDJKKPD@State?5changed?5from?5?$CFs?5to?5?$CFs?0?5eve@ 00546e9c     pjsip-core-i386-win32-vc8-debug:sip_transaction.obj
 0003:00007ecc       ??_C@_1CK@PGHKMIBL@?$AAr?$AAd?$AAa?$AAt?$AAa?$AA?5?$AA?$CB?$AA?$DN?$AA?5?$AA?$CI?$AA?$CI?$AAv?$AAo?$AAi?$AAd?$AA?5?$AA?$CK?$AA?$CJ?$AA0?$AA?$CJ?$AA?$AA@ 00546ecc     pjsip-core-i386-win32-vc8-debug:sip_transaction.obj
 0003:00007f00       ??_C@_1DK@IJFPIJJ@?$AAt?$AAd?$AAa?$AAt?$AAa?$AA?5?$AA?$CG?$AA?$CG?$AA?5?$AAt?$AAd?$AAa?$AAt?$AAa?$AA?9?$AA?$DO?$AAm?$AAs?$AAg?$AA?5?$AA?$CG?$AA?$CG?$AA?5?$AAp?$AA_?$AAt?$AAs?$AAx?$AA?$AA@ 00546f00     pjsip-core-i386-win32-vc8-debug:sip_transaction.obj
 0003:00007f48       ??_C@_1GG@HKHDAKCA@?$AAt?$AAd?$AAa?$AAt?$AAa?$AA?9?$AA?$DO?$AAm?$AAs?$AAg?$AA?9?$AA?$DO?$AAl?$AAi?$AAn?$AAe?$AA?4?$AAr?$AAe?$AAq?$AA?4?$AAm?$AAe?$AAt?$AAh?$AAo?$AAd?$AA?4?$AAi?$AAd?$AA?5?$AA?$CB@ 00546f48     pjsip-core-i386-win32-vc8-debug:sip_transaction.obj
 0003:00007fc4       ??_C@_0CN@EDKCNDHP@CSeq?5header?5not?5present?5in?5outgo@ 00546fc4     pjsip-core-i386-win32-vc8-debug:sip_transaction.obj
 0003:00008000       ??_C@_1GA@MNIHDFCK@?$AA?$CB?$AA?$CC?$AAC?$AAS?$AAe?$AAq?$AA?5?$AAh?$AAe?$AAa?$AAd?$AAe?$AAr?$AA?5?$AAn?$AAo?$AAt?$AA?5?$AAp?$AAr?$AAe?$AAs?$AAe?$AAn?$AAt?$AA?5?$AAi?$AAn?$AA?5?$AAo?$AAu?$AAt@ 00547000     pjsip-core-i386-win32-vc8-debug:sip_transaction.obj
 0003:00008074       ??_C@_0BL@NELPIPFA@Transaction?5created?5for?5?$CFs?$AA@ 00547074     pjsip-core-i386-win32-vc8-debug:sip_transaction.obj
 0003:00008098       ??_C@_1EM@JKCBONDD@?$AAr?$AAd?$AAa?$AAt?$AAa?$AA?5?$AA?$CG?$AA?$CG?$AA?5?$AAr?$AAd?$AAa?$AAt?$AAa?$AA?9?$AA?$DO?$AAm?$AAs?$AAg?$AA_?$AAi?$AAn?$AAf?$AAo?$AA?4?$AAm?$AAs?$AAg?$AA?5?$AA?$CG?$AA?$CG?$AA?5@ 00547098     pjsip-core-i386-win32-vc8-debug:sip_transaction.obj
 0003:000080f8       ??_C@_1FI@JLANADKE@?$AAm?$AAs?$AAg?$AA?9?$AA?$DO?$AAl?$AAi?$AAn?$AAe?$AA?4?$AAr?$AAe?$AAq?$AA?4?$AAm?$AAe?$AAt?$AAh?$AAo?$AAd?$AA?4?$AAi?$AAd?$AA?5?$AA?$CB?$AA?$DN?$AA?5?$AAP?$AAJ?$AAS?$AAI?$AAP@ 005470f8     pjsip-core-i386-win32-vc8-debug:sip_transaction.obj
 0003:00008168       ??_C@_0ED@IJNOFMME@Error?3?5CSeq?5header?5contains?5diff@ 00547168     pjsip-core-i386-win32-vc8-debug:sip_transaction.obj
 0003:000081b8       ??_C@_1BG@MPNNHPBG@?$AAt?$AAs?$AAx?$AA?5?$AA?$CG?$AA?$CG?$AA?5?$AAs?$AAe?$AAl?$AA?$AA@ 005471b8     pjsip-core-i386-win32-vc8-debug:sip_transaction.obj
 0003:000081d4       ??_C@_0CB@LPCILHMH@Request?5to?5terminate?5transaction@ 005471d4     pjsip-core-i386-win32-vc8-debug:sip_transaction.obj
 0003:000081fc       ??_C@_1BI@KBKJHGPA@?$AAc?$AAo?$AAd?$AAe?$AA?5?$AA?$DO?$AA?$DN?$AA?5?$AA2?$AA0?$AA0?$AA?$AA@ 005471fc     pjsip-core-i386-win32-vc8-debug:sip_transaction.obj
 0003:00008218       ??_C@_1IK@JAGJODNG@?$AAt?$AAs?$AAx?$AA?9?$AA?$DO?$AAr?$AAo?$AAl?$AAe?$AA?5?$AA?$DN?$AA?$DN?$AA?5?$AAP?$AAJ?$AAS?$AAI?$AAP?$AA_?$AAR?$AAO?$AAL?$AAE?$AA_?$AAU?$AAA?$AAC?$AA?5?$AA?$CG?$AA?$CG?$AA?5?$AAt@ 00547218     pjsip-core-i386-win32-vc8-debug:sip_transaction.obj
 0003:000082c0       ??_C@_0BP@IPFJMBJM@Request?5to?5stop?5retransmission?$AA@ 005472c0     pjsip-core-i386-win32-vc8-debug:sip_transaction.obj
 0003:000082e8       ??_C@_0BH@NJDAONCL@Sending?5?$CFs?5in?5state?5?$CFs?$AA@ 005472e8     pjsip-core-i386-win32-vc8-debug:sip_transaction.obj
 0003:00008304       ??_C@_0BI@PADDBGDM@Incoming?5?$CFs?5in?5state?5?$CFs?$AA@ 00547304     pjsip-core-i386-win32-vc8-debug:sip_transaction.obj
 0003:00008320       ??_C@_1FC@LEHDEODE@?$AAs?$AAe?$AAn?$AAd?$AA_?$AAs?$AAt?$AAa?$AAt?$AAe?$AA?9?$AA?$DO?$AAc?$AAu?$AAr?$AA_?$AAt?$AAr?$AAa?$AAn?$AAs?$AAp?$AAo?$AAr?$AAt?$AA?5?$AA?$CB?$AA?$DN?$AA?5?$AA?$CI?$AA?$CI?$AAv@ 00547320     pjsip-core-i386-win32-vc8-debug:sip_transaction.obj
 0003:00008384       ??_C@_1BE@CIJBJEGI@?$AAs?$AAe?$AAn?$AAt?$AA?5?$AA?$CB?$AA?$DN?$AA?5?$AA0?$AA?$AA@ 00547384     pjsip-core-i386-win32-vc8-debug:sip_transaction.obj
 0003:0000839c       ??_C@_0BP@MFDMMFDJ@Failed?5to?5send?5?$CFs?$CB?5err?$DN?$CFd?5?$CI?$CFs?$CJ?$AA@ 0054739c     pjsip-core-i386-win32-vc8-debug:sip_transaction.obj
 0003:000083c4       ??_C@_0DG@HCJJGEJB@Temporary?5failure?5in?5sending?5?$CFs?0@ 005473c4     pjsip-core-i386-win32-vc8-debug:sip_transaction.obj
 0003:00008404       ??_C@_0CJ@CBOMABNM@Transport?5failed?5to?5send?5?$CFs?$CB?5Err@ 00547404     pjsip-core-i386-win32-vc8-debug:sip_transaction.obj
 0003:00008438       ??_C@_1DM@GCKKNIDH@?$AAt?$AAp?$AA?5?$AA?$CG?$AA?$CG?$AA?5?$AAi?$AAn?$AAf?$AAo?$AA?5?$AA?$CG?$AA?$CG?$AA?5?$AAi?$AAn?$AAf?$AAo?$AA?9?$AA?$DO?$AAu?$AAs?$AAe?$AAr?$AA_?$AAd?$AAa?$AAt?$AAa?$AA?$AA@ 00547438     pjsip-core-i386-win32-vc8-debug:sip_transaction.obj
 0003:00008480       ??_C@_1BK@GOEALIM@?$AAt?$AAs?$AAx?$AA?5?$AA?$CG?$AA?$CG?$AA?5?$AAt?$AAd?$AAa?$AAt?$AAa?$AA?$AA@ 00547480     pjsip-core-i386-win32-vc8-debug:sip_transaction.obj
 0003:000084a0       ??_C@_0BB@HMFOJBGF@Error?5sending?5?$CFs?$AA@ 005474a0     pjsip-core-i386-win32-vc8-debug:sip_transaction.obj
 0003:000084b8       ??_C@_1GM@FDLBKKP@?$AAs?$AAt?$AAa?$AAt?$AAu?$AAs?$AA?5?$AA?$CB?$AA?$DN?$AA?5?$AAP?$AAJ?$AA_?$AAS?$AAU?$AAC?$AAC?$AAE?$AAS?$AAS?$AA?5?$AA?$HM?$AA?$HM?$AA?5?$AAt?$AAs?$AAx?$AA?9?$AA?$DO?$AAt?$AAr?$AAa@ 005474b8     pjsip-core-i386-win32-vc8-debug:sip_transaction.obj
 0003:0000853c       ??_C@_0BD@CANGBNK@Unexpected?5status?$CB?$AA@ 0054753c     pjsip-core-i386-win32-vc8-debug:sip_transaction.obj
 0003:00008554       ??_C@_1CM@MPGMPBCG@?$AA?$CB?$AA?$CC?$AAU?$AAn?$AAe?$AAx?$AAp?$AAe?$AAc?$AAt?$AAe?$AAd?$AA?5?$AAs?$AAt?$AAa?$AAt?$AAu?$AAs?$AA?$CB?$AA?$CC?$AA?$AA@ 00547554     pjsip-core-i386-win32-vc8-debug:sip_transaction.obj
 0003:00008588       ??_C@_0DG@EDJHIGCF@Transport?5error?0?5terminating?5tra@ 00547588     pjsip-core-i386-win32-vc8-debug:sip_transaction.obj
 0003:000085c8       ??_C@_1GO@EFGEOEAI@?$AA?$CI?$AAt?$AAs?$AAx?$AA?9?$AA?$DO?$AAt?$AAr?$AAa?$AAn?$AAs?$AAp?$AAo?$AAr?$AAt?$AA_?$AAf?$AAl?$AAa?$AAg?$AA?5?$AA?$CG?$AA?5?$AAT?$AAS?$AAX?$AA_?$AAH?$AAA?$AAS?$AA_?$AAP@ 005475c8     pjsip-core-i386-win32-vc8-debug:sip_transaction.obj
 0003:0000864c       ??_C@_1CO@ECEBCFIN@?$AAt?$AAs?$AAx?$AA?9?$AA?$DO?$AAs?$AAt?$AAa?$AAt?$AAu?$AAs?$AA_?$AAc?$AAo?$AAd?$AAe?$AA?5?$AA?$DM?$AA?5?$AA2?$AA0?$AA0?$AA?$AA@ 0054764c     pjsip-core-i386-win32-vc8-debug:sip_transaction.obj
 0003:00008684       ??_C@_1DA@CHKFPGLG@?$AAt?$AAs?$AAx?$AA?9?$AA?$DO?$AAs?$AAt?$AAa?$AAt?$AAu?$AAs?$AA_?$AAc?$AAo?$AAd?$AAe?$AA?5?$AA?$DO?$AA?$DN?$AA?5?$AA2?$AA0?$AA0?$AA?$AA@ 00547684     pjsip-core-i386-win32-vc8-debug:sip_transaction.obj
 0003:000086c0       ??_C@_1DE@GPNPBCPO@?$AAt?$AAs?$AAx?$AA?9?$AA?$DO?$AAl?$AAa?$AAs?$AAt?$AA_?$AAt?$AAx?$AA?$CB?$AA?$DN?$AA?$CI?$AA?$CI?$AAv?$AAo?$AAi?$AAd?$AA?5?$AA?$CK?$AA?$CJ?$AA0?$AA?$CJ?$AA?$AA@ 005476c0     pjsip-core-i386-win32-vc8-debug:sip_transaction.obj
 0003:00008700       ??_C@_0CI@CEFAFFOL@Retransmiting?5?$CFs?0?5count?$DN?$CFd?0?5rest@ 00547700     pjsip-core-i386-win32-vc8-debug:sip_transaction.obj
 0003:00008730       ??_C@_1FA@PEGBNKGC@?$AAt?$AAs?$AAx?$AA?9?$AA?$DO?$AAs?$AAt?$AAa?$AAt?$AAe?$AA?5?$AA?$CB?$AA?$DN?$AA?5?$AAP?$AAJ?$AAS?$AAI?$AAP?$AA_?$AAT?$AAS?$AAX?$AA_?$AAS?$AAT?$AAA?$AAT?$AAE?$AA_?$AAC?$AAO@ 00547730     pjsip-core-i386-win32-vc8-debug:sip_transaction.obj
 0003:00008790       ??_C@_17JBPKEIOA@?$AAt?$AAs?$AAx?$AA?$AA@ 00547790     pjsip-core-i386-win32-vc8-debug:sip_transaction.obj
 0003:000087a0       ??_C@_1EG@DAEMFGKA@?$AAt?$AAs?$AAx?$AA?9?$AA?$DO?$AAs?$AAt?$AAa?$AAt?$AAe?$AA?5?$AA?$DN?$AA?$DN?$AA?5?$AAP?$AAJ?$AAS?$AAI?$AAP?$AA_?$AAT?$AAS?$AAX?$AA_?$AAS?$AAT?$AAA?$AAT?$AAE?$AA_?$AAN?$AAU@ 005477a0     pjsip-core-i386-win32-vc8-debug:sip_transaction.obj
 0003:000087f8       ??_C@_1MO@LFBGMEHK@?$AAe?$AAv?$AAe?$AAn?$AAt?$AA?9?$AA?$DO?$AAt?$AAy?$AAp?$AAe?$AA?5?$AA?$DN?$AA?$DN?$AA?5?$AAP?$AAJ?$AAS?$AAI?$AAP?$AA_?$AAE?$AAV?$AAE?$AAN?$AAT?$AA_?$AAR?$AAX?$AA_?$AAM?$AAS@ 005477f8     pjsip-core-i386-win32-vc8-debug:sip_transaction.obj
 0003:000088f0       ??_C@_1EE@EDJGJAAL@?$AAe?$AAv?$AAe?$AAn?$AAt?$AA?9?$AA?$DO?$AAt?$AAy?$AAp?$AAe?$AA?5?$AA?$DN?$AA?$DN?$AA?5?$AAP?$AAJ?$AAS?$AAI?$AAP?$AA_?$AAE?$AAV?$AAE?$AAN?$AAT?$AA_?$AAT?$AAX?$AA_?$AAM?$AAS@ 005478f0     pjsip-core-i386-win32-vc8-debug:sip_transaction.obj
 0003:00008948       ??_C@_1EM@CIPBAKOA@?$AAt?$AAs?$AAx?$AA?9?$AA?$DO?$AAs?$AAt?$AAa?$AAt?$AAe?$AA?5?$AA?$DN?$AA?$DN?$AA?5?$AAP?$AAJ?$AAS?$AAI?$AAP?$AA_?$AAT?$AAS?$AAX?$AA_?$AAS?$AAT?$AAA?$AAT?$AAE?$AA_?$AAC?$AAA@ 00547948     pjsip-core-i386-win32-vc8-debug:sip_transaction.obj
 0003:000089a4       ??_C@_1DI@KIPMPAMA@?$AAt?$AAs?$AAx?$AA?9?$AA?$DO?$AAr?$AAo?$AAl?$AAe?$AA?5?$AA?$DN?$AA?$DN?$AA?5?$AAP?$AAJ?$AAS?$AAI?$AAP?$AA_?$AAR?$AAO?$AAL?$AAE?$AA_?$AAU?$AAA?$AAC?$AA?$AA@ 005479a4     pjsip-core-i386-win32-vc8-debug:sip_transaction.obj
 0003:000089e8       ??_C@_0BB@KDNFAEGO@Unexpected?5event?$AA@ 005479e8     pjsip-core-i386-win32-vc8-debug:sip_transaction.obj
 0003:000089fc       ??_C@_1CI@KGLCANNO@?$AA?$CB?$AA?$CC?$AAU?$AAn?$AAe?$AAx?$AAp?$AAe?$AAc?$AAt?$AAe?$AAd?$AA?5?$AAe?$AAv?$AAe?$AAn?$AAt?$AA?$CC?$AA?$AA@ 005479fc     pjsip-core-i386-win32-vc8-debug:sip_transaction.obj
 0003:00008a30       ??_C@_1EK@CFKEDLIK@?$AAt?$AAs?$AAx?$AA?9?$AA?$DO?$AAs?$AAt?$AAa?$AAt?$AAe?$AA?5?$AA?$DN?$AA?$DN?$AA?5?$AAP?$AAJ?$AAS?$AAI?$AAP?$AA_?$AAT?$AAS?$AAX?$AA_?$AAS?$AAT?$AAA?$AAT?$AAE?$AA_?$AAT?$AAR@ 00547a30     pjsip-core-i386-win32-vc8-debug:sip_transaction.obj
 0003:00008a88       ??_C@_1DI@PIOFKHFP@?$AAt?$AAs?$AAx?$AA?9?$AA?$DO?$AAr?$AAo?$AAl?$AAe?$AA?5?$AA?$DN?$AA?$DN?$AA?5?$AAP?$AAJ?$AAS?$AAI?$AAP?$AA_?$AAR?$AAO?$AAL?$AAE?$AA_?$AAU?$AAA?$AAS?$AA?$AA@ 00547a88     pjsip-core-i386-win32-vc8-debug:sip_transaction.obj
 0003:00008ad0       ??_C@_1KC@KPPIAMJA@?$AAt?$AAs?$AAx?$AA?9?$AA?$DO?$AAs?$AAt?$AAa?$AAt?$AAe?$AA?5?$AA?$DN?$AA?$DN?$AA?5?$AAP?$AAJ?$AAS?$AAI?$AAP?$AA_?$AAT?$AAS?$AAX?$AA_?$AAS?$AAT?$AAA?$AAT?$AAE?$AA_?$AAP?$AAR@ 00547ad0     pjsip-core-i386-win32-vc8-debug:sip_transaction.obj
 0003:00008b94       ??_C@_1DI@FLLNCFGI@?$AAt?$AAs?$AAx?$AA?9?$AA?$DO?$AAl?$AAa?$AAs?$AAt?$AA_?$AAt?$AAx?$AA?5?$AA?$CB?$AA?$DN?$AA?5?$AA?$CI?$AA?$CI?$AAv?$AAo?$AAi?$AAd?$AA?5?$AA?$CK?$AA?$CJ?$AA0?$AA?$CJ?$AA?$AA@ 00547b94     pjsip-core-i386-win32-vc8-debug:sip_transaction.obj
 0003:00008bd8       ??_C@_1DM@COGGBFLK@?$AAm?$AAs?$AAg?$AA?9?$AA?$DO?$AAt?$AAy?$AAp?$AAe?$AA?$DN?$AA?$DN?$AAP?$AAJ?$AAS?$AAI?$AAP?$AA_?$AAR?$AAE?$AAS?$AAP?$AAO?$AAN?$AAS?$AAE?$AA_?$AAM?$AAS?$AAG?$AA?$AA@ 00547bd8     pjsip-core-i386-win32-vc8-debug:sip_transaction.obj
 0003:00008c20       ??_C@_0BF@DIDPGFKN@Should?5not?5happen?$CI?$DP?$CJ?$AA@ 00547c20     pjsip-core-i386-win32-vc8-debug:sip_transaction.obj
 0003:00008c3c       ??_C@_1DA@HGGLPIBL@?$AA?$CB?$AA?$CC?$AAS?$AAh?$AAo?$AAu?$AAl?$AAd?$AA?5?$AAn?$AAo?$AAt?$AA?5?$AAh?$AAa?$AAp?$AAp?$AAe?$AAn?$AA?$CI?$AA?$DP?$AA?$CJ?$AA?$CC?$AA?$AA@ 00547c3c     pjsip-core-i386-win32-vc8-debug:sip_transaction.obj
 0003:00008c78       ??_C@_1KE@CAGBNPGI@?$AAt?$AAs?$AAx?$AA?9?$AA?$DO?$AAs?$AAt?$AAa?$AAt?$AAe?$AA?5?$AA?$DN?$AA?$DN?$AA?5?$AAP?$AAJ?$AAS?$AAI?$AAP?$AA_?$AAT?$AAS?$AAX?$AA_?$AAS?$AAT?$AAA?$AAT?$AAE?$AA_?$AAP?$AAR@ 00547c78     pjsip-core-i386-win32-vc8-debug:sip_transaction.obj
 0003:00008d40       ??_C@_1EE@LLFENLLN@?$AAe?$AAv?$AAe?$AAn?$AAt?$AA?9?$AA?$DO?$AAt?$AAy?$AAp?$AAe?$AA?5?$AA?$DN?$AA?$DN?$AA?5?$AAP?$AAJ?$AAS?$AAI?$AAP?$AA_?$AAE?$AAV?$AAE?$AAN?$AAT?$AA_?$AAR?$AAX?$AA_?$AAM?$AAS@ 00547d40     pjsip-core-i386-win32-vc8-debug:sip_transaction.obj
 0003:00008d94       ??_C@_0BM@BMKJADDJ@Expecting?5response?5message?$CB?$AA@ 00547d94     pjsip-core-i386-win32-vc8-debug:sip_transaction.obj
 0003:00008db8       ??_C@_1DO@KNIABGJD@?$AA?$CB?$AA?$CC?$AAE?$AAx?$AAp?$AAe?$AAc?$AAt?$AAi?$AAn?$AAg?$AA?5?$AAr?$AAe?$AAs?$AAp?$AAo?$AAn?$AAs?$AAe?$AA?5?$AAm?$AAe?$AAs?$AAs?$AAa?$AAg?$AAe?$AA?$CB?$AA?$CC?$AA?$AA@ 00547db8     pjsip-core-i386-win32-vc8-debug:sip_transaction.obj
 0003:00008e08       ??_C@_1FA@MBGMHMCL@?$AAt?$AAs?$AAx?$AA?9?$AA?$DO?$AAs?$AAt?$AAa?$AAt?$AAe?$AA?5?$AA?$DN?$AA?$DN?$AA?5?$AAP?$AAJ?$AAS?$AAI?$AAP?$AA_?$AAT?$AAS?$AAX?$AA_?$AAS?$AAT?$AAA?$AAT?$AAE?$AA_?$AAC?$AAO@ 00547e08     pjsip-core-i386-win32-vc8-debug:sip_transaction.obj
 0003:00008e68       ??_C@_0CK@BFJIAGKI@Received?5illegal?5ACK?5for?5?$CF?4?$CKs?5tr@ 00547e68     pjsip-core-i386-win32-vc8-debug:sip_transaction.obj
 0003:00008ea0       ??_C@_1JM@PIDLPNDF@?$AAe?$AAv?$AAe?$AAn?$AAt?$AA?9?$AA?$DO?$AAt?$AAy?$AAp?$AAe?$AA?5?$AA?$DN?$AA?$DN?$AA?5?$AAP?$AAJ?$AAS?$AAI?$AAP?$AA_?$AAE?$AAV?$AAE?$AAN?$AAT?$AA_?$AAT?$AAX?$AA_?$AAM?$AAS@ 00547ea0     pjsip-core-i386-win32-vc8-debug:sip_transaction.obj
 0003:00008f60       ??_C@_1FO@HIEMJBOI@?$AAe?$AAv?$AAe?$AAn?$AAt?$AA?9?$AA?$DO?$AAb?$AAo?$AAd?$AAy?$AA?4?$AAt?$AAi?$AAm?$AAe?$AAr?$AA?4?$AAe?$AAn?$AAt?$AAr?$AAy?$AA?5?$AA?$DN?$AA?$DN?$AA?5?$AA?$CG?$AAt?$AAs?$AAx?$AA?9@ 00547f60     pjsip-core-i386-win32-vc8-debug:sip_transaction.obj
 0003:00008fd0       ??_C@_1FA@EIPBHIIC@?$AAt?$AAs?$AAx?$AA?9?$AA?$DO?$AAs?$AAt?$AAa?$AAt?$AAe?$AA?5?$AA?$DN?$AA?$DN?$AA?5?$AAP?$AAJ?$AAS?$AAI?$AAP?$AA_?$AAT?$AAS?$AAX?$AA_?$AAS?$AAT?$AAA?$AAT?$AAE?$AA_?$AAC?$AAO@ 00547fd0     pjsip-core-i386-win32-vc8-debug:sip_transaction.obj
 0003:00009030       ??_C@_1EM@JCLOFBFI@?$AAt?$AAs?$AAx?$AA?9?$AA?$DO?$AAm?$AAe?$AAt?$AAh?$AAo?$AAd?$AA?4?$AAi?$AAd?$AA?5?$AA?$DN?$AA?$DN?$AA?5?$AAP?$AAJ?$AAS?$AAI?$AAP?$AA_?$AAI?$AAN?$AAV?$AAI?$AAT?$AAE?$AA_?$AAM@ 00548030     pjsip-core-i386-win32-vc8-debug:sip_transaction.obj
 0003:00009090       ??_C@_1LM@GLKCGDEI@?$AAm?$AAs?$AAg?$AA?9?$AA?$DO?$AAl?$AAi?$AAn?$AAe?$AA?4?$AAr?$AAe?$AAq?$AA?4?$AAm?$AAe?$AAt?$AAh?$AAo?$AAd?$AA?4?$AAi?$AAd?$AA?5?$AA?$DN?$AA?$DN?$AA?5?$AAP?$AAJ?$AAS?$AAI?$AAP@ 00548090     pjsip-core-i386-win32-vc8-debug:sip_transaction.obj
 0003:00009178       ??_C@_1FC@NIMEPMCP@?$AAt?$AAs?$AAx?$AA?9?$AA?$DO?$AAs?$AAt?$AAa?$AAt?$AAe?$AA?5?$AA?$DN?$AA?$DN?$AA?5?$AAP?$AAJ?$AAS?$AAI?$AAP?$AA_?$AAT?$AAS?$AAX?$AA_?$AAS?$AAT?$AAA?$AAT?$AAE?$AA_?$AAT?$AAE@ 00548178     pjsip-core-i386-win32-vc8-debug:sip_transaction.obj
 0003:000091dc       ??_C@_06GBGGOGBI@mod?9ua?$AA@ 005481dc     pjsip-core-i386-win32-vc8-debug:sip_ua_layer.obj
 0003:000091e4       ??_C@_04JKMMAKMG@ua?$CFp?$AA@ 005481e4     pjsip-core-i386-win32-vc8-debug:sip_ua_layer.obj
 0003:000091ec       ??_C@_05OKIAFJEO@?5ua?$CFp?$AA@ 005481ec     pjsip-core-i386-win32-vc8-debug:sip_ua_layer.obj
 0003:000091f8       ??_C@_1MA@JALHEHCF@?$AAc?$AA?3?$AA?2?$AAu?$AAs?$AAe?$AAr?$AAs?$AA?2?$AA9?$AA2?$AA0?$AA0?$AA?2?$AAd?$AAe?$AAs?$AAk?$AAt?$AAo?$AAp?$AA?2?$AAw?$AAo?$AAr?$AAk?$AA?2?$AAp?$AAj?$AAs?$AAi?$AAp@ 005481f8     pjsip-core-i386-win32-vc8-debug:sip_ua_layer.obj
 0003:000092e0       ??_C@_1CI@LBJMJHFA@?$AAm?$AAo?$AAd?$AA_?$AAu?$AAa?$AA?4?$AAm?$AAo?$AAd?$AA?4?$AAi?$AAd?$AA?5?$AA?$DN?$AA?$DN?$AA?5?$AA?9?$AA1?$AA?$AA@ 005482e0     pjsip-core-i386-win32-vc8-debug:sip_ua_layer.obj
 0003:00009310       ??_C@_1CE@HBPNHBHJ@?$AAu?$AAa?$AA?5?$AA?$DN?$AA?$DN?$AA?5?$AA?$CG?$AAm?$AAo?$AAd?$AA_?$AAu?$AAa?$AA?4?$AAm?$AAo?$AAd?$AA?$AA@ 00548310     pjsip-core-i386-win32-vc8-debug:sip_ua_layer.obj
 0003:0000933c       ??_C@_1CI@LIIODHCN@?$AAm?$AAo?$AAd?$AA_?$AAu?$AAa?$AA?4?$AAm?$AAo?$AAd?$AA?4?$AAi?$AAd?$AA?5?$AA?$CB?$AA?$DN?$AA?5?$AA?9?$AA1?$AA?$AA@ 0054833c     pjsip-core-i386-win32-vc8-debug:sip_ua_layer.obj
 0003:0000936c       ??_C@_1BE@LFFAKOF@?$AAu?$AAa?$AA?5?$AA?$CG?$AA?$CG?$AA?5?$AAd?$AAl?$AAg?$AA?$AA@ 0054836c     pjsip-core-i386-win32-vc8-debug:sip_ua_layer.obj
 0003:00009388       ??_C@_1JC@GJMIEGFD@?$AAd?$AAl?$AAg?$AA?9?$AA?$DO?$AAl?$AAo?$AAc?$AAa?$AAl?$AA?4?$AAi?$AAn?$AAf?$AAo?$AA?5?$AA?$CG?$AA?$CG?$AA?5?$AAd?$AAl?$AAg?$AA?9?$AA?$DO?$AAl?$AAo?$AAc?$AAa?$AAl?$AA?4?$AAi?$AAn@ 00548388     pjsip-core-i386-win32-vc8-debug:sip_ua_layer.obj
 0003:00009438       ??_C@_1GI@NIHHKAMB@?$AAd?$AAl?$AAg?$AA_?$AAs?$AAe?$AAt?$AA?9?$AA?$DO?$AAd?$AAl?$AAg?$AA_?$AAl?$AAi?$AAs?$AAt?$AA?4?$AAn?$AAe?$AAx?$AAt?$AA?5?$AA?$CB?$AA?$DN?$AA?5?$AA?$CI?$AAv?$AAo?$AAi?$AAd?$AA?$CK@ 00548438     pjsip-core-i386-win32-vc8-debug:sip_ua_layer.obj
 0003:000094b4       ??_C@_1BK@HCNCDBPL@?$AAd?$AAl?$AAg?$AA?9?$AA?$DO?$AAd?$AAl?$AAg?$AA_?$AAs?$AAe?$AAt?$AA?$AA@ 005484b4     pjsip-core-i386-win32-vc8-debug:sip_ua_layer.obj
 0003:000094d4       ??_C@_0BK@BPGLCCGL@Dialog?5is?5not?5registered?$CB?$AA@ 005484d4     pjsip-core-i386-win32-vc8-debug:sip_ua_layer.obj
 0003:000094f4       ??_C@_1DK@GBALBBB@?$AA?$CB?$AA?$CC?$AAD?$AAi?$AAa?$AAl?$AAo?$AAg?$AA?5?$AAi?$AAs?$AA?5?$AAn?$AAo?$AAt?$AA?5?$AAr?$AAe?$AAg?$AAi?$AAs?$AAt?$AAe?$AAr?$AAe?$AAd?$AA?$CB?$AA?$CC?$AA?$AA@ 005484f4     pjsip-core-i386-win32-vc8-debug:sip_ua_layer.obj
 0003:0000953c       ??_C@_1BK@HHDHKCML@?$AAm?$AAo?$AAd?$AA_?$AAu?$AAa?$AA?4?$AAe?$AAn?$AAd?$AAp?$AAt?$AA?$AA@ 0054853c     pjsip-core-i386-win32-vc8-debug:sip_ua_layer.obj
 0003:00009560       ??_C@_1EG@ONDDBEA@?$AAc?$AAa?$AAl?$AAl?$AA_?$AAi?$AAd?$AA?5?$AA?$CG?$AA?$CG?$AA?5?$AAl?$AAo?$AAc?$AAa?$AAl?$AA_?$AAt?$AAa?$AAg?$AA?5?$AA?$CG?$AA?$CG?$AA?5?$AAr?$AAe?$AAm?$AAo?$AAt?$AAe?$AA_?$AAt@ 00548560     pjsip-core-i386-win32-vc8-debug:sip_ua_layer.obj
 0003:000095b8       ??_C@_1FC@MMFPBIIC@?$AAp?$AAj?$AA_?$AAs?$AAt?$AAr?$AAc?$AAm?$AAp?$AA?$CI?$AA?$CG?$AAd?$AAl?$AAg?$AA?9?$AA?$DO?$AAc?$AAa?$AAl?$AAl?$AA_?$AAi?$AAd?$AA?9?$AA?$DO?$AAi?$AAd?$AA?0?$AA?5?$AAc?$AAa?$AAl@ 005485b8     pjsip-core-i386-win32-vc8-debug:sip_ua_layer.obj
 0003:0000961c       ??_C@_0DE@OALAGOOG@Unable?5to?5find?5dialogset?5for?5?$CFs?0@ 0054861c     pjsip-core-i386-win32-vc8-debug:sip_ua_layer.obj
 0003:0000965c       ??_C@_0P@JPGJPHAN@sip_ua_layer?4c?$AA@ 0054865c     pjsip-core-i386-win32-vc8-debug:sip_ua_layer.obj
 0003:00009670       ??_C@_0DB@GAIHGHNL@Unable?5to?5find?5dialog?5for?5?$CFs?0?5an@ 00548670     pjsip-core-i386-win32-vc8-debug:sip_ua_layer.obj
 0003:000096ac       ??_C@_0BN@IDPPCIAF@Unable?5to?5find?5dialog?5for?5?$CFs?$AA@ 005486ac     pjsip-core-i386-win32-vc8-debug:sip_ua_layer.obj
 0003:000096d0       ??_C@_0EC@DDCMMPIA@Received?5strayed?52xx?5response?5?$CIn@ 005486d0     pjsip-core-i386-win32-vc8-debug:sip_ua_layer.obj
 0003:00009720       ??_C@_1FM@MIPCEEKM@?$AAd?$AAl?$AAg?$AA_?$AAs?$AAe?$AAt?$AA?5?$AA?$CG?$AA?$CG?$AA?5?$AA?$CB?$AAp?$AAj?$AA_?$AAl?$AAi?$AAs?$AAt?$AA_?$AAe?$AAm?$AAp?$AAt?$AAy?$AA?$CI?$AA?$CG?$AAd?$AAl?$AAg?$AA_?$AAs@ 00548720     pjsip-core-i386-win32-vc8-debug:sip_ua_layer.obj
 0003:00009790       ??_C@_0CK@KFGINAJM@Received?5forked?5?$CFs?5for?5existing?5@ 00548790     pjsip-core-i386-win32-vc8-debug:sip_ua_layer.obj
 0003:000097c8       ??_C@_0FB@ELNGKJEC@Unhandled?5forked?5?$CFs?5from?5?$CFs?3?$CFd?0?5@ 005487c8     pjsip-core-i386-win32-vc8-debug:sip_ua_layer.obj
 0003:0000982c       ??_C@_1CG@HBPJBOLD@?$AAd?$AAl?$AAg?$AA?5?$AA?$CB?$AA?$DN?$AA?5?$AA?$CI?$AA?$CI?$AAv?$AAo?$AAi?$AAd?$AA?5?$AA?$CK?$AA?$CJ?$AA0?$AA?$CJ?$AA?$AA@ 0054882c     pjsip-core-i386-win32-vc8-debug:sip_ua_layer.obj
 0003:0000985c       ??_C@_0BD@HODLEDPN@?$DM?9?9uri?5too?5long?9?9?$DO?$AA@ 0054885c     pjsip-core-i386-win32-vc8-debug:sip_ua_layer.obj
 0003:00009874       ??_C@_03NLJIHOMM@?5?9?5?$AA@ 00548874     pjsip-core-i386-win32-vc8-debug:sip_ua_layer.obj
 0003:00009878       ??_C@_03MPKHENCJ@est?$AA@  00548878     pjsip-core-i386-win32-vc8-debug:sip_ua_layer.obj
 0003:0000987c       ??_C@_0L@JKLBPBP@?$CFs?$FL?$CFs?$FN?5?5?$CFs?$AA@ 0054887c     pjsip-core-i386-win32-vc8-debug:sip_ua_layer.obj
 0003:0000988c       ??_C@_0BK@BICBONOC@Number?5of?5dialog?5sets?3?5?$CFu?$AA@ 0054888c     pjsip-core-i386-win32-vc8-debug:sip_ua_layer.obj
 0003:000098ac       ??_C@_0BF@MKPBNBHJ@Dumping?5dialog?5sets?3?$AA@ 005488ac     pjsip-core-i386-win32-vc8-debug:sip_ua_layer.obj
 0003:000098c8       ??_C@_08JOIOMKFD@?5?5?$FLout?$FN?5?$AA@ 005488c8     pjsip-core-i386-win32-vc8-debug:sip_ua_layer.obj
 0003:000098d4       ??_C@_08NOPEJEGK@?5?5?$FLin?$FN?5?5?$AA@ 005488d4     pjsip-core-i386-win32-vc8-debug:sip_ua_layer.obj
 0003:000098e0       ??_C@_02DKCKIIND@?$CFs?$AA@ 005488e0     pjsip-core-i386-win32-vc8-debug:sip_ua_layer.obj
 0003:000098e4       ??_C@_0O@KEAHOJAP@?5?5?5?5?$FLforked?$FN?5?$AA@ 005488e4     pjsip-core-i386-win32-vc8-debug:sip_ua_layer.obj
 0003:00009900       ??_C@_09NMAFIJHB@SUBSCRIBE?$AA@ 00548900     pjsip-core-i386-win32-vc8-debug:sip_dialog.obj
 0003:0000990c       ??_C@_05NPMLFHIF@REFER?$AA@ 0054890c     pjsip-core-i386-win32-vc8-debug:sip_dialog.obj
 0003:00009914       ??_C@_06LMEIPPMP@NOTIFY?$AA@ 00548914     pjsip-core-i386-win32-vc8-debug:sip_dialog.obj
 0003:0000991c       ??_C@_05DGNCLLBL@dlg?$CFp?$AA@ 0054891c     pjsip-core-i386-win32-vc8-debug:sip_dialog.obj
 0003:00009928       ??_C@_1LM@OENHGFAD@?$AAc?$AA?3?$AA?2?$AAu?$AAs?$AAe?$AAr?$AAs?$AA?2?$AA9?$AA2?$AA0?$AA0?$AA?2?$AAd?$AAe?$AAs?$AAk?$AAt?$AAo?$AAp?$AA?2?$AAw?$AAo?$AAr?$AAk?$AA?2?$AAp?$AAj?$AAs?$AAi?$AAp@ 00548928     pjsip-core-i386-win32-vc8-debug:sip_dialog.obj
 0003:00009a10       ??_C@_1EO@CANGPLGB@?$AAu?$AAa?$AA?5?$AA?$CG?$AA?$CG?$AA?5?$AAl?$AAo?$AAc?$AAa?$AAl?$AA_?$AAu?$AAr?$AAi?$AA?5?$AA?$CG?$AA?$CG?$AA?5?$AAr?$AAe?$AAm?$AAo?$AAt?$AAe?$AA_?$AAu?$AAr?$AAi?$AA?5?$AA?$CG?$AA?$CG@ 00548a10     pjsip-core-i386-win32-vc8-debug:sip_dialog.obj
 0003:00009a70       ??_C@_0BD@BNDBFEIG@UAC?5dialog?5created?$AA@ 00548a70     pjsip-core-i386-win32-vc8-debug:sip_dialog.obj
 0003:00009a88       ??_C@_1CK@KCLOPABG@?$AAu?$AAa?$AA?5?$AA?$CG?$AA?$CG?$AA?5?$AAr?$AAd?$AAa?$AAt?$AAa?$AA?5?$AA?$CG?$AA?$CG?$AA?5?$AAp?$AA_?$AAd?$AAl?$AAg?$AA?$AA@ 00548a88     pjsip-core-i386-win32-vc8-debug:sip_dialog.obj
 0003:00009ac0       ??_C@_1EE@NBLFJLNB@?$AAr?$AAd?$AAa?$AAt?$AAa?$AA?9?$AA?$DO?$AAm?$AAs?$AAg?$AA_?$AAi?$AAn?$AAf?$AAo?$AA?4?$AAt?$AAo?$AA?9?$AA?$DO?$AAt?$AAa?$AAg?$AA?4?$AAs?$AAl?$AAe?$AAn?$AA?5?$AA?$DN?$AA?$DN?$AA?5@ 00548ac0     pjsip-core-i386-win32-vc8-debug:sip_dialog.obj
 0003:00009b18       ??_C@_1IG@PGEMGEIC@?$AAp?$AAj?$AAs?$AAi?$AAp?$AA_?$AAm?$AAe?$AAt?$AAh?$AAo?$AAd?$AA_?$AAc?$AAr?$AAe?$AAa?$AAt?$AAe?$AAs?$AA_?$AAd?$AAi?$AAa?$AAl?$AAo?$AAg?$AA?$CI?$AA?$CG?$AAr?$AAd?$AAa@ 00548b18     pjsip-core-i386-win32-vc8-debug:sip_dialog.obj
 0003:00009bb8       ??_C@_0BD@KGAMNPL@UAS?5dialog?5created?$AA@ 00548bb8     pjsip-core-i386-win32-vc8-debug:sip_dialog.obj
 0003:00009bd0       ??_C@_1CC@GAHEMDPG@?$AAd?$AAl?$AAg?$AA?9?$AA?$DO?$AAt?$AAs?$AAx?$AA_?$AAc?$AAo?$AAu?$AAn?$AAt?$AA?$DO?$AA0?$AA?$AA@ 00548bd0     pjsip-core-i386-win32-vc8-debug:sip_dialog.obj
 0003:00009bf8       ??_C@_1BG@CCKPBGCD@?$AAd?$AAl?$AAg?$AA?5?$AA?$CG?$AA?$CG?$AA?5?$AAs?$AAe?$AAl?$AA?$AA@ 00548bf8     pjsip-core-i386-win32-vc8-debug:sip_dialog.obj
 0003:00009c14       ??_C@_17BHLLIOEM@?$AAd?$AAl?$AAg?$AA?$AA@ 00548c14     pjsip-core-i386-win32-vc8-debug:sip_dialog.obj
 0003:00009c20       ??_C@_1DM@DOGMJPC@?$AAf?$AAi?$AAr?$AAs?$AAt?$AA_?$AAd?$AAl?$AAg?$AA?5?$AA?$CG?$AA?$CG?$AA?5?$AAr?$AAd?$AAa?$AAt?$AAa?$AA?5?$AA?$CG?$AA?$CG?$AA?5?$AAn?$AAe?$AAw?$AA_?$AAd?$AAl?$AAg?$AA?$AA@ 00548c20     pjsip-core-i386-win32-vc8-debug:sip_dialog.obj
 0003:00009c68       ??_C@_1GE@LICDLKFE@?$AA?$CI?$AAs?$AAt?$AAa?$AAt?$AAu?$AAs?$AA?1?$AA1?$AA0?$AA0?$AA?$DN?$AA?$DN?$AA1?$AA?5?$AA?$CG?$AA?$CG?$AA?5?$AAs?$AAt?$AAa?$AAt?$AAu?$AAs?$AA?$CB?$AA?$DN?$AA1?$AA0?$AA0?$AA?$CJ?$AA?5?$AA?$HM@ 00548c68     pjsip-core-i386-win32-vc8-debug:sip_dialog.obj
 0003:00009ce0       ??_C@_1EE@OMCHPKLH@?$AAr?$AAd?$AAa?$AAt?$AAa?$AA?9?$AA?$DO?$AAm?$AAs?$AAg?$AA_?$AAi?$AAn?$AAf?$AAo?$AA?4?$AAt?$AAo?$AA?9?$AA?$DO?$AAt?$AAa?$AAg?$AA?4?$AAs?$AAl?$AAe?$AAn?$AA?5?$AA?$CB?$AA?$DN?$AA?5@ 00548ce0     pjsip-core-i386-win32-vc8-debug:sip_dialog.obj
 0003:00009d34       ??_C@_0BE@CHLCJPPO@Invalid?5status?5code?$AA@ 00548d34     pjsip-core-i386-win32-vc8-debug:sip_dialog.obj
 0003:00009d4c       ??_C@_1CO@NIPLEAMN@?$AA?$CB?$AA?$CC?$AAI?$AAn?$AAv?$AAa?$AAl?$AAi?$AAd?$AA?5?$AAs?$AAt?$AAa?$AAt?$AAu?$AAs?$AA?5?$AAc?$AAo?$AAd?$AAe?$AA?$CC?$AA?$AA@ 00548d4c     pjsip-core-i386-win32-vc8-debug:sip_dialog.obj
 0003:00009d84       ??_C@_0BG@EPLOFPC@Forked?5dialog?5created?$AA@ 00548d84     pjsip-core-i386-win32-vc8-debug:sip_dialog.obj
 0003:00009da0       ??_C@_1CG@PCHICMAM@?$AAd?$AAl?$AAg?$AA?9?$AA?$DO?$AAs?$AAe?$AAs?$AAs?$AA_?$AAc?$AAo?$AAu?$AAn?$AAt?$AA?$DN?$AA?$DN?$AA0?$AA?$AA@ 00548da0     pjsip-core-i386-win32-vc8-debug:sip_dialog.obj
 0003:00009dd0       ??_C@_1CE@ICLBFJNJ@?$AAd?$AAl?$AAg?$AA?9?$AA?$DO?$AAt?$AAs?$AAx?$AA_?$AAc?$AAo?$AAu?$AAn?$AAt?$AA?$DN?$AA?$DN?$AA0?$AA?$AA@ 00548dd0     pjsip-core-i386-win32-vc8-debug:sip_dialog.obj
 0003:00009dfc       ??_C@_0CC@NJAKGIPA@Unexpected?5failed?5unregistration@ 00548dfc     pjsip-core-i386-win32-vc8-debug:sip_dialog.obj
 0003:00009e28       ??_C@_1EK@PDDKPAGH@?$AA?$CB?$AA?$CC?$AAU?$AAn?$AAe?$AAx?$AAp?$AAe?$AAc?$AAt?$AAe?$AAd?$AA?5?$AAf?$AAa?$AAi?$AAl?$AAe?$AAd?$AA?5?$AAu?$AAn?$AAr?$AAe?$AAg?$AAi?$AAs?$AAt?$AAr?$AAa?$AAt?$AAi@ 00548e28     pjsip-core-i386-win32-vc8-debug:sip_dialog.obj
 0003:00009e80       ??_C@_0BB@KCGOEMJG@Dialog?5destroyed?$AA@ 00548e80     pjsip-core-i386-win32-vc8-debug:sip_dialog.obj
 0003:00009e94       ??_C@_1BG@CPLBDOLD@?$AAd?$AAl?$AAg?$AA?5?$AA?$CG?$AA?$CG?$AA?5?$AAm?$AAo?$AAd?$AA?$AA@ 00548e94     pjsip-core-i386-win32-vc8-debug:sip_dialog.obj
 0003:00009eb0       ??_C@_0CA@PEKDEADC@Session?5count?5inc?5to?5?$CFd?5by?5?$CF?4?$CKs?$AA@ 00548eb0     pjsip-core-i386-win32-vc8-debug:sip_dialog.obj
 0003:00009ed8       ??_C@_1CC@KDECMMAH@?$AAd?$AAl?$AAg?$AA?$CB?$AA?$DN?$AA?$CI?$AA?$CI?$AAv?$AAo?$AAi?$AAd?$AA?5?$AA?$CK?$AA?$CJ?$AA0?$AA?$CJ?$AA?$AA@ 00548ed8     pjsip-core-i386-win32-vc8-debug:sip_dialog.obj
 0003:00009f00       ??_C@_1CI@DBEPCGBG@?$AAd?$AAl?$AAg?$AA?9?$AA?$DO?$AAs?$AAe?$AAs?$AAs?$AA_?$AAc?$AAo?$AAu?$AAn?$AAt?$AA?5?$AA?$DO?$AA?5?$AA0?$AA?$AA@ 00548f00     pjsip-core-i386-win32-vc8-debug:sip_dialog.obj
 0003:00009f30       ??_C@_0CA@LCICJLMD@Session?5count?5dec?5to?5?$CFd?5by?5?$CF?4?$CKs?$AA@ 00548f30     pjsip-core-i386-win32-vc8-debug:sip_dialog.obj
 0003:00009f58       ??_C@_1DK@IDPADBHL@?$AAm?$AAo?$AAd?$AA?9?$AA?$DO?$AAi?$AAd?$AA?5?$AA?$DO?$AA?$DN?$AA?5?$AA0?$AA?5?$AA?$CG?$AA?$CG?$AA?5?$AAm?$AAo?$AAd?$AA?9?$AA?$DO?$AAi?$AAd?$AA?5?$AA?$DM?$AA?5?$AA3?$AA2?$AA?$AA@ 00548f58     pjsip-core-i386-win32-vc8-debug:sip_dialog.obj
 0003:00009fa0       ??_C@_1CI@MAPJKCGG@?$AAd?$AAl?$AAg?$AA?9?$AA?$DO?$AAu?$AAs?$AAa?$AAg?$AAe?$AA_?$AAc?$AAn?$AAt?$AA?5?$AA?$DM?$AA?5?$AA3?$AA2?$AA?$AA@ 00548fa0     pjsip-core-i386-win32-vc8-debug:sip_dialog.obj
 0003:00009fd0       ??_C@_0CL@CCAGPMOP@Module?5?$CF?4?$CKs?5added?5as?5dialog?5usag@ 00548fd0     pjsip-core-i386-win32-vc8-debug:sip_dialog.obj
 0003:0000a008       ??_C@_0EF@MJEHGCLG@Module?5?$CF?4?$CKs?5already?5registered?5a@ 00549008     pjsip-core-i386-win32-vc8-debug:sip_dialog.obj
 0003:0000a05c       ??_C@_1DG@LGOONBPA@?$AAm?$AAo?$AAd?$AA_?$AAi?$AAd?$AA?5?$AA?$DO?$AA?$DN?$AA?5?$AA0?$AA?5?$AA?$CG?$AA?$CG?$AA?5?$AAm?$AAo?$AAd?$AA_?$AAi?$AAd?$AA?5?$AA?$DM?$AA?5?$AA3?$AA2?$AA?$AA@ 0054905c     pjsip-core-i386-win32-vc8-debug:sip_dialog.obj
 0003:0000a09c       ??_C@_1DC@GLPAKKGA@?$AAd?$AAl?$AAg?$AA?5?$AA?$CG?$AA?$CG?$AA?5?$AAm?$AAe?$AAt?$AAh?$AAo?$AAd?$AA?5?$AA?$CG?$AA?$CG?$AA?5?$AAp?$AA_?$AAt?$AAd?$AAa?$AAt?$AAa?$AA?$AA@ 0054909c     pjsip-core-i386-win32-vc8-debug:sip_dialog.obj
 0003:0000a0d8       ??_C@_1DG@MACJEIAA@?$AAd?$AAl?$AAg?$AA?5?$AA?$CG?$AA?$CG?$AA?5?$AAt?$AAd?$AAa?$AAt?$AAa?$AA?5?$AA?$CG?$AA?$CG?$AA?5?$AAt?$AAd?$AAa?$AAt?$AAa?$AA?9?$AA?$DO?$AAm?$AAs?$AAg?$AA?$AA@ 005490d8     pjsip-core-i386-win32-vc8-debug:sip_dialog.obj
 0003:0000a118       ??_C@_1CA@GCFBHFGK@?$AAc?$AAh?$AA?$CB?$AA?$DN?$AA?$CI?$AA?$CI?$AAv?$AAo?$AAi?$AAd?$AA?5?$AA?$CK?$AA?$CJ?$AA0?$AA?$CJ?$AA?$AA@ 00549118     pjsip-core-i386-win32-vc8-debug:sip_dialog.obj
 0003:0000a140       ??_C@_1CE@LNMILBPB@?$AAt?$AAo?$AA?5?$AA?$CB?$AA?$DN?$AA?5?$AA?$CI?$AA?$CI?$AAv?$AAo?$AAi?$AAd?$AA?5?$AA?$CK?$AA?$CJ?$AA0?$AA?$CJ?$AA?$AA@ 00549140     pjsip-core-i386-win32-vc8-debug:sip_dialog.obj
 0003:0000a170       ??_C@_1EE@NNPOOCME@?$AAd?$AAl?$AAg?$AA?5?$AA?$CG?$AA?$CG?$AA?5?$AAt?$AAs?$AAx?$AA?5?$AA?$CG?$AA?$CG?$AA?5?$AAt?$AAd?$AAa?$AAt?$AAa?$AA?5?$AA?$CG?$AA?$CG?$AA?5?$AAt?$AAd?$AAa?$AAt?$AAa?$AA?9?$AA?$DO?$AAm?$AAs@ 00549170     pjsip-core-i386-win32-vc8-debug:sip_dialog.obj
 0003:0000a1c8       ??_C@_1EE@HKOKILGI@?$AAt?$AAs?$AAx?$AA?9?$AA?$DO?$AAm?$AAo?$AAd?$AA_?$AAd?$AAa?$AAt?$AAa?$AA?$FL?$AAd?$AAl?$AAg?$AA?9?$AA?$DO?$AAu?$AAa?$AA?9?$AA?$DO?$AAi?$AAd?$AA?$FN?$AA?5?$AA?$DN?$AA?$DN?$AA?5?$AAd?$AAl@ 005491c8     pjsip-core-i386-win32-vc8-debug:sip_dialog.obj
 0003:0000a220       ??_C@_1BLI@OLIMOOK@?$AA?$CI?$AA?$CI?$AAp?$AAj?$AAs?$AAi?$AAp?$AA_?$AAc?$AAs?$AAe?$AAq?$AA_?$AAh?$AAd?$AAr?$AA?$CK?$AA?$CJ?$AAp?$AAj?$AAs?$AAi?$AAp?$AA_?$AAm?$AAs?$AAg?$AA_?$AAf?$AAi?$AAn?$AAd@ 00549220     pjsip-core-i386-win32-vc8-debug:sip_dialog.obj
 0003:0000a430       ??_C@_1EI@HFLKEDIN@?$AAd?$AAl?$AAg?$AA?5?$AA?$CG?$AA?$CG?$AA?5?$AAr?$AAd?$AAa?$AAt?$AAa?$AA?5?$AA?$CG?$AA?$CG?$AA?5?$AAr?$AAd?$AAa?$AAt?$AAa?$AA?9?$AA?$DO?$AAm?$AAs?$AAg?$AA_?$AAi?$AAn?$AAf?$AAo?$AA?4@ 00549430     pjsip-core-i386-win32-vc8-debug:sip_dialog.obj
 0003:0000a488       ??_C@_1KO@PKHMCJGC@?$AAp?$AAj?$AAs?$AAi?$AAp?$AA_?$AAr?$AAd?$AAa?$AAt?$AAa?$AA_?$AAg?$AAe?$AAt?$AA_?$AAt?$AAs?$AAx?$AA?$CI?$AAr?$AAd?$AAa?$AAt?$AAa?$AA?$CJ?$AA?5?$AA?$CG?$AA?$CG?$AA?5?$AAp?$AAj@ 00549488     pjsip-core-i386-win32-vc8-debug:sip_dialog.obj
 0003:0000a558       ??_C@_0M@LHPMKMAE@Received?5?$CFs?$AA@ 00549558     pjsip-core-i386-win32-vc8-debug:sip_dialog.obj
 0003:0000a568       ??_C@_1FE@IPNMLAKD@?$AAp?$AAj?$AAs?$AAi?$AAp?$AA_?$AAr?$AAd?$AAa?$AAt?$AAa?$AA_?$AAg?$AAe?$AAt?$AA_?$AAt?$AAs?$AAx?$AA?$CI?$AAr?$AAd?$AAa?$AAt?$AAa?$AA?$CJ?$AA?5?$AA?$DN?$AA?$DN?$AA?5?$AA?$CI?$AA?$CI@ 00549568     pjsip-core-i386-win32-vc8-debug:sip_dialog.obj
 0003:0000a5cc       ??_C@_0N@JADHANJP@Invalid?5CSeq?$AA@ 005495cc     pjsip-core-i386-win32-vc8-debug:sip_dialog.obj
 0003:0000a5dc       ??_C@_0BL@HAJOOCAF@Unhandled?5by?5dialog?5usages?$AA@ 005495dc     pjsip-core-i386-win32-vc8-debug:sip_dialog.obj
 0003:0000a5fc       ??_C@_0DI@GPBFFFGN@?$CFs?5was?5unhandled?5by?5dialog?5usage@ 005495fc     pjsip-core-i386-win32-vc8-debug:sip_dialog.obj
 0003:0000a640       ??_C@_0BC@PCHBAKGP@Route?9set?5updated?$AA@ 00549640     pjsip-core-i386-win32-vc8-debug:sip_dialog.obj
 0003:0000a658       ??_C@_0BB@EMPDFCEJ@Route?9set?5frozen?$AA@ 00549658     pjsip-core-i386-win32-vc8-debug:sip_dialog.obj
 0003:0000a670       ??_C@_1EE@HICKJNML@?$AAp?$AAj?$AAs?$AAi?$AAp?$AA_?$AAr?$AAd?$AAa?$AAt?$AAa?$AA_?$AAg?$AAe?$AAt?$AA_?$AAd?$AAl?$AAg?$AA?$CI?$AAr?$AAd?$AAa?$AAt?$AAa?$AA?$CJ?$AA?5?$AA?$DN?$AA?$DN?$AA?5?$AAd?$AAl@ 00549670     pjsip-core-i386-win32-vc8-debug:sip_dialog.obj
 0003:0000a6c4       ??_C@_0CD@PIHECLAB@Transaction?5?$CFs?5state?5changed?5to?5@ 005496c4     pjsip-core-i386-win32-vc8-debug:sip_dialog.obj
 0003:0000a6f0       ??_C@_1BK@LMGMFAFG@?$AAd?$AAl?$AAg?$AA?5?$AA?$CG?$AA?$CG?$AA?5?$AAt?$AAo?$AAk?$AAe?$AAn?$AA?$AA@ 005496f0     pjsip-core-i386-win32-vc8-debug:sip_dialog.obj
 0003:0000a710       ??_C@_1BG@EJBAFDLN@?$AAd?$AAl?$AAg?$AA?5?$AA?$CG?$AA?$CG?$AA?5?$AAm?$AAs?$AAg?$AA?$AA@ 00549710     pjsip-core-i386-win32-vc8-debug:sip_dialog.obj
 0003:0000a730       ??_C@_1GG@GFIMIGJL@?$AA?$CI?$AAh?$AAt?$AAy?$AAp?$AAe?$AA?5?$AA?$CB?$AA?$DN?$AA?5?$AAP?$AAJ?$AAS?$AAI?$AAP?$AA_?$AAH?$AA_?$AAO?$AAT?$AAH?$AAE?$AAR?$AA?$CJ?$AA?5?$AA?$HM?$AA?$HM?$AA?5?$AA?$CI?$AAh?$AAn?$AAa@ 00549730     pjsip-core-i386-win32-vc8-debug:sip_dialog.obj
 0003:0000a7ac       ??_C@_1BO@MPGHEBHG@?$AAd?$AAl?$AAg?$AA?5?$AA?$CG?$AA?$CG?$AA?5?$AAc?$AAa?$AAp?$AA_?$AAh?$AAd?$AAr?$AA?$AA@ 005497ac     pjsip-core-i386-win32-vc8-debug:sip_dialog.obj
 0003:0000a7d0       ??_C@_0BB@JCEFLFJE@0123456789abcdef?$AA@ 005497d0     pjsip-core-i386-win32-vc8-debug:sip_auth_client.obj
 0003:0000a7e8       ??_C@_1MG@NGBLNFOP@?$AAc?$AA?3?$AA?2?$AAu?$AAs?$AAe?$AAr?$AAs?$AA?2?$AA9?$AA2?$AA0?$AA0?$AA?2?$AAd?$AAe?$AAs?$AAk?$AAt?$AAo?$AAp?$AA?2?$AAw?$AAo?$AAr?$AAk?$AA?2?$AAp?$AAj?$AAs?$AAi?$AAp@ 005497e8     pjsip-core-i386-win32-vc8-debug:sip_auth_client.obj
 0003:0000a8d8       ??_C@_1CG@ODPPELPF@?$AAr?$AAe?$AAs?$AAu?$AAl?$AAt?$AA?9?$AA?$DO?$AAs?$AAl?$AAe?$AAn?$AA?5?$AA?$DO?$AA?$DN?$AA?5?$AA3?$AA2?$AA?$AA@ 005498d8     pjsip-core-i386-win32-vc8-debug:sip_auth_client.obj
 0003:0000a908       ??_C@_01JLIPDDHJ@?3?$AA@   00549908     pjsip-core-i386-win32-vc8-debug:sip_auth_client.obj
 0003:0000a90c       ??_C@_1DG@IAFCGOHD@?$AAc?$AAr?$AAe?$AAd?$AA_?$AAi?$AAn?$AAf?$AAo?$AA?9?$AA?$DO?$AAd?$AAa?$AAt?$AAa?$AA?4?$AAs?$AAl?$AAe?$AAn?$AA?5?$AA?$DN?$AA?$DN?$AA?5?$AA3?$AA2?$AA?$AA@ 0054990c     pjsip-core-i386-win32-vc8-debug:sip_auth_client.obj
 0003:0000a94c       ??_C@_0BC@CABGKIBM@Invalid?5data_type?$AA@ 0054994c     pjsip-core-i386-win32-vc8-debug:sip_auth_client.obj
 0003:0000a964       ??_C@_1CK@PPBJENKJ@?$AA?$CB?$AA?$CC?$AAI?$AAn?$AAv?$AAa?$AAl?$AAi?$AAd?$AA?5?$AAd?$AAa?$AAt?$AAa?$AA_?$AAt?$AAy?$AAp?$AAe?$AA?$CC?$AA?$AA@ 00549964     pjsip-core-i386-win32-vc8-debug:sip_auth_client.obj
 0003:0000a998       ??_C@_09BBOOBJFI@AKAv1?9MD5?$AA@ 00549998     pjsip-core-i386-win32-vc8-debug:sip_auth_client.obj
 0003:0000a9a4       ??_C@_0CE@PAGGDDKM@Unsupported?5digest?5algorithm?5?$CC?$CF?4@ 005499a4     pjsip-core-i386-win32-vc8-debug:sip_auth_client.obj
 0003:0000a9d0       ??_C@_0BC@IFICLNCF@sip_auth_client?4c?$AA@ 005499d0     pjsip-core-i386-win32-vc8-debug:sip_auth_client.obj
 0003:0000a9e8       ??_C@_04LIOHGJKM@?$CF08u?$AA@ 005499e8     pjsip-core-i386-win32-vc8-debug:sip_auth_client.obj
 0003:0000a9f0       ??_C@_06DKDPJBDF@b39971?$AA@ 005499f0     pjsip-core-i386-win32-vc8-debug:sip_auth_client.obj
 0003:0000a9f8       ??_C@_0BL@DHABBKFJ@Unsupported?5qop?5offer?5?$CF?4?$CKs?$AA@ 005499f8     pjsip-core-i386-win32-vc8-debug:sip_auth_client.obj
 0003:0000aa18       ??_C@_1EM@JJPKMEAJ@?$AAs?$AAe?$AAs?$AAs?$AA?5?$AA?$CG?$AA?$CG?$AA?5?$AAe?$AAn?$AAd?$AAp?$AAt?$AA?5?$AA?$CG?$AA?$CG?$AA?5?$AAp?$AAo?$AAo?$AAl?$AA?5?$AA?$CG?$AA?$CG?$AA?5?$AA?$CI?$AAo?$AAp?$AAt?$AAi?$AAo?$AAn@ 00549a18     pjsip-core-i386-win32-vc8-debug:sip_auth_client.obj
 0003:0000aa74       ??_C@_1CI@BLFGLAIC@?$AAp?$AAo?$AAo?$AAl?$AA?5?$AA?$CG?$AA?$CG?$AA?5?$AAs?$AAe?$AAs?$AAs?$AA?5?$AA?$CG?$AA?$CG?$AA?5?$AAr?$AAh?$AAs?$AA?$AA@ 00549a74     pjsip-core-i386-win32-vc8-debug:sip_auth_client.obj
 0003:0000aaa4       ??_C@_1BE@LIIENECH@?$AAs?$AAe?$AAs?$AAs?$AA?5?$AA?$CG?$AA?$CG?$AA?5?$AAc?$AA?$AA@ 00549aa4     pjsip-core-i386-win32-vc8-debug:sip_auth_client.obj
 0003:0000aabc       ??_C@_0CJ@HLCPJHMN@PJSIP_HAS_DIGEST_AKA_AUTH?5is?5not@ 00549abc     pjsip-core-i386-win32-vc8-debug:sip_auth_client.obj
 0003:0000aaf0       ??_C@_1FI@MOOKMECN@?$AA?$CB?$AA?$CC?$AAP?$AAJ?$AAS?$AAI?$AAP?$AA_?$AAH?$AAA?$AAS?$AA_?$AAD?$AAI?$AAG?$AAE?$AAS?$AAT?$AA_?$AAA?$AAK?$AAA?$AA_?$AAA?$AAU?$AAT?$AAH?$AA?5?$AAi?$AAs?$AA?5?$AAn@ 00549af0     pjsip-core-i386-win32-vc8-debug:sip_auth_client.obj
 0003:0000ab5c       ??_C@_1DO@GLOJAMOP@?$AAc?$AA?$FL?$AAi?$AA?$FN?$AA?4?$AAe?$AAx?$AAt?$AA?4?$AAa?$AAk?$AAa?$AA?4?$AAc?$AAb?$AA?5?$AA?$CB?$AA?$DN?$AA?5?$AA?$CI?$AA?$CI?$AAv?$AAo?$AAi?$AAd?$AA?5?$AA?$CK?$AA?$CJ?$AA0?$AA?$CJ?$AA?$AA@ 00549b5c     pjsip-core-i386-win32-vc8-debug:sip_auth_client.obj
 0003:0000aba8       ??_C@_1DE@FFLMJDPC@?$AAc?$AA?$FL?$AAi?$AA?$FN?$AA?4?$AAe?$AAx?$AAt?$AA?4?$AAa?$AAk?$AAa?$AA?4?$AAk?$AA?4?$AAs?$AAl?$AAe?$AAn?$AA?5?$AA?$DM?$AA?$DN?$AA?5?$AA1?$AA6?$AA?$AA@ 00549ba8     pjsip-core-i386-win32-vc8-debug:sip_auth_client.obj
 0003:0000abe8       ??_C@_1DG@CNKBOPNN@?$AAc?$AA?$FL?$AAi?$AA?$FN?$AA?4?$AAe?$AAx?$AAt?$AA?4?$AAa?$AAk?$AAa?$AA?4?$AAo?$AAp?$AA?4?$AAs?$AAl?$AAe?$AAn?$AA?5?$AA?$DM?$AA?$DN?$AA?5?$AA1?$AA6?$AA?$AA@ 00549be8     pjsip-core-i386-win32-vc8-debug:sip_auth_client.obj
 0003:0000ac28       ??_C@_1DG@IAMHNCEO@?$AAc?$AA?$FL?$AAi?$AA?$FN?$AA?4?$AAe?$AAx?$AAt?$AA?4?$AAa?$AAk?$AAa?$AA?4?$AAa?$AAm?$AAf?$AA?4?$AAs?$AAl?$AAe?$AAn?$AA?5?$AA?$DM?$AA?$DN?$AA?5?$AA2?$AA?$AA@ 00549c28     pjsip-core-i386-win32-vc8-debug:sip_auth_client.obj
 0003:0000ac68       ??_C@_1BE@PKCICMFG@?$AAs?$AAe?$AAs?$AAs?$AA?5?$AA?$CG?$AA?$CG?$AA?5?$AAp?$AA?$AA@ 00549c68     pjsip-core-i386-win32-vc8-debug:sip_auth_client.obj
 0003:0000ac80       ??_C@_1KM@IEMIHLKG@?$AAr?$AAe?$AAq?$AA_?$AAp?$AAo?$AAo?$AAl?$AA?5?$AA?$CG?$AA?$CG?$AA?5?$AAh?$AAd?$AAr?$AA?5?$AA?$CG?$AA?$CG?$AA?5?$AAu?$AAr?$AAi?$AA?5?$AA?$CG?$AA?$CG?$AA?5?$AAc?$AAr?$AAe?$AAd?$AA_?$AAi@ 00549c80     pjsip-core-i386-win32-vc8-debug:sip_auth_client.obj
 0003:0000ad50       ??_C@_0BB@BNLANCLD@URL?5is?5too?5long?$CB?$AA@ 00549d50     pjsip-core-i386-win32-vc8-debug:sip_auth_client.obj
 0003:0000ad64       ??_C@_1CI@POHEHOA@?$AA?$CB?$AA?$CC?$AAU?$AAR?$AAL?$AA?5?$AAi?$AAs?$AA?5?$AAt?$AAo?$AAo?$AA?5?$AAl?$AAo?$AAn?$AAg?$AA?$CB?$AA?$CC?$AA?$AA@ 00549d64     pjsip-core-i386-win32-vc8-debug:sip_auth_client.obj
 0003:0000ad94       ??_C@_0BJ@OKLINPNH@Invalid?5response?5header?$CB?$AA@ 00549d94     pjsip-core-i386-win32-vc8-debug:sip_auth_client.obj
 0003:0000adb4       ??_C@_1DI@CBPGIHME@?$AA?$CB?$AA?$CC?$AAI?$AAn?$AAv?$AAa?$AAl?$AAi?$AAd?$AA?5?$AAr?$AAe?$AAs?$AAp?$AAo?$AAn?$AAs?$AAe?$AA?5?$AAh?$AAe?$AAa?$AAd?$AAe?$AAr?$AA?$CB?$AA?$CC?$AA?$AA@ 00549db4     pjsip-core-i386-win32-vc8-debug:sip_auth_client.obj
 0003:0000adf8       ??_C@_1BM@KGENIGOP@?$AAs?$AAe?$AAs?$AAs?$AA?5?$AA?$CG?$AA?$CG?$AA?5?$AAt?$AAd?$AAa?$AAt?$AAa?$AA?$AA@ 00549df8     pjsip-core-i386-win32-vc8-debug:sip_auth_client.obj
 0003:0000ae1c       ??_C@_1BG@KEBAFJPL@?$AAs?$AAe?$AAs?$AAs?$AA?9?$AA?$DO?$AAp?$AAo?$AAo?$AAl?$AA?$AA@ 00549e1c     pjsip-core-i386-win32-vc8-debug:sip_auth_client.obj
 0003:0000ae38       ??_C@_1EI@EGKNKFME@?$AAt?$AAd?$AAa?$AAt?$AAa?$AA?9?$AA?$DO?$AAm?$AAs?$AAg?$AA?9?$AA?$DO?$AAt?$AAy?$AAp?$AAe?$AA?$DN?$AA?$DN?$AAP?$AAJ?$AAS?$AAI?$AAP?$AA_?$AAR?$AAE?$AAQ?$AAU?$AAE?$AAS?$AAT?$AA_@ 00549e38     pjsip-core-i386-win32-vc8-debug:sip_auth_client.obj
 0003:0000ae90       ??_C@_0EF@GMAJJJPM@Authorization?5failed?5for?5?$CF?4?$CKs?$EA?$CF?4@ 00549e90     pjsip-core-i386-win32-vc8-debug:sip_auth_client.obj
 0003:0000aee8       ??_C@_0EN@FFFABAE@Authorization?5failed?5for?5?$CF?4?$CKs?$EA?$CF?4@ 00549ee8     pjsip-core-i386-win32-vc8-debug:sip_auth_client.obj
 0003:0000af48       ??_C@_0EB@PMHMAEL@Unable?5to?5set?5auth?5for?5?$CFs?3?5can?5n@ 00549f48     pjsip-core-i386-win32-vc8-debug:sip_auth_client.obj
 0003:0000af98       ??_C@_1FI@NPPOBLBH@?$AAs?$AAe?$AAs?$AAs?$AA?5?$AA?$CG?$AA?$CG?$AA?5?$AAr?$AAd?$AAa?$AAt?$AAa?$AA?5?$AA?$CG?$AA?$CG?$AA?5?$AAo?$AAl?$AAd?$AA_?$AAr?$AAe?$AAq?$AAu?$AAe?$AAs?$AAt?$AA?5?$AA?$CG?$AA?$CG?$AA?5@ 00549f98     pjsip-core-i386-win32-vc8-debug:sip_auth_client.obj
 0003:0000b008       ??_C@_1GA@JIEMNOKH@?$AAr?$AAd?$AAa?$AAt?$AAa?$AA?9?$AA?$DO?$AAm?$AAs?$AAg?$AA_?$AAi?$AAn?$AAf?$AAo?$AA?4?$AAm?$AAs?$AAg?$AA?9?$AA?$DO?$AAt?$AAy?$AAp?$AAe?$AA?5?$AA?$DN?$AA?$DN?$AA?5?$AAP?$AAJ?$AAS@ 0054a008     pjsip-core-i386-win32-vc8-debug:sip_auth_client.obj
 0003:0000b080       ??_C@_1FI@DAMPIJII@?$AAo?$AAl?$AAd?$AA_?$AAr?$AAe?$AAq?$AAu?$AAe?$AAs?$AAt?$AA?9?$AA?$DO?$AAm?$AAs?$AAg?$AA?9?$AA?$DO?$AAt?$AAy?$AAp?$AAe?$AA?5?$AA?$DN?$AA?$DN?$AA?5?$AAP?$AAJ?$AAS?$AAI?$AAP?$AA_@ 0054a080     pjsip-core-i386-win32-vc8-debug:sip_auth_client.obj
 0003:0000b0f0       ??_C@_1LK@NFNMJODL@?$AAr?$AAd?$AAa?$AAt?$AAa?$AA?9?$AA?$DO?$AAm?$AAs?$AAg?$AA_?$AAi?$AAn?$AAf?$AAo?$AA?4?$AAm?$AAs?$AAg?$AA?9?$AA?$DO?$AAl?$AAi?$AAn?$AAe?$AA?4?$AAs?$AAt?$AAa?$AAt?$AAu?$AAs@ 0054a0f0     pjsip-core-i386-win32-vc8-debug:sip_auth_client.obj
 0003:0000b1d0       ??_C@_04CCHAHKJA@user?$AA@ 0054a1d0     pjsip-core-i386-win32-vc8-debug:sip_parser.obj
 0003:0000b1d8       ??_C@_06GABBCIBA@method?$AA@ 0054a1d8     pjsip-core-i386-win32-vc8-debug:sip_parser.obj
 0003:0000b1e0       ??_C@_09PBENLGJM@transport?$AA@ 0054a1e0     pjsip-core-i386-win32-vc8-debug:sip_parser.obj
 0003:0000b1ec       ??_C@_05LIJGAEPJ@maddr?$AA@ 0054a1ec     pjsip-core-i386-win32-vc8-debug:sip_parser.obj
 0003:0000b1f4       ??_C@_02FMHKAPNN@lr?$AA@   0054a1f4     pjsip-core-i386-win32-vc8-debug:sip_parser.obj
 0003:0000b1f8       ??_C@_03LNLCDKEI@tel?$AA@  0054a1f8     pjsip-core-i386-win32-vc8-debug:sip_parser.obj
 0003:0000b1fc       ??_C@_06KAEOJLJM@branch?$AA@ 0054a1fc     pjsip-core-i386-win32-vc8-debug:sip_parser.obj
 0003:0000b204       ??_C@_03KAFGPDAP@ttl?$AA@  0054a204     pjsip-core-i386-win32-vc8-debug:sip_parser.obj
 0003:0000b208       ??_C@_08CIDECLFI@received?$AA@ 0054a208     pjsip-core-i386-win32-vc8-debug:sip_parser.obj
 0003:0000b214       ??_C@_01IIACKFLH@q?$AA@    0054a214     pjsip-core-i386-win32-vc8-debug:sip_parser.obj
 0003:0000b218       ??_C@_07MJGJEDBB@expires?$AA@ 0054a218     pjsip-core-i386-win32-vc8-debug:sip_parser.obj
 0003:0000b224       ??_C@_03FJEPELFP@tag?$AA@  0054a224     pjsip-core-i386-win32-vc8-debug:sip_parser.obj
 0003:0000b228       ??_C@_05IOGGPFMA@rport?$AA@ 0054a228     pjsip-core-i386-win32-vc8-debug:sip_parser.obj
 0003:0000b230       ??_C@_1LM@PFOJLFOO@?$AAc?$AA?3?$AA?2?$AAu?$AAs?$AAe?$AAr?$AAs?$AA?2?$AA9?$AA2?$AA0?$AA0?$AA?2?$AAd?$AAe?$AAs?$AAk?$AAt?$AAo?$AAp?$AA?2?$AAw?$AAo?$AAr?$AAk?$AA?2?$AAp?$AAj?$AAs?$AAi?$AAp@ 0054a230     pjsip-core-i386-win32-vc8-debug:sip_parser.obj
 0003:0000b314       ??_C@_1DM@KEIOLPDE@?$AAP?$AAJ?$AAS?$AAI?$AAP?$AA_?$AAS?$AAY?$AAN?$AA_?$AAE?$AAR?$AAR?$AA_?$AAE?$AAX?$AAC?$AAE?$AAP?$AAT?$AAI?$AAO?$AAN?$AA?5?$AA?$DN?$AA?$DN?$AA?5?$AA?9?$AA1?$AA?$AA@ 0054a314     pjsip-core-i386-win32-vc8-debug:sip_parser.obj
 0003:0000b35c       ??_C@_0BD@IGJCFAAL@PJSIP?5syntax?5error?$AA@ 0054a35c     pjsip-core-i386-win32-vc8-debug:sip_parser.obj
 0003:0000b374       ??_C@_02PCIJFNDE@?$AN?6?$AA@ 0054a374     pjsip-core-i386-win32-vc8-debug:sip_parser.obj
 0003:0000b378       ??_C@_03MGGIELLM@?0?$AN?6?$AA@ 0054a378     pjsip-core-i386-win32-vc8-debug:sip_parser.obj
 0003:0000b37c       ??_C@_0L@LGCFMBHL@?9?4?$CB?$CF?$CK_?$GA?8?$HO?$CL?$AA@ 0054a37c     pjsip-core-i386-win32-vc8-debug:sip_parser.obj
 0003:0000b38c       ??_C@_01FGNFDNOH@?$CF?$AA@ 0054a38c     pjsip-core-i386-win32-vc8-debug:sip_parser.obj
 0003:0000b390       ??_C@_03HGEHODII@_?9?4?$AA@ 0054a390     pjsip-core-i386-win32-vc8-debug:sip_parser.obj
 0003:0000b394       ??_C@_0N@INHGOOCE@abcdefABCDEF?$AA@ 0054a394     pjsip-core-i386-win32-vc8-debug:sip_parser.obj
 0003:0000b3a4       ??_C@_0BC@EIHPKHIH@?$FL?$FN?1?3?$CG?$CL$?9_?4?$CB?$HO?$CK?8?$CI?$CJ?$CF?$AA@ 0054a3a4     pjsip-core-i386-win32-vc8-debug:sip_parser.obj
 0003:0000b3bc       ??_C@_0BC@DHLPLEEN@?$FL?$FN?1?$DP?3?$CL$?9_?4?$CB?$HO?$CK?8?$CI?$CJ?$CF?$AA@ 0054a3bc     pjsip-core-i386-win32-vc8-debug:sip_parser.obj
 0003:0000b3d4       ??_C@_0BD@FAKEDBHK@?9_?4?$CB?$HO?$CK?8?$CI?$CJ?$CF?$CG?$DN?$CL$?0?$DL?$DP?1?$AA@ 0054a3d4     pjsip-core-i386-win32-vc8-debug:sip_parser.obj
 0003:0000b3ec       ??_C@_01IPJKGB@?$CD?$AA@   0054a3ec     pjsip-core-i386-win32-vc8-debug:sip_parser.obj
 0003:0000b3f0       ??_C@_0BA@GJPAFF@?9_?4?$CB?$HO?$CK?8?$CI?$CJ?$CF?$CG?$DN?$CL$?0?$AA@ 0054a3f0     pjsip-core-i386-win32-vc8-debug:sip_parser.obj
 0003:0000b404       ??_C@_04INEOGBDO@?$EA?5?6?$DO?$AA@ 0054a404     pjsip-core-i386-win32-vc8-debug:sip_parser.obj
 0003:0000b40c       ??_C@_04FOECIMDB@?3?$AN?6?$DM?$AA@ 0054a40c     pjsip-core-i386-win32-vc8-debug:sip_parser.obj
 0003:0000b414       ??_C@_0BH@KMKLEGFJ@?$CD?$DP?$DL?3?$EA?$CG?$DN?$CL?9_?4?$CB?$HO?$CK?8?$CI?$CJ?$CF$?0?1?$CF?$AA@ 0054a414     pjsip-core-i386-win32-vc8-debug:sip_parser.obj
 0003:0000b430       ??_C@_0BD@EDPLLDNP@Too?5many?5handlers?$CB?$AA@ 0054a430     pjsip-core-i386-win32-vc8-debug:sip_parser.obj
 0003:0000b448       ??_C@_1CM@LPFIANDA@?$AA?$CB?$AA?$CC?$AAT?$AAo?$AAo?$AA?5?$AAm?$AAa?$AAn?$AAy?$AA?5?$AAh?$AAa?$AAn?$AAd?$AAl?$AAe?$AAr?$AAs?$AA?$CB?$AA?$CC?$AA?$AA@ 0054a448     pjsip-core-i386-win32-vc8-debug:sip_parser.obj
 0003:0000b47c       ??_C@_0BJ@OAGIOOBF@Header?5name?5is?5too?5long?$CB?$AA@ 0054a47c     pjsip-core-i386-win32-vc8-debug:sip_parser.obj
 0003:0000b49c       ??_C@_1DI@PLCFOBDA@?$AA?$CB?$AA?$CC?$AAH?$AAe?$AAa?$AAd?$AAe?$AAr?$AA?5?$AAn?$AAa?$AAm?$AAe?$AA?5?$AAi?$AAs?$AA?5?$AAt?$AAo?$AAo?$AA?5?$AAl?$AAo?$AAn?$AAg?$AA?$CB?$AA?$CC?$AA?$AA@ 0054a49c     pjsip-core-i386-win32-vc8-debug:sip_parser.obj
 0003:0000b4e0       ??_C@_03EDDBLLFO@?6?$AN?6?$AA@ 0054a4e0     pjsip-core-i386-win32-vc8-debug:sip_parser.obj
 0003:0000b4e4       ??_C@_03MCPDGLLE@SIP?$AA@  0054a4e4     pjsip-core-i386-win32-vc8-debug:sip_parser.obj
 0003:0000b4e8       ??_C@_03GJAMENNA@2?40?$AA@ 0054a4e8     pjsip-core-i386-win32-vc8-debug:sip_parser.obj
 0003:0000b4ec       ??_C@_0N@KMCODECP@Request?5Line?$AA@ 0054a4ec     pjsip-core-i386-win32-vc8-debug:sip_parser.obj
 0003:0000b4fc       ??_C@_0M@KNCMEJPH@Status?5Line?$AA@ 0054a4fc     pjsip-core-i386-win32-vc8-debug:sip_parser.obj
 0003:0000b50c       ??_C@_01CLKCMJKC@?5?$AA@   0054a50c     pjsip-core-i386-win32-vc8-debug:sip_parser.obj
 0003:0000b510       ??_C@_0CM@MBFLJJMP@Error?5parsing?5header?3?5?8?$CF?4?$CKs?8?5lin@ 0054a510     pjsip-core-i386-win32-vc8-debug:sip_parser.obj
 0003:0000b544       ??_C@_0N@CDHGOKB@sip_parser?4c?$AA@ 0054a544     pjsip-core-i386-win32-vc8-debug:sip_parser.obj
 0003:0000b558       ??_C@_1MC@LEOKLPHA@?$AAc?$AA?3?$AA?2?$AAu?$AAs?$AAe?$AAr?$AAs?$AA?2?$AA9?$AA2?$AA0?$AA0?$AA?2?$AAd?$AAe?$AAs?$AAk?$AAt?$AAo?$AAp?$AA?2?$AAw?$AAo?$AAr?$AAk?$AA?2?$AAp?$AAj?$AAs?$AAi?$AAp@ 0054a558     pjsip-core-i386-win32-vc8-debug:sip_multipart.obj
 0003:0000b640       ??_C@_1FK@BACJKHL@?$AAm?$AA_?$AAd?$AAa?$AAt?$AAa?$AA?5?$AA?$CG?$AA?$CG?$AA?5?$AA?$CB?$AAp?$AAj?$AA_?$AAl?$AAi?$AAs?$AAt?$AA_?$AAe?$AAm?$AAp?$AAt?$AAy?$AA?$CI?$AA?$CG?$AAm?$AA_?$AAd?$AAa?$AAt?$AAa@ 0054a640     pjsip-core-i386-win32-vc8-debug:sip_multipart.obj
 0003:0000b6ac       ??_C@_1DE@PMCDMLO@?$AAp?$AAa?$AAr?$AAt?$AA?9?$AA?$DO?$AAb?$AAo?$AAd?$AAy?$AA?5?$AA?$CB?$AA?$DN?$AA?5?$AA?$CI?$AA?$CI?$AAv?$AAo?$AAi?$AAd?$AA?5?$AA?$CK?$AA?$CJ?$AA0?$AA?$CJ?$AA?$AA@ 0054a6ac     pjsip-core-i386-win32-vc8-debug:sip_multipart.obj
 0003:0000b6ec       ??_C@_08KIKGFOKI@boundary?$AA@ 0054a6ec     pjsip-core-i386-win32-vc8-debug:sip_multipart.obj
 0003:0000b6f8       ??_C@_1CG@EAPCMBNP@?$AAp?$AAo?$AAo?$AAl?$AA?5?$AA?$CG?$AA?$CG?$AA?5?$AAm?$AAp?$AA?5?$AA?$CG?$AA?$CG?$AA?5?$AAp?$AAa?$AAr?$AAt?$AA?$AA@ 0054a6f8     pjsip-core-i386-win32-vc8-debug:sip_multipart.obj
 0003:0000b728       ??_C@_1EM@OHBLDLEL@?$AAm?$AAp?$AA?9?$AA?$DO?$AAp?$AAr?$AAi?$AAn?$AAt?$AA_?$AAb?$AAo?$AAd?$AAy?$AA?$DN?$AA?$DN?$AA?$CG?$AAm?$AAu?$AAl?$AAt?$AAi?$AAp?$AAa?$AAr?$AAt?$AA_?$AAp?$AAr?$AAi?$AAn?$AAt@ 0054a728     pjsip-core-i386-win32-vc8-debug:sip_multipart.obj
 0003:0000b788       ??_C@_1EK@JKDFDFCP@?$AAp?$AAa?$AAr?$AAt?$AA?9?$AA?$DO?$AAb?$AAo?$AAd?$AAy?$AA?5?$AA?$CG?$AA?$CG?$AA?5?$AAp?$AAa?$AAr?$AAt?$AA?9?$AA?$DO?$AAb?$AAo?$AAd?$AAy?$AA?9?$AA?$DO?$AAp?$AAr?$AAi?$AAn?$AAt?$AA_@ 0054a788     pjsip-core-i386-win32-vc8-debug:sip_multipart.obj
 0003:0000b7e0       ??_C@_15JBGIOCEE@?$AAm?$AAp?$AA?$AA@ 0054a7e0     pjsip-core-i386-win32-vc8-debug:sip_multipart.obj
 0003:0000b7e8       ??_C@_1BG@FEMPIJGA@?$AAm?$AAp?$AA?5?$AA?$CG?$AA?$CG?$AA?5?$AAp?$AAa?$AAr?$AAt?$AA?$AA@ 0054a7e8     pjsip-core-i386-win32-vc8-debug:sip_multipart.obj
 0003:0000b808       ??_C@_1HG@COKFDLMC@?$AAp?$AAj?$AA_?$AAl?$AAi?$AAs?$AAt?$AA_?$AAf?$AAi?$AAn?$AAd?$AA_?$AAn?$AAo?$AAd?$AAe?$AA?$CI?$AA?$CG?$AAm?$AA_?$AAd?$AAa?$AAt?$AAa?$AA?9?$AA?$DO?$AAp?$AAa?$AAr?$AAt?$AA_@ 0054a808     pjsip-core-i386-win32-vc8-debug:sip_multipart.obj
 0003:0000b898       ??_C@_1CG@MGEADCGP@?$AAm?$AAp?$AA?5?$AA?$CG?$AA?$CG?$AA?5?$AAc?$AAo?$AAn?$AAt?$AAe?$AAn?$AAt?$AA_?$AAt?$AAy?$AAp?$AAe?$AA?$AA@ 0054a898     pjsip-core-i386-win32-vc8-debug:sip_multipart.obj
 0003:0000b8c8       ??_C@_0CI@MEJEAPPA@Warning?3?5error?5parsing?5multipart@ 0054a8c8     pjsip-core-i386-win32-vc8-debug:sip_multipart.obj
 0003:0000b8f8       ??_C@_0BA@LBAHDFBC@sip_multipart?4c?$AA@ 0054a8f8     pjsip-core-i386-win32-vc8-debug:sip_multipart.obj
 0003:0000b90c       ??_C@_06IJPNAHC@digest?$AA@ 0054a90c     pjsip-core-i386-win32-vc8-debug:sip_multipart.obj
 0003:0000b914       ??_C@_07ONPBMBOP@message?$AA@ 0054a914     pjsip-core-i386-win32-vc8-debug:sip_multipart.obj
 0003:0000b920       ??_C@_06OGFLLFJI@rfc822?$AA@ 0054a920     pjsip-core-i386-win32-vc8-debug:sip_multipart.obj
 0003:0000b928       ??_C@_1FA@DDNPPGON@?$AAp?$AAo?$AAo?$AAl?$AA?5?$AA?$CG?$AA?$CG?$AA?5?$AAb?$AAu?$AAf?$AA?5?$AA?$CG?$AA?$CG?$AA?5?$AAl?$AAe?$AAn?$AA?5?$AA?$CG?$AA?$CG?$AA?5?$AAc?$AAt?$AAy?$AAp?$AAe?$AA?5?$AA?$CG?$AA?$CG?$AA?5?$AA?$CB@ 0054a928     pjsip-core-i386-win32-vc8-debug:sip_multipart.obj
 0003:0000b988       ??_C@_0FD@FFFCNLOH@Warning?3?5boundary?5parameter?5not?5@ 0054a988     pjsip-core-i386-win32-vc8-debug:sip_multipart.obj
 0003:0000b9f0       ??_C@_0EO@HHPEFGCJ@Error?3?5multipart?5boundary?5not?5sp@ 0054a9f0     pjsip-core-i386-win32-vc8-debug:sip_multipart.obj
 0003:0000ba50       ??_C@_1LG@EPDEJKLJ@?$AAc?$AA?3?$AA?2?$AAu?$AAs?$AAe?$AAr?$AAs?$AA?2?$AA9?$AA2?$AA0?$AA0?$AA?2?$AAd?$AAe?$AAs?$AAk?$AAt?$AAo?$AAp?$AA?2?$AAw?$AAo?$AAr?$AAk?$AA?2?$AAp?$AAj?$AAs?$AAi?$AAp@ 0054aa50     pjsip-core-i386-win32-vc8-debug:sip_uri.obj
 0003:0000bb2c       ??_C@_1CI@JKBBIMAG@?$AAu?$AAr?$AAl?$AA?9?$AA?$DO?$AAh?$AAo?$AAs?$AAt?$AA?4?$AAs?$AAl?$AAe?$AAn?$AA?5?$AA?$CB?$AA?$DN?$AA?5?$AA0?$AA?$AA@ 0054ab2c     pjsip-core-i386-win32-vc8-debug:sip_uri.obj
 0003:0000bb5c       ??_C@_06BMAPCEPF@?$DLuser?$DN?$AA@ 0054ab5c     pjsip-core-i386-win32-vc8-debug:sip_uri.obj
 0003:0000bb64       ??_C@_08FIHANMDK@?$DLmethod?$DN?$AA@ 0054ab64     pjsip-core-i386-win32-vc8-debug:sip_uri.obj
 0003:0000bb70       ??_C@_0M@OGEJDPOO@?$DLtransport?$DN?$AA@ 0054ab70     pjsip-core-i386-win32-vc8-debug:sip_uri.obj
 0003:0000bb80       ??_C@_03KFFFHGHD@?$DLlr?$AA@ 0054ab80     pjsip-core-i386-win32-vc8-debug:sip_uri.obj
 0003:0000bb84       ??_C@_1DC@IJLHHHKA@?$AAn?$AAa?$AAm?$AAe?$AA?9?$AA?$DO?$AAu?$AAr?$AAi?$AA?5?$AA?$CB?$AA?$DN?$AA?5?$AA?$CI?$AA?$CI?$AAv?$AAo?$AAi?$AAd?$AA?5?$AA?$CK?$AA?$CJ?$AA0?$AA?$CJ?$AA?$AA@ 0054ab84     pjsip-core-i386-win32-vc8-debug:sip_uri.obj
 0003:0000bbc0       ??_C@_1CG@DFIMFNPH@?$AAu?$AAr?$AAi?$AA?5?$AA?$CB?$AA?$DN?$AA?5?$AA?$CI?$AA?$CI?$AAv?$AAo?$AAi?$AAd?$AA?5?$AA?$CK?$AA?$CJ?$AA0?$AA?$CJ?$AA?$AA@ 0054abc0     pjsip-core-i386-win32-vc8-debug:sip_uri.obj
 0003:0000bbf0       ??_C@_1DG@BAELOOIG@?$AAn?$AAa?$AAd?$AAd?$AAr?$AA1?$AA?9?$AA?$DO?$AAu?$AAr?$AAi?$AA?5?$AA?$CB?$AA?$DN?$AA?5?$AA?$CI?$AA?$CI?$AAv?$AAo?$AAi?$AAd?$AA?5?$AA?$CK?$AA?$CJ?$AA0?$AA?$CJ?$AA?$AA@ 0054abf0     pjsip-core-i386-win32-vc8-debug:sip_uri.obj
 0003:0000bc30       ??_C@_1DG@GODDKGCA@?$AAn?$AAa?$AAd?$AAd?$AAr?$AA2?$AA?9?$AA?$DO?$AAu?$AAr?$AAi?$AA?5?$AA?$CB?$AA?$DN?$AA?5?$AA?$CI?$AA?$CI?$AAv?$AAo?$AAi?$AAd?$AA?5?$AA?$CK?$AA?$CJ?$AA0?$AA?$CJ?$AA?$AA@ 0054ac30     pjsip-core-i386-win32-vc8-debug:sip_uri.obj
 0003:0000bc70       ??_C@_1LO@CCFPPENN@?$AAc?$AA?3?$AA?2?$AAu?$AAs?$AAe?$AAr?$AAs?$AA?2?$AA9?$AA2?$AA0?$AA0?$AA?2?$AAd?$AAe?$AAs?$AAk?$AAt?$AAo?$AAp?$AA?2?$AAw?$AAo?$AAr?$AAk?$AA?2?$AAp?$AAj?$AAs?$AAi?$AAp@ 0054ac70     pjsip-core-i386-win32-vc8-debug:sip_resolve.obj
 0003:0000bd54       ??_C@_1BM@GEGFCJE@?$AAp?$AAo?$AAo?$AAl?$AA?5?$AA?$CG?$AA?$CG?$AA?5?$AAp?$AA_?$AAr?$AAe?$AAs?$AA?$AA@ 0054ad54     pjsip-core-i386-win32-vc8-debug:sip_resolve.obj
 0003:0000bd78       ??_C@_0FJ@MFGCGKIL@DNS?5resolver?5not?5available?0?5targ@ 0054ad78     pjsip-core-i386-win32-vc8-debug:sip_resolve.obj
 0003:0000bde4       ??_C@_0O@DMBGNNMG@sip_resolve?4c?$AA@ 0054ade4     pjsip-core-i386-win32-vc8-debug:sip_resolve.obj
 0003:0000bdf4       ??_C@_0DH@DPGIKKNN@Target?5?8?$CF?4?$CKs?3?$CFd?8?5type?$DN?$CFs?5resolve@ 0054adf4     pjsip-core-i386-win32-vc8-debug:sip_resolve.obj
 0003:0000be38       ??_C@_0M@EKOGDFHO@_sips?4_tcp?4?$AA@ 0054ae38     pjsip-core-i386-win32-vc8-debug:sip_resolve.obj
 0003:0000be48       ??_C@_0L@CGLNHIHI@_sip?4_tcp?4?$AA@ 0054ae48     pjsip-core-i386-win32-vc8-debug:sip_resolve.obj
 0003:0000be58       ??_C@_0L@IGAKGJHB@_sip?4_udp?4?$AA@ 0054ae58     pjsip-core-i386-win32-vc8-debug:sip_resolve.obj
 0003:0000be68       ??_C@_0BH@JFKNGOEE@Unknown?5transport?5type?$AA@ 0054ae68     pjsip-core-i386-win32-vc8-debug:sip_resolve.obj
 0003:0000be84       ??_C@_1DE@LBIIFKHI@?$AA?$CB?$AA?$CC?$AAU?$AAn?$AAk?$AAn?$AAo?$AAw?$AAn?$AA?5?$AAt?$AAr?$AAa?$AAn?$AAs?$AAp?$AAo?$AAr?$AAt?$AA?5?$AAt?$AAy?$AAp?$AAe?$AA?$CC?$AA?$AA@ 0054ae84     pjsip-core-i386-win32-vc8-debug:sip_resolve.obj
 0003:0000bec8       ??_C@_0EE@KKBDDFND@Starting?5async?5DNS?5?$CFs?5query?3?5tar@ 0054aec8     pjsip-core-i386-win32-vc8-debug:sip_resolve.obj
 0003:0000bf1c       ??_C@_0L@PKONJGIE@Unexpected?$AA@ 0054af1c     pjsip-core-i386-win32-vc8-debug:sip_resolve.obj
 0003:0000bf2c       ??_C@_1BM@EGHJMJCG@?$AA?$CB?$AA?$CC?$AAU?$AAn?$AAe?$AAx?$AAp?$AAe?$AAc?$AAt?$AAe?$AAd?$AA?$CC?$AA?$AA@ 0054af2c     pjsip-core-i386-win32-vc8-debug:sip_resolve.obj
 0003:0000bf50       ??_C@_0CG@CBPKEJKE@Failed?5to?5resolve?5?8?$CF?4?$CKs?8?4?5Err?$DN?$CFd@ 0054af50     pjsip-core-i386-win32-vc8-debug:sip_resolve.obj
 0003:0000bf80       ??_C@_0CD@MNOGDEHE@DNS?5A?5record?5resolution?5failed?3?5@ 0054af80     pjsip-core-i386-win32-vc8-debug:sip_resolve.obj
 0003:0000c294       ??_C@_0BN@NDHPCAAG@Object?5is?5busy?5?$CIPJSIP_EBUSY?$CJ?$AA@ 0054b294     pjsip-core-i386-win32-vc8-debug:sip_errno.obj
 0003:0000c2b8       ??_C@_0DF@LHIGDAHP@Object?5with?5the?5same?5type?5exists@ 0054b2b8     pjsip-core-i386-win32-vc8-debug:sip_errno.obj
 0003:0000c2f8       ??_C@_0CK@JJDNDGNE@SIP?5stack?5shutting?5down?5?$CIPJSIP_E@ 0054b2f8     pjsip-core-i386-win32-vc8-debug:sip_errno.obj
 0003:0000c32c       ??_C@_0DH@GEJHNFDM@SIP?5object?5is?5not?5initialized?4?5?$CI@ 0054b32c     pjsip-core-i386-win32-vc8-debug:sip_errno.obj
 0003:0000c370       ??_C@_0DF@DFCKLJD@Missing?5route?5set?5?$CIfor?5tel?3?5URI?$CJ@ 0054b370     pjsip-core-i386-win32-vc8-debug:sip_errno.obj
 0003:0000c3b0       ??_C@_0DB@LNGCHBD@Invalid?5message?1syntax?5error?5?$CIPJ@ 0054b3b0     pjsip-core-i386-win32-vc8-debug:sip_errno.obj
 0003:0000c3ec       ??_C@_0DB@NNKMNMEK@Expecting?5request?5message?5?$CIPJSIP@ 0054b3ec     pjsip-core-i386-win32-vc8-debug:sip_errno.obj
 0003:0000c428       ??_C@_0DD@MODFKCPK@Expecting?5response?5message?5?$CIPJSI@ 0054b428     pjsip-core-i386-win32-vc8-debug:sip_errno.obj
 0003:0000c468       ??_C@_0CF@NOACODOC@Message?5too?5long?5?$CIPJSIP_EMSGTOOL@ 0054b468     pjsip-core-i386-win32-vc8-debug:sip_errno.obj
 0003:0000c494       ??_C@_0CE@FONCLLMK@Partial?5message?5?$CIPJSIP_EPARTIALM@ 0054b494     pjsip-core-i386-win32-vc8-debug:sip_errno.obj
 0003:0000c4c0       ??_C@_0DK@HMGLEHFD@Invalid?1unexpected?5SIP?5status?5co@ 0054b4c0     pjsip-core-i386-win32-vc8-debug:sip_errno.obj
 0003:0000c508       ??_C@_0CA@ICJGNPBL@Invalid?5URI?5?$CIPJSIP_EINVALIDURI?$CJ?$AA@ 0054b508     pjsip-core-i386-win32-vc8-debug:sip_errno.obj
 0003:0000c530       ??_C@_0CK@PDIHHAGH@Invalid?5URI?5scheme?5?$CIPJSIP_EINVAL@ 0054b530     pjsip-core-i386-win32-vc8-debug:sip_errno.obj
 0003:0000c564       ??_C@_0CL@FGPCAKCH@Missing?5Request?9URI?5?$CIPJSIP_EMISS@ 0054b564     pjsip-core-i386-win32-vc8-debug:sip_errno.obj
 0003:0000c598       ??_C@_0CL@JOKFDOLI@Invalid?5Request?5URI?5?$CIPJSIP_EINVA@ 0054b598     pjsip-core-i386-win32-vc8-debug:sip_errno.obj
 0003:0000c5cc       ??_C@_0CE@NBJPLEOO@URI?5is?5too?5long?5?$CIPJSIP_EURITOOLO@ 0054b5cc     pjsip-core-i386-win32-vc8-debug:sip_errno.obj
 0003:0000c5f8       ??_C@_0CP@PNHNBIME@Missing?5required?5header?$CIs?$CJ?5?$CIPJSI@ 0054b5f8     pjsip-core-i386-win32-vc8-debug:sip_errno.obj
 0003:0000c630       ??_C@_0CJ@GFIBJIAO@Invalid?5header?5field?5?$CIPJSIP_EINV@ 0054b630     pjsip-core-i386-win32-vc8-debug:sip_errno.obj
 0003:0000c664       ??_C@_0CH@NDGOCBBP@Invalid?5Via?5header?5?$CIPJSIP_EINVAL@ 0054b664     pjsip-core-i386-win32-vc8-debug:sip_errno.obj
 0003:0000c694       ??_C@_0DG@HLMABLPG@Multiple?5Via?5headers?5in?5response@ 0054b694     pjsip-core-i386-win32-vc8-debug:sip_errno.obj
 0003:0000c6d4       ??_C@_0CK@LJCOFGPN@Missing?5message?5body?5?$CIPJSIP_EMIS@ 0054b6d4     pjsip-core-i386-win32-vc8-debug:sip_errno.obj
 0003:0000c708       ??_C@_0DB@NINEONMP@Invalid?1unexpected?5method?5?$CIPJSIP@ 0054b708     pjsip-core-i386-win32-vc8-debug:sip_errno.obj
 0003:0000c744       ??_C@_0CO@MKNJKJDL@Unsupported?5transport?5?$CIPJSIP_EUN@ 0054b744     pjsip-core-i386-win32-vc8-debug:sip_errno.obj
 0003:0000c77c       ??_C@_0DD@FMJGJHHJ@Transmit?5buffer?5already?5pending?5@ 0054b77c     pjsip-core-i386-win32-vc8-debug:sip_errno.obj
 0003:0000c7bc       ??_C@_0CH@FGKEPDFL@Rx?5buffer?5overflow?5?$CIPJSIP_ERXOVE@ 0054b7bc     pjsip-core-i386-win32-vc8-debug:sip_errno.obj
 0003:0000c7ec       ??_C@_0CH@IPJBAOPN@Buffer?5destroyed?5?$CIPJSIP_EBUFDEST@ 0054b7ec     pjsip-core-i386-win32-vc8-debug:sip_errno.obj
 0003:0000c81c       ??_C@_0DF@PBAMDOH@Unsuitable?5transport?5selected?5?$CIP@ 0054b81c     pjsip-core-i386-win32-vc8-debug:sip_errno.obj
 0003:0000c85c       ??_C@_0DE@NJLNEKOM@Transport?5not?5available?5for?5use?5@ 0054b85c     pjsip-core-i386-win32-vc8-debug:sip_errno.obj
 0003:0000c89c       ??_C@_0DF@DPMOHHML@Transaction?5has?5been?5destroyed?5?$CI@ 0054b89c     pjsip-core-i386-win32-vc8-debug:sip_errno.obj
 0003:0000c8e0       ??_C@_0FM@JGDLJGMK@No?5transaction?5is?5associated?5wit@ 0054b8e0     pjsip-core-i386-win32-vc8-debug:sip_errno.obj
 0003:0000c950       ??_C@_0CH@EBPFAGMB@URI?5scheme?5mismatch?5?$CIPJSIP_ECMPS@ 0054b950     pjsip-core-i386-win32-vc8-debug:sip_errno.obj
 0003:0000c980       ??_C@_0CI@DCNDLDIL@URI?5user?5part?5mismatch?5?$CIPJSIP_EC@ 0054b980     pjsip-core-i386-win32-vc8-debug:sip_errno.obj
 0003:0000c9b0       ??_C@_0CO@NLCBDNGP@URI?5password?5part?5mismatch?5?$CIPJSI@ 0054b9b0     pjsip-core-i386-win32-vc8-debug:sip_errno.obj
 0003:0000c9e8       ??_C@_0CI@CAAENIBN@URI?5host?5part?5mismatch?5?$CIPJSIP_EC@ 0054b9e8     pjsip-core-i386-win32-vc8-debug:sip_errno.obj
 0003:0000ca18       ??_C@_0CD@LGFLCNGN@URI?5port?5mismatch?5?$CIPJSIP_ECMPPOR@ 0054ba18     pjsip-core-i386-win32-vc8-debug:sip_errno.obj
 0003:0000ca44       ??_C@_0DG@KAIIGJOM@URI?5transport?5param?5mismatch?5?$CIPJ@ 0054ba44     pjsip-core-i386-win32-vc8-debug:sip_errno.obj
 0003:0000ca84       ??_C@_0CM@PONOAHFI@URI?5ttl?5param?5mismatch?5?$CIPJSIP_EC@ 0054ba84     pjsip-core-i386-win32-vc8-debug:sip_errno.obj
 0003:0000cab8       ??_C@_0CO@PNILAMMK@URI?5user?5param?5mismatch?5?$CIPJSIP_E@ 0054bab8     pjsip-core-i386-win32-vc8-debug:sip_errno.obj
 0003:0000caf0       ??_C@_0DC@BPANLPFC@URI?5method?5param?5mismatch?5?$CIPJSIP@ 0054baf0     pjsip-core-i386-win32-vc8-debug:sip_errno.obj
 0003:0000cb2c       ??_C@_0DA@HIHPGKKA@URI?5maddr?5param?5mismatch?5?$CIPJSIP_@ 0054bb2c     pjsip-core-i386-win32-vc8-debug:sip_errno.obj
 0003:0000cb68       ??_C@_0DA@DADPPELC@URI?5other?5param?5mismatch?5?$CIPJSIP_@ 0054bb68     pjsip-core-i386-win32-vc8-debug:sip_errno.obj
 0003:0000cba4       ??_C@_0DG@CFNMFPOM@URI?5header?5parameter?5mismatch?5?$CIP@ 0054bba4     pjsip-core-i386-win32-vc8-debug:sip_errno.obj
 0003:0000cbe4       ??_C@_0DM@LOOBEDNN@Credential?5failed?5to?5authenticat@ 0054bbe4     pjsip-core-i386-win32-vc8-debug:sip_errno.obj
 0003:0000cc2c       ??_C@_0CN@IIEEILJJ@No?5suitable?5credential?5?$CIPJSIP_EN@ 0054bc2c     pjsip-core-i386-win32-vc8-debug:sip_errno.obj
 0003:0000cc64       ??_C@_0DP@NGPGIDFF@Invalid?1unsupported?5digest?5algor@ 0054bc64     pjsip-core-i386-win32-vc8-debug:sip_errno.obj
 0003:0000ccb0       ??_C@_0DD@GJOGBLMF@Invalid?1unsupported?5digest?5qop?5?$CI@ 0054bcb0     pjsip-core-i386-win32-vc8-debug:sip_errno.obj
 0003:0000ccf0       ??_C@_0DN@GPEKONDD@Unsupported?5authentication?5schem@ 0054bcf0     pjsip-core-i386-win32-vc8-debug:sip_errno.obj
 0003:0000cd3c       ??_C@_0CO@BMGFFPME@No?5previous?5challenge?5?$CIPJSIP_EAU@ 0054bd3c     pjsip-core-i386-win32-vc8-debug:sip_errno.obj
 0003:0000cd74       ??_C@_0DF@DNNICPPN@No?5suitable?5authorization?5header@ 0054bd74     pjsip-core-i386-win32-vc8-debug:sip_errno.obj
 0003:0000cdb4       ??_C@_0DJ@LPEDCKOO@Account?5or?5credential?5not?5found?5@ 0054bdb4     pjsip-core-i386-win32-vc8-debug:sip_errno.obj
 0003:0000cdf8       ??_C@_0DL@CMLHLLPG@Account?5or?5credential?5is?5disable@ 0054bdf8     pjsip-core-i386-win32-vc8-debug:sip_errno.obj
 0003:0000ce40       ??_C@_0DG@HIIKPIBJ@Invalid?5authorization?5realm?5?$CIPJS@ 0054be40     pjsip-core-i386-win32-vc8-debug:sip_errno.obj
 0003:0000ce80       ??_C@_0DI@MHHCMF@Invalid?5authorization?5digest?5?$CIPJ@ 0054be80     pjsip-core-i386-win32-vc8-debug:sip_errno.obj
 0003:0000cec8       ??_C@_0EB@JCHOOAEG@Maximum?5number?5of?5stale?5retries?5@ 0054bec8     pjsip-core-i386-win32-vc8-debug:sip_errno.obj
 0003:0000cf18       ??_C@_0EF@LIONEPAL@Invalid?5nonce?5value?5in?5authentic@ 0054bf18     pjsip-core-i386-win32-vc8-debug:sip_errno.obj
 0003:0000cf6c       ??_C@_0CO@PNJFNJKN@Invalid?5AKA?5credential?5?$CIPJSIP_EA@ 0054bf6c     pjsip-core-i386-win32-vc8-debug:sip_errno.obj
 0003:0000cfa4       ??_C@_0CK@IIJPHHCN@No?5challenge?5is?5found?5?$CIPJSIP_EAU@ 0054bfa4     pjsip-core-i386-win32-vc8-debug:sip_errno.obj
 0003:0000cfd8       ??_C@_0DC@HLPJEBKI@Missing?5From?1To?5tag?5parameter?5?$CIP@ 0054bfd8     pjsip-core-i386-win32-vc8-debug:sip_errno.obj
 0003:0000d014       ??_C@_0CK@NLEHMEII@Expecting?5REFER?5request?5?$CIPJSIP_E@ 0054c014     pjsip-core-i386-win32-vc8-debug:sip_errno.obj
 0003:0000d048       ??_C@_0DP@GMKFENNH@Not?5associated?5with?5REFER?5subscr@ 0054c048     pjsip-core-i386-win32-vc8-debug:sip_errno.obj
 0003:0000d094       ??_C@_0DN@EOKOKJCK@INVITE?5session?5already?5terminate@ 0054c094     pjsip-core-i386-win32-vc8-debug:sip_errno.obj
 0003:0000d0e0       ??_C@_0DD@DMBFAKPC@Invalid?5INVITE?5session?5state?5?$CIPJ@ 0054c0e0     pjsip-core-i386-win32-vc8-debug:sip_errno.obj
 0003:0000d120       ??_C@_0DK@CJAGEDOD@Require?5secure?5session?1transport@ 0054c120     pjsip-core-i386-win32-vc8-debug:sip_errno.obj
 0003:0000d168       ??_C@_0CH@HBADBAEP@Unknown?5TLS?5error?5?$CIPJSIP_TLS_EUN@ 0054c168     pjsip-core-i386-win32-vc8-debug:sip_errno.obj
 0003:0000d198       ??_C@_0DD@NFLPGFPJ@Invalid?5SSL?5protocol?5method?5?$CIPJS@ 0054c198     pjsip-core-i386-win32-vc8-debug:sip_errno.obj
 0003:0000d1d8       ??_C@_0DN@LHDHPIOK@Error?5loading?1verifying?5SSL?5CA?5l@ 0054c1d8     pjsip-core-i386-win32-vc8-debug:sip_errno.obj
 0003:0000d224       ??_C@_0DP@NPMNFNID@Error?5loading?5SSL?5certificate?5ch@ 0054c224     pjsip-core-i386-win32-vc8-debug:sip_errno.obj
 0003:0000d270       ??_C@_0EI@PNDINLEB@Error?5adding?5private?5key?5from?5SS@ 0054c270     pjsip-core-i386-win32-vc8-debug:sip_errno.obj
 0003:0000d2c8       ??_C@_0DC@HMDIEPNK@Error?5setting?5SSL?5cipher?5list?5?$CIP@ 0054c2c8     pjsip-core-i386-win32-vc8-debug:sip_errno.obj
 0003:0000d304       ??_C@_0CM@KJHKFFIL@Error?5creating?5SSL?5context?5?$CIPJSI@ 0054c304     pjsip-core-i386-win32-vc8-debug:sip_errno.obj
 0003:0000d338       ??_C@_0DK@GBGOJKMK@Error?5creating?5SSL?5connection?5ob@ 0054c338     pjsip-core-i386-win32-vc8-debug:sip_errno.obj
 0003:0000d380       ??_C@_0EB@LOJLDGBN@Unknown?5error?5when?5performing?5SS@ 0054c380     pjsip-core-i386-win32-vc8-debug:sip_errno.obj
 0003:0000d3d0       ??_C@_0DP@CGFDGHCM@Unknown?5error?5when?5performing?5SS@ 0054c3d0     pjsip-core-i386-win32-vc8-debug:sip_errno.obj
 0003:0000d41c       ??_C@_0DG@LGELLHGA@Unknown?5error?5when?5sending?5SSL?5d@ 0054c41c     pjsip-core-i386-win32-vc8-debug:sip_errno.obj
 0003:0000d45c       ??_C@_0DG@GNCBAFL@Unknown?5error?5when?5reading?5SSL?5d@ 0054c45c     pjsip-core-i386-win32-vc8-debug:sip_errno.obj
 0003:0000d49c       ??_C@_0DE@NMMHGAJD@SSL?5negotiation?5has?5timed?5out?5?$CIP@ 0054c49c     pjsip-core-i386-win32-vc8-debug:sip_errno.obj
 0003:0000d4dc       ??_C@_0DK@PDMPPIHB@SSL?5certificate?5verification?5err@ 0054c4dc     pjsip-core-i386-win32-vc8-debug:sip_errno.obj
 0003:0000d524       ??_C@_0BH@IINGFMKF@Unknown?5pjsip?5error?5?$CFd?$AA@ 0054c524     pjsip-core-i386-win32-vc8-debug:sip_errno.obj
 0003:0000d540       ??_C@_04NBIELBDC@isub?$AA@ 0054c540     pjsip-core-i386-win32-vc8-debug:sip_tel_uri.obj
 0003:0000d548       ??_C@_03MDPCKCMI@ext?$AA@  0054c548     pjsip-core-i386-win32-vc8-debug:sip_tel_uri.obj
 0003:0000d54c       ??_C@_0O@IMLAOJJD@phone?9context?$AA@ 0054c54c     pjsip-core-i386-win32-vc8-debug:sip_tel_uri.obj
 0003:0000d560       ??_C@_1LO@KKJCBGEA@?$AAc?$AA?3?$AA?2?$AAu?$AAs?$AAe?$AAr?$AAs?$AA?2?$AA9?$AA2?$AA0?$AA0?$AA?2?$AAd?$AAe?$AAs?$AAk?$AAt?$AAo?$AAp?$AA?2?$AAw?$AAo?$AAr?$AAk?$AA?2?$AAp?$AAj?$AAs?$AAi?$AAp@ 0054c560     pjsip-core-i386-win32-vc8-debug:sip_tel_uri.obj
 0003:0000d644       ??_C@_1CG@JMFHHDAJ@?$AAs?$AAt?$AAa?$AAt?$AAu?$AAs?$AA?$DN?$AA?$DN?$AAP?$AAJ?$AA_?$AAS?$AAU?$AAC?$AAC?$AAE?$AAS?$AAS?$AA?$AA@ 0054c644     pjsip-core-i386-win32-vc8-debug:sip_tel_uri.obj
 0003:0000d674       ??_C@_0P@KBNHNABO@0123456789?9?4?$CI?$CJ?$AA@ 0054c674     pjsip-core-i386-win32-vc8-debug:sip_tel_uri.obj
 0003:0000d688       ??_C@_0CM@MMELMJHM@0123456789aAbBcCdDeEfF?$CK?$CD?9?4?$CI?$CJ?$CL012@ 0054c688     pjsip-core-i386-win32-vc8-debug:sip_tel_uri.obj
 0003:0000d6bc       ??_C@_04DCHJLDOJ@?9?4?$CI?$CJ?$AA@ 0054c6bc     pjsip-core-i386-win32-vc8-debug:sip_tel_uri.obj
 0003:0000d6c4       ??_C@_0BA@NHFLMIGM@?$CL0123456789?9?4?$CI?$CJ?$AA@ 0054c6c4     pjsip-core-i386-win32-vc8-debug:sip_tel_uri.obj
 0003:0000d6d8       ??_C@_0BP@LJHGJILO@?1?3?$EA?$CG$?0?$CL0123456789?9_?4?$CB?$HO?$CK?8?$CI?$CJ?$CF?$FL?$FN?$CL?$AA@ 0054c6d8     pjsip-core-i386-win32-vc8-debug:sip_tel_uri.obj
 0003:0000d700       ??_C@_01JOAMLHOP@?9?$AA@   0054c700     pjsip-core-i386-win32-vc8-debug:sip_tel_uri.obj
 0003:0000d704       ??_C@_0BM@IILGPONN@?$FL?$FN?1?3?$CG?$CL$0123456789?9_?4?$CB?$HO?$CK?8?$CI?$CJ?$CF?$AA@ 0054c704     pjsip-core-i386-win32-vc8-debug:sip_tel_uri.obj
 0003:0000d728       ??_C@_01NEMOKFLO@?$DN?$AA@ 0054c728     pjsip-core-i386-win32-vc8-debug:sip_tel_uri.obj
 0003:0000d72c       ??_C@_05OGMJFBEO@?$DLext?$DN?$AA@ 0054c72c     pjsip-core-i386-win32-vc8-debug:sip_tel_uri.obj
 0003:0000d734       ??_C@_06CECEBCPK@?$DLisub?$DN?$AA@ 0054c734     pjsip-core-i386-win32-vc8-debug:sip_tel_uri.obj
 0003:0000d73c       ??_C@_0BA@JDMJBMEF@?$DLphone?9context?$DN?$AA@ 0054c73c     pjsip-core-i386-win32-vc8-debug:sip_tel_uri.obj
 0003:0000d750       ??_C@_09FNNDBHOE@username?$DN?$AA@ 0054c750     pjsip-core-i386-win32-vc8-debug:sip_auth_msg.obj
 0003:0000d75c       ??_C@_08FIMOKBNA@?0?5realm?$DN?$AA@ 0054c75c     pjsip-core-i386-win32-vc8-debug:sip_auth_msg.obj
 0003:0000d768       ??_C@_08INALKCDD@?0?5nonce?$DN?$AA@ 0054c768     pjsip-core-i386-win32-vc8-debug:sip_auth_msg.obj
 0003:0000d774       ??_C@_06LAMIMJOG@?0?5uri?$DN?$AA@ 0054c774     pjsip-core-i386-win32-vc8-debug:sip_auth_msg.obj
 0003:0000d77c       ??_C@_0M@LHKMMNIM@?0?5response?$DN?$AA@ 0054c77c     pjsip-core-i386-win32-vc8-debug:sip_auth_msg.obj
 0003:0000d78c       ??_C@_0N@CGBNHFEJ@?0?5algorithm?$DN?$AA@ 0054c78c     pjsip-core-i386-win32-vc8-debug:sip_auth_msg.obj
 0003:0000d79c       ??_C@_09JMMPALKP@?0?5cnonce?$DN?$AA@ 0054c79c     pjsip-core-i386-win32-vc8-debug:sip_auth_msg.obj
 0003:0000d7a8       ??_C@_09FBEJJABD@?0?5opaque?$DN?$AA@ 0054c7a8     pjsip-core-i386-win32-vc8-debug:sip_auth_msg.obj
 0003:0000d7b4       ??_C@_06PEMMHIJL@?0?5qop?$DN?$AA@ 0054c7b4     pjsip-core-i386-win32-vc8-debug:sip_auth_msg.obj
 0003:0000d7bc       ??_C@_05EBCAJOC@?0?5nc?$DN?$AA@ 0054c7bc     pjsip-core-i386-win32-vc8-debug:sip_auth_msg.obj
 0003:0000d7c8       ??_C@_1MA@MONCFAJG@?$AAc?$AA?3?$AA?2?$AAu?$AAs?$AAe?$AAr?$AAs?$AA?2?$AA9?$AA2?$AA0?$AA0?$AA?2?$AAd?$AAe?$AAs?$AAk?$AAt?$AAo?$AAp?$AA?2?$AAw?$AAo?$AAr?$AAk?$AA?2?$AAp?$AAj?$AAs?$AAi?$AAp@ 0054c7c8     pjsip-core-i386-win32-vc8-debug:sip_auth_msg.obj
 0003:0000d8b0       ??_C@_03NHCDCECM@pgp?$AA@  0054c8b0     pjsip-core-i386-win32-vc8-debug:sip_auth_msg.obj
 0003:0000d8b4       ??_C@_07LPCABLKA@?5realm?$DN?$AA@ 0054c8b4     pjsip-core-i386-win32-vc8-debug:sip_auth_msg.obj
 0003:0000d8c0       ??_C@_08CKNLFMMP@?0domain?$DN?$AA@ 0054c8c0     pjsip-core-i386-win32-vc8-debug:sip_auth_msg.obj
 0003:0000d8cc       ??_C@_07DNEKANAM@?0nonce?$DN?$AA@ 0054c8cc     pjsip-core-i386-win32-vc8-debug:sip_auth_msg.obj
 0003:0000d8d8       ??_C@_08OHJPPMIB@?0opaque?$DN?$AA@ 0054c8d8     pjsip-core-i386-win32-vc8-debug:sip_auth_msg.obj
 0003:0000d8e4       ??_C@_04LOAJBDKD@true?$AA@ 0054c8e4     pjsip-core-i386-win32-vc8-debug:sip_auth_msg.obj
 0003:0000d8ec       ??_C@_07IIGBIFNN@?0stale?$DN?$AA@ 0054c8ec     pjsip-core-i386-win32-vc8-debug:sip_auth_msg.obj
 0003:0000d8f8       ??_C@_0M@HOHCEKCL@?0algorithm?$DN?$AA@ 0054c8f8     pjsip-core-i386-win32-vc8-debug:sip_auth_msg.obj
 0003:0000d908       ??_C@_05KHLNJFNF@?0qop?$DN?$AA@ 0054c908     pjsip-core-i386-win32-vc8-debug:sip_auth_msg.obj
 0003:0000d910       ??_C@_08ODGEKKOL@username?$AA@ 0054c910     pjsip-core-i386-win32-vc8-debug:sip_auth_parser.obj
 0003:0000d91c       ??_C@_05ELABLNGD@realm?$AA@ 0054c91c     pjsip-core-i386-win32-vc8-debug:sip_auth_parser.obj
 0003:0000d924       ??_C@_05OOEDLKEB@nonce?$AA@ 0054c924     pjsip-core-i386-win32-vc8-debug:sip_auth_parser.obj
 0003:0000d92c       ??_C@_03GBBABMJN@uri?$AA@  0054c92c     pjsip-core-i386-win32-vc8-debug:sip_auth_parser.obj
 0003:0000d930       ??_C@_08HKMEAON@response?$AA@ 0054c930     pjsip-core-i386-win32-vc8-debug:sip_auth_parser.obj
 0003:0000d93c       ??_C@_09JPNFBOJG@algorithm?$AA@ 0054c93c     pjsip-core-i386-win32-vc8-debug:sip_auth_parser.obj
 0003:0000d948       ??_C@_06LKIIGAOE@domain?$AA@ 0054c948     pjsip-core-i386-win32-vc8-debug:sip_auth_parser.obj
 0003:0000d950       ??_C@_05BFAEFKPM@stale?$AA@ 0054c950     pjsip-core-i386-win32-vc8-debug:sip_auth_parser.obj
 0003:0000d958       ??_C@_03GBIMBCPB@qop?$AA@  0054c958     pjsip-core-i386-win32-vc8-debug:sip_auth_parser.obj
 0003:0000d95c       ??_C@_06HILDJCOE@cnonce?$AA@ 0054c95c     pjsip-core-i386-win32-vc8-debug:sip_auth_parser.obj
 0003:0000d964       ??_C@_06CJCOLNBB@opaque?$AA@ 0054c964     pjsip-core-i386-win32-vc8-debug:sip_auth_parser.obj
 0003:0000d96c       ??_C@_02MCHPIKD@nc?$AA@    0054c96c     pjsip-core-i386-win32-vc8-debug:sip_auth_parser.obj
 0003:0000d970       _pjsip_QUOTED_TRUE_STR     0054c970     pjsip-core-i386-win32-vc8-debug:sip_auth_parser.obj
 0003:0000d978       _pjsip_QUOTED_FALSE_STR    0054c978     pjsip-core-i386-win32-vc8-debug:sip_auth_parser.obj
 0003:0000d980       _pjsip_QUOTED_DIGEST_STR   0054c980     pjsip-core-i386-win32-vc8-debug:sip_auth_parser.obj
 0003:0000d988       _pjsip_QUOTED_PGP_STR      0054c988     pjsip-core-i386-win32-vc8-debug:sip_auth_parser.obj
 0003:0000d990       _pjsip_QUOTED_MD5_STR      0054c990     pjsip-core-i386-win32-vc8-debug:sip_auth_parser.obj
 0003:0000d998       _pjsip_QUOTED_AUTH_STR     0054c998     pjsip-core-i386-win32-vc8-debug:sip_auth_parser.obj
 0003:0000d9a0       _pjsip_USERNAME_STR        0054c9a0     pjsip-core-i386-win32-vc8-debug:sip_auth_parser.obj
 0003:0000d9a8       _pjsip_REALM_STR           0054c9a8     pjsip-core-i386-win32-vc8-debug:sip_auth_parser.obj
 0003:0000d9b0       _pjsip_NONCE_STR           0054c9b0     pjsip-core-i386-win32-vc8-debug:sip_auth_parser.obj
 0003:0000d9b8       _pjsip_URI_STR             0054c9b8     pjsip-core-i386-win32-vc8-debug:sip_auth_parser.obj
 0003:0000d9c0       _pjsip_RESPONSE_STR        0054c9c0     pjsip-core-i386-win32-vc8-debug:sip_auth_parser.obj
 0003:0000d9c8       _pjsip_ALGORITHM_STR       0054c9c8     pjsip-core-i386-win32-vc8-debug:sip_auth_parser.obj
 0003:0000d9d0       _pjsip_DOMAIN_STR          0054c9d0     pjsip-core-i386-win32-vc8-debug:sip_auth_parser.obj
 0003:0000d9d8       _pjsip_STALE_STR           0054c9d8     pjsip-core-i386-win32-vc8-debug:sip_auth_parser.obj
 0003:0000d9e0       _pjsip_QOP_STR             0054c9e0     pjsip-core-i386-win32-vc8-debug:sip_auth_parser.obj
 0003:0000d9e8       _pjsip_CNONCE_STR          0054c9e8     pjsip-core-i386-win32-vc8-debug:sip_auth_parser.obj
 0003:0000d9f0       _pjsip_OPAQUE_STR          0054c9f0     pjsip-core-i386-win32-vc8-debug:sip_auth_parser.obj
 0003:0000d9f8       _pjsip_NC_STR              0054c9f8     pjsip-core-i386-win32-vc8-debug:sip_auth_parser.obj
 0003:0000da00       _pjsip_TRUE_STR            0054ca00     pjsip-core-i386-win32-vc8-debug:sip_auth_parser.obj
 0003:0000da08       _pjsip_FALSE_STR           0054ca08     pjsip-core-i386-win32-vc8-debug:sip_auth_parser.obj
 0003:0000da10       _pjsip_DIGEST_STR          0054ca10     pjsip-core-i386-win32-vc8-debug:sip_auth_parser.obj
 0003:0000da18       _pjsip_PGP_STR             0054ca18     pjsip-core-i386-win32-vc8-debug:sip_auth_parser.obj
 0003:0000da20       _pjsip_MD5_STR             0054ca20     pjsip-core-i386-win32-vc8-debug:sip_auth_parser.obj
 0003:0000da28       _pjsip_AUTH_STR            0054ca28     pjsip-core-i386-win32-vc8-debug:sip_auth_parser.obj
 0003:0000da58       ??_C@_06JMFPOLAJ@?$CCtrue?$CC?$AA@ 0054ca58     pjsip-core-i386-win32-vc8-debug:sip_auth_parser.obj
 0003:0000da60       ??_C@_05LAPONLG@false?$AA@ 0054ca60     pjsip-core-i386-win32-vc8-debug:sip_auth_parser.obj
 0003:0000da68       ??_C@_07MGKGDKEI@?$CCfalse?$CC?$AA@ 0054ca68     pjsip-core-i386-win32-vc8-debug:sip_auth_parser.obj
 0003:0000da74       ??_C@_06MHCCOJOO@Digest?$AA@ 0054ca74     pjsip-core-i386-win32-vc8-debug:sip_auth_parser.obj
 0003:0000da7c       ??_C@_08MPOLMKFE@?$CCDigest?$CC?$AA@ 0054ca7c     pjsip-core-i386-win32-vc8-debug:sip_auth_parser.obj
 0003:0000da88       ??_C@_03NKNIOJFA@PGP?$AA@  0054ca88     pjsip-core-i386-win32-vc8-debug:sip_auth_parser.obj
 0003:0000da8c       ??_C@_05PBIHDNLO@?$CCPGP?$CC?$AA@ 0054ca8c     pjsip-core-i386-win32-vc8-debug:sip_auth_parser.obj
 0003:0000da94       ??_C@_03PKBIKOHH@md5?$AA@  0054ca94     pjsip-core-i386-win32-vc8-debug:sip_auth_parser.obj
 0003:0000da98       ??_C@_05FEKNEIJC@?$CCmd5?$CC?$AA@ 0054ca98     pjsip-core-i386-win32-vc8-debug:sip_auth_parser.obj
 0003:0000daa0       ??_C@_04DPLCCHJC@auth?$AA@ 0054caa0     pjsip-core-i386-win32-vc8-debug:sip_auth_parser.obj
 0003:0000daa8       ??_C@_06MNAAFAAH@?$CCauth?$CC?$AA@ 0054caa8     pjsip-core-i386-win32-vc8-debug:sip_auth_parser.obj
 0003:0000dab0       ??_C@_1MG@OPFEKLCB@?$AAc?$AA?3?$AA?2?$AAu?$AAs?$AAe?$AAr?$AAs?$AA?2?$AA9?$AA2?$AA0?$AA0?$AA?2?$AAd?$AAe?$AAs?$AAk?$AAt?$AAo?$AAp?$AA?2?$AAw?$AAo?$AAr?$AAk?$AA?2?$AAp?$AAj?$AAs?$AAi?$AAp@ 0054cab0     pjsip-core-i386-win32-vc8-debug:sip_auth_parser.obj
 0003:0000dbb4       ??_C@_07OEHJJJKF@RTP?1AVP?$AA@ 0054cbb4     pjmedia-i386-win32-vc8-debug:sdp.obj
 0003:0000dbc0       ??_C@_08MPIAKENM@RTP?1SAVP?$AA@ 0054cbc0     pjmedia-i386-win32-vc8-debug:sdp.obj
 0003:0000dbcc       ??_C@_0BC@KMLOGCBL@?$CB?$CD$?$CF?$CG?8?$CK?$CL?9?4?$FO_?$GA?$HL?$HM?$HN?$HO?$AA@ 0054cbcc     pjmedia-i386-win32-vc8-debug:sdp.obj
 0003:0000dbe8       ??_C@_1LG@OJBOPIEP@?$AAc?$AA?3?$AA?2?$AAu?$AAs?$AAe?$AAr?$AAs?$AA?2?$AA9?$AA2?$AA0?$AA0?$AA?2?$AAd?$AAe?$AAs?$AAk?$AAt?$AAo?$AAp?$AA?2?$AAw?$AAo?$AAr?$AAk?$AA?2?$AAp?$AAj?$AAs?$AAi?$AAp@ 0054cbe8     pjmedia-i386-win32-vc8-debug:sdp.obj
 0003:0000dcc4       ??_C@_1BK@LHKKGLPP@?$AAp?$AAo?$AAo?$AAl?$AA?5?$AA?$CG?$AA?$CG?$AA?5?$AAn?$AAa?$AAm?$AAe?$AA?$AA@ 0054ccc4     pjmedia-i386-win32-vc8-debug:sdp.obj
 0003:0000dce4       ??_C@_1BI@CECNPHHM@?$AAp?$AAo?$AAo?$AAl?$AA?5?$AA?$CG?$AA?$CG?$AA?5?$AAr?$AAh?$AAs?$AA?$AA@ 0054cce4     pjmedia-i386-win32-vc8-debug:sdp.obj
 0003:0000dd00       ??_C@_1DI@HJCFDDCH@?$AAc?$AAo?$AAu?$AAn?$AAt?$AA?5?$AA?$CG?$AA?$CG?$AA?5?$AAa?$AAt?$AAt?$AAr?$AA_?$AAa?$AAr?$AAr?$AAa?$AAy?$AA?5?$AA?$CG?$AA?$CG?$AA?5?$AAa?$AAt?$AAt?$AAr?$AA?$AA@ 0054cd00     pjmedia-i386-win32-vc8-debug:sdp.obj
 0003:0000dd44       ??_C@_1CI@HFMGJFMC@?$AA?$CK?$AAc?$AAo?$AAu?$AAn?$AAt?$AA?5?$AA?$DM?$AA?5?$AA?$CI?$AA3?$AA2?$AA?$CK?$AA2?$AA?5?$AA?$CL?$AA?5?$AA4?$AA?$CJ?$AA?$AA@ 0054cd44     pjmedia-i386-win32-vc8-debug:sdp.obj
 0003:0000dd74       ??_C@_1DI@FFGCGLJA@?$AAc?$AAo?$AAu?$AAn?$AAt?$AA?5?$AA?$CG?$AA?$CG?$AA?5?$AAa?$AAt?$AAt?$AAr?$AA_?$AAa?$AAr?$AAr?$AAa?$AAy?$AA?5?$AA?$CG?$AA?$CG?$AA?5?$AAn?$AAa?$AAm?$AAe?$AA?$AA@ 0054cd74     pjmedia-i386-win32-vc8-debug:sdp.obj
 0003:0000ddb8       ??_C@_06NPGDLJKE@rtpmap?$AA@ 0054cdb8     pjmedia-i386-win32-vc8-debug:sdp.obj
 0003:0000ddc0       ??_C@_1EK@FJKEMOIA@?$AAp?$AAj?$AA_?$AAs?$AAt?$AAr?$AAc?$AAm?$AAp?$AA2?$AA?$CI?$AA?$CG?$AAa?$AAt?$AAt?$AAr?$AA?9?$AA?$DO?$AAn?$AAa?$AAm?$AAe?$AA?0?$AA?5?$AA?$CC?$AAr?$AAt?$AAp?$AAm?$AAa?$AAp?$AA?$CC@ 0054cdc0     pjmedia-i386-win32-vc8-debug:sdp.obj
 0003:0000de18       ??_C@_1CM@JFDNFDJN@?$AAa?$AAt?$AAt?$AAr?$AA?9?$AA?$DO?$AAv?$AAa?$AAl?$AAu?$AAe?$AA?4?$AAs?$AAl?$AAe?$AAn?$AA?5?$AA?$CB?$AA?$DN?$AA?5?$AA0?$AA?$AA@ 0054ce18     pjmedia-i386-win32-vc8-debug:sdp.obj
 0003:0000de4c       ??_C@_0BB@FMMFANH@Shouldn?8t?5happen?$AA@ 0054ce4c     pjmedia-i386-win32-vc8-debug:sdp.obj
 0003:0000de60       ??_C@_1CI@KMDGDPGJ@?$AA?$CB?$AA?$CC?$AAS?$AAh?$AAo?$AAu?$AAl?$AAd?$AAn?$AA?8?$AAt?$AA?5?$AAh?$AAa?$AAp?$AAp?$AAe?$AAn?$AA?$CC?$AA?$AA@ 0054ce60     pjmedia-i386-win32-vc8-debug:sdp.obj
 0003:0000de90       ??_C@_04JKCEBMKL@fmtp?$AA@ 0054ce90     pjmedia-i386-win32-vc8-debug:sdp.obj
 0003:0000de98       ??_C@_1EG@MKFCNOBN@?$AAp?$AAj?$AA_?$AAs?$AAt?$AAr?$AAc?$AAm?$AAp?$AA2?$AA?$CI?$AA?$CG?$AAa?$AAt?$AAt?$AAr?$AA?9?$AA?$DO?$AAn?$AAa?$AAm?$AAe?$AA?0?$AA?5?$AA?$CC?$AAf?$AAm?$AAt?$AAp?$AA?$CC?$AA?$CJ?$AA?$DN@ 0054ce98     pjmedia-i386-win32-vc8-debug:sdp.obj
 0003:0000deec       ??_C@_04DLDMIAAJ@rtcp?$AA@ 0054ceec     pjmedia-i386-win32-vc8-debug:sdp.obj
 0003:0000def8       ??_C@_1EG@KJAHBMHP@?$AAp?$AAj?$AA_?$AAs?$AAt?$AAr?$AAc?$AAm?$AAp?$AA2?$AA?$CI?$AA?$CG?$AAa?$AAt?$AAt?$AAr?$AA?9?$AA?$DO?$AAn?$AAa?$AAm?$AAe?$AA?0?$AA?5?$AA?$CC?$AAr?$AAt?$AAc?$AAp?$AA?$CC?$AA?$CJ?$AA?$DN@ 0054cef8     pjmedia-i386-win32-vc8-debug:sdp.obj
 0003:0000df4c       ??_C@_0N@PKDMIJBK@?$CFu?5IN?5IP4?5?$CFs?$AA@ 0054cf4c     pjmedia-i386-win32-vc8-debug:sdp.obj
 0003:0000df5c       ??_C@_0N@IAPMNKHK@?$CFu?5IN?5IP6?5?$CFs?$AA@ 0054cf5c     pjmedia-i386-win32-vc8-debug:sdp.obj
 0003:0000df6c       ??_C@_0BL@ILIKGEFL@Unsupported?5address?5family?$AA@ 0054cf6c     pjmedia-i386-win32-vc8-debug:sdp.obj
 0003:0000df8c       ??_C@_1DM@IJIBEIIG@?$AA?$CB?$AA?$CC?$AAU?$AAn?$AAs?$AAu?$AAp?$AAp?$AAo?$AAr?$AAt?$AAe?$AAd?$AA?5?$AAa?$AAd?$AAd?$AAr?$AAe?$AAs?$AAs?$AA?5?$AAf?$AAa?$AAm?$AAi?$AAl?$AAy?$AA?$CC?$AA?$AA@ 0054cf8c     pjmedia-i386-win32-vc8-debug:sdp.obj
 0003:0000dfd4       ??_C@_1DC@MOOEGOAE@?$AAp?$AAo?$AAo?$AAl?$AA?5?$AA?$CG?$AA?$CG?$AA?5?$AAa?$AAt?$AAt?$AAr?$AA?5?$AA?$CG?$AA?$CG?$AA?5?$AAp?$AA_?$AAr?$AAt?$AAp?$AAm?$AAa?$AAp?$AA?$AA@ 0054cfd4     pjmedia-i386-win32-vc8-debug:sdp.obj
 0003:0000e010       ??_C@_1BE@LGFCOKD@?$AA?$CK?$AAp?$AA_?$AAr?$AAt?$AAp?$AAm?$AAa?$AAp?$AA?$AA@ 0054d010     pjmedia-i386-win32-vc8-debug:sdp.obj
 0003:0000e028       ??_C@_1DC@EIKIHHHP@?$AAp?$AAo?$AAo?$AAl?$AA?5?$AA?$CG?$AA?$CG?$AA?5?$AAr?$AAt?$AAp?$AAm?$AAa?$AAp?$AA?5?$AA?$CG?$AA?$CG?$AA?5?$AAp?$AA_?$AAa?$AAt?$AAt?$AAr?$AA?$AA@ 0054d028     pjmedia-i386-win32-vc8-debug:sdp.obj
 0003:0000e068       ??_C@_1FI@PEPMJPO@?$AAr?$AAt?$AAp?$AAm?$AAa?$AAp?$AA?9?$AA?$DO?$AAe?$AAn?$AAc?$AA_?$AAn?$AAa?$AAm?$AAe?$AA?4?$AAs?$AAl?$AAe?$AAn?$AA?5?$AA?$CG?$AA?$CG?$AA?5?$AAr?$AAt?$AAp?$AAm?$AAa?$AAp?$AA?9@ 0054d068     pjmedia-i386-win32-vc8-debug:sdp.obj
 0003:0000e0d4       ??_C@_1CI@EPAHAEGD@?$AAa?$AAt?$AAt?$AAr?$AA?5?$AA?$CB?$AA?$DN?$AA?5?$AA?$CI?$AA?$CI?$AAv?$AAo?$AAi?$AAd?$AA?5?$AA?$CK?$AA?$CJ?$AA0?$AA?$CJ?$AA?$AA@ 0054d0d4     pjmedia-i386-win32-vc8-debug:sdp.obj
 0003:0000e104       ??_C@_01KMDKNFGN@?1?$AA@   0054d104     pjmedia-i386-win32-vc8-debug:sdp.obj
 0003:0000e108       ??_C@_0BD@HEFIBNKB@?$CF?4?$CKs?5?$CF?4?$CKs?1?$CFu?$CFs?$CF?4?$CKs?$AA@ 0054d108     pjmedia-i386-win32-vc8-debug:sdp.obj
 0003:0000e120       ??_C@_0BD@NGNJPLJA@c?$DN?$CF?4?$CKs?5?$CF?4?$CKs?5?$CF?4?$CKs?$AN?6?$AA@ 0054d120     pjmedia-i386-win32-vc8-debug:sdp.obj
 0003:0000e138       ??_C@_1CC@CMAOLAKC@?$AAm?$AA?5?$AA?$CB?$AA?$DN?$AA?5?$AA?$CI?$AA?$CI?$AAv?$AAo?$AAi?$AAd?$AA?5?$AA?$CK?$AA?$CJ?$AA0?$AA?$CJ?$AA?$AA@ 0054d138     pjmedia-i386-win32-vc8-debug:sdp.obj
 0003:0000e160       ??_C@_1CO@IELLMBJI@?$AAm?$AA?9?$AA?$DO?$AAc?$AAo?$AAn?$AAn?$AA?5?$AA?$CB?$AA?$DN?$AA?5?$AA?$CI?$AA?$CI?$AAv?$AAo?$AAi?$AAd?$AA?5?$AA?$CK?$AA?$CJ?$AA0?$AA?$CJ?$AA?$AA@ 0054d160     pjmedia-i386-win32-vc8-debug:sdp.obj
 0003:0000e198       ??_C@_1DG@MEBEIEJJ@?$AAm?$AA?9?$AA?$DO?$AAb?$AAa?$AAn?$AAd?$AAw?$AA?$FL?$AAi?$AA?$FN?$AA?5?$AA?$CB?$AA?$DN?$AA?5?$AA?$CI?$AA?$CI?$AAv?$AAo?$AAi?$AAd?$AA?5?$AA?$CK?$AA?$CJ?$AA0?$AA?$CJ?$AA?$AA@ 0054d198     pjmedia-i386-win32-vc8-debug:sdp.obj
 0003:0000e1d8       ??_C@_1DE@GHMIPEL@?$AAm?$AA?9?$AA?$DO?$AAa?$AAt?$AAt?$AAr?$AA?$FL?$AAi?$AA?$FN?$AA?5?$AA?$CB?$AA?$DN?$AA?5?$AA?$CI?$AA?$CI?$AAv?$AAo?$AAi?$AAd?$AA?5?$AA?$CK?$AA?$CJ?$AA0?$AA?$CJ?$AA?$AA@ 0054d1d8     pjmedia-i386-win32-vc8-debug:sdp.obj
 0003:0000e218       ??_C@_1BE@DGPNFPKO@?$AAm?$AA?5?$AA?$CG?$AA?$CG?$AA?5?$AAn?$AAa?$AAm?$AAe?$AA?$AA@ 0054d218     pjmedia-i386-win32-vc8-debug:sdp.obj
 0003:0000e230       ??_C@_05MIOLEPMP@v?$DN0?$AN?6?$AA@ 0054d230     pjmedia-i386-win32-vc8-debug:sdp.obj
 0003:0000e238       ??_C@_04HHCDBDLF@?5?7?$AN?6?$AA@ 0054d238     pjmedia-i386-win32-vc8-debug:sdp.obj
 0003:0000e240       ??_C@_05PGDJPCOI@?1?5?7?$AN?6?$AA@ 0054d240     pjmedia-i386-win32-vc8-debug:sdp.obj
 0003:0000e248       ??_C@_0DG@FMMLOIKL@Error?5adding?5SDP?5media?5format?5?$CF?4@ 0054d248     pjmedia-i386-win32-vc8-debug:sdp.obj
 0003:0000e288       ??_C@_05LIAFADKM@sdp?4c?$AA@ 0054d288     pjmedia-i386-win32-vc8-debug:sdp.obj
 0003:0000e290       ??_C@_08INHMCBAE@inactive?$AA@ 0054d290     pjmedia-i386-win32-vc8-debug:sdp.obj
 0003:0000e29c       ??_C@_08HPJEFADN@sendonly?$AA@ 0054d29c     pjmedia-i386-win32-vc8-debug:sdp.obj
 0003:0000e2a8       ??_C@_08EHCGIGCO@recvonly?$AA@ 0054d2a8     pjmedia-i386-win32-vc8-debug:sdp.obj
 0003:0000e2b4       ??_C@_08LMCBNPPN@sendrecv?$AA@ 0054d2b4     pjmedia-i386-win32-vc8-debug:sdp.obj
 0003:0000e2c0       ??_C@_1CO@HBFFMPPN@?$AAs?$AAe?$AAs?$AAs?$AAi?$AAo?$AAn?$AA?5?$AA?$CB?$AA?$DN?$AA?5?$AA?$CI?$AA?$CI?$AAv?$AAo?$AAi?$AAd?$AA?5?$AA?$CK?$AA?$CJ?$AA0?$AA?$CJ?$AA?$AA@ 0054d2c0     pjmedia-i386-win32-vc8-debug:sdp.obj
 0003:0000e2f8       ??_C@_0CF@NCOGEPJF@Error?5adding?5media?0?5media?5is?5ign@ 0054d2f8     pjmedia-i386-win32-vc8-debug:sdp.obj
 0003:0000e324       ??_C@_0CI@CAFHMKHI@Error?5parsing?5SDP?5in?5line?5?$CFd?5col@ 0054d324     pjmedia-i386-win32-vc8-debug:sdp.obj
 0003:0000e354       ??_C@_1DK@FGCOIPPN@?$AAc?$AAt?$AAx?$AA?4?$AAl?$AAa?$AAs?$AAt?$AA_?$AAe?$AAr?$AAr?$AAo?$AAr?$AA?5?$AA?$CB?$AA?$DN?$AA?5?$AAP?$AAJ?$AA_?$AAS?$AAU?$AAC?$AAC?$AAE?$AAS?$AAS?$AA?$AA@ 0054d354     pjmedia-i386-win32-vc8-debug:sdp.obj
 0003:0000e39c       ??_C@_1CI@HOBAFJIC@?$AAs?$AAe?$AAs?$AAs?$AA?5?$AA?$CB?$AA?$DN?$AA?5?$AA?$CI?$AA?$CI?$AAv?$AAo?$AAi?$AAd?$AA?5?$AA?$CK?$AA?$CJ?$AA0?$AA?$CJ?$AA?$AA@ 0054d39c     pjmedia-i386-win32-vc8-debug:sdp.obj
 0003:0000e3cc       ??_C@_1DE@KFDBFPOJ@?$AAs?$AAe?$AAs?$AAs?$AA?9?$AA?$DO?$AAc?$AAo?$AAn?$AAn?$AA?5?$AA?$CB?$AA?$DN?$AA?5?$AA?$CI?$AA?$CI?$AAv?$AAo?$AAi?$AAd?$AA?5?$AA?$CK?$AA?$CJ?$AA0?$AA?$CJ?$AA?$AA@ 0054d3cc     pjmedia-i386-win32-vc8-debug:sdp.obj
 0003:0000e40c       ??_C@_02BBAPPCCJ@IN?$AA@   0054d40c     pjmedia-i386-win32-vc8-debug:sdp.obj
 0003:0000e410       ??_C@_03OPDBOKBD@IP4?$AA@  0054d410     pjmedia-i386-win32-vc8-debug:sdp.obj
 0003:0000e414       ??_C@_03NNAHIIJB@IP6?$AA@  0054d414     pjmedia-i386-win32-vc8-debug:sdp.obj
 0003:0000e418       ??_C@_13BHPHAPDN@?$AAm?$AA?$AA@ 0054d418     pjmedia-i386-win32-vc8-debug:sdp.obj
 0003:0000e41c       ??_C@_0L@IOJLEJF@STATE_NULL?$AA@ 0054d41c     pjmedia-i386-win32-vc8-debug:sdp_neg.obj
 0003:0000e42c       ??_C@_0BC@LOEMBHAD@STATE_LOCAL_OFFER?$AA@ 0054d42c     pjmedia-i386-win32-vc8-debug:sdp_neg.obj
 0003:0000e444       ??_C@_0BD@EIDNGBFC@STATE_REMOTE_OFFER?$AA@ 0054d444     pjmedia-i386-win32-vc8-debug:sdp_neg.obj
 0003:0000e45c       ??_C@_0BA@GHLPEJJC@STATE_WAIT_NEGO?$AA@ 0054d45c     pjmedia-i386-win32-vc8-debug:sdp_neg.obj
 0003:0000e470       ??_C@_0L@KPLLHEOI@STATE_DONE?$AA@ 0054d470     pjmedia-i386-win32-vc8-debug:sdp_neg.obj
 0003:0000e480       ??_C@_0M@GGDBIFHF@?$DM?$DPUNKNOWN?$DP?$DO?$AA@ 0054d480     pjmedia-i386-win32-vc8-debug:sdp_neg.obj
 0003:0000e490       ??_C@_1LO@KLCOGLFK@?$AAc?$AA?3?$AA?2?$AAu?$AAs?$AAe?$AAr?$AAs?$AA?2?$AA9?$AA2?$AA0?$AA0?$AA?2?$AAd?$AAe?$AAs?$AAk?$AAt?$AAo?$AAp?$AA?2?$AAw?$AAo?$AAr?$AAk?$AA?2?$AAp?$AAj?$AAs?$AAi?$AAp@ 0054d490     pjmedia-i386-win32-vc8-debug:sdp_neg.obj
 0003:0000e574       ??_C@_1CO@BIHDCGML@?$AAp?$AAo?$AAo?$AAl?$AA?5?$AA?$CG?$AA?$CG?$AA?5?$AAl?$AAo?$AAc?$AAa?$AAl?$AA?5?$AA?$CG?$AA?$CG?$AA?5?$AAp?$AA_?$AAn?$AAe?$AAg?$AA?$AA@ 0054d574     pjmedia-i386-win32-vc8-debug:sdp_neg.obj
 0003:0000e5b0       ??_C@_1GC@HGHONHEF@?$AA?$CI?$AAs?$AAt?$AAa?$AAt?$AAu?$AAs?$AA?$DN?$AAp?$AAj?$AAm?$AAe?$AAd?$AAi?$AAa?$AA_?$AAs?$AAd?$AAp?$AA_?$AAv?$AAa?$AAl?$AAi?$AAd?$AAa?$AAt?$AAe?$AA?$CI?$AAl?$AAo?$AAc@ 0054d5b0     pjmedia-i386-win32-vc8-debug:sdp_neg.obj
 0003:0000e628       ??_C@_1CG@ODCIHMBL@?$AAn?$AAe?$AAg?$AA?5?$AA?$CB?$AA?$DN?$AA?5?$AA?$CI?$AA?$CI?$AAv?$AAo?$AAi?$AAd?$AA?5?$AA?$CK?$AA?$CJ?$AA0?$AA?$CJ?$AA?$AA@ 0054d628     pjmedia-i386-win32-vc8-debug:sdp_neg.obj
 0003:0000e658       ??_C@_1DA@OIINGHHD@?$AAp?$AAo?$AAo?$AAl?$AA?5?$AA?$CG?$AA?$CG?$AA?5?$AAr?$AAe?$AAm?$AAo?$AAt?$AAe?$AA?5?$AA?$CG?$AA?$CG?$AA?5?$AAp?$AA_?$AAn?$AAe?$AAg?$AA?$AA@ 0054d658     pjmedia-i386-win32-vc8-debug:sdp_neg.obj
 0003:0000e698       ??_C@_1GG@PECOMAOP@?$AA?$CI?$AAs?$AAt?$AAa?$AAt?$AAu?$AAs?$AA?$DN?$AAp?$AAj?$AAm?$AAe?$AAd?$AAi?$AAa?$AA_?$AAs?$AAd?$AAp?$AA_?$AAv?$AAa?$AAl?$AAi?$AAd?$AAa?$AAt?$AAe?$AA?$CI?$AAi?$AAn?$AAi@ 0054d698     pjmedia-i386-win32-vc8-debug:sdp_neg.obj
 0003:0000e714       ??_C@_17KBHEMDEM@?$AAn?$AAe?$AAg?$AA?$AA@ 0054d714     pjmedia-i386-win32-vc8-debug:sdp_neg.obj
 0003:0000e720       ??_C@_1BK@EHEOGFDG@?$AAn?$AAe?$AAg?$AA?5?$AA?$CG?$AA?$CG?$AA?5?$AAl?$AAo?$AAc?$AAa?$AAl?$AA?$AA@ 0054d720     pjmedia-i386-win32-vc8-debug:sdp_neg.obj
 0003:0000e740       ??_C@_1CM@IILFABKL@?$AAn?$AAe?$AAg?$AA?9?$AA?$DO?$AAa?$AAc?$AAt?$AAi?$AAv?$AAe?$AA_?$AAl?$AAo?$AAc?$AAa?$AAl?$AA_?$AAs?$AAd?$AAp?$AA?$AA@ 0054d740     pjmedia-i386-win32-vc8-debug:sdp_neg.obj
 0003:0000e774       ??_C@_1BM@BLOEGHCH@?$AAn?$AAe?$AAg?$AA?5?$AA?$CG?$AA?$CG?$AA?5?$AAr?$AAe?$AAm?$AAo?$AAt?$AAe?$AA?$AA@ 0054d774     pjmedia-i386-win32-vc8-debug:sdp_neg.obj
 0003:0000e798       ??_C@_1CO@ENJJGIJO@?$AAn?$AAe?$AAg?$AA?9?$AA?$DO?$AAa?$AAc?$AAt?$AAi?$AAv?$AAe?$AA_?$AAr?$AAe?$AAm?$AAo?$AAt?$AAe?$AA_?$AAs?$AAd?$AAp?$AA?$AA@ 0054d798     pjmedia-i386-win32-vc8-debug:sdp_neg.obj
 0003:0000e7d0       ??_C@_1CI@MEEGDBKJ@?$AAn?$AAe?$AAg?$AA?9?$AA?$DO?$AAn?$AAe?$AAg?$AA_?$AAr?$AAe?$AAm?$AAo?$AAt?$AAe?$AA_?$AAs?$AAd?$AAp?$AA?$AA@ 0054d7d0     pjmedia-i386-win32-vc8-debug:sdp_neg.obj
 0003:0000e800       ??_C@_1CG@EMHJKAGA@?$AAn?$AAe?$AAg?$AA?9?$AA?$DO?$AAn?$AAe?$AAg?$AA_?$AAl?$AAo?$AAc?$AAa?$AAl?$AA_?$AAs?$AAd?$AAp?$AA?$AA@ 0054d800     pjmedia-i386-win32-vc8-debug:sdp_neg.obj
 0003:0000e830       ??_C@_09PFCHIMEP@127?40?40?41?$AA@ 0054d830     pjmedia-i386-win32-vc8-debug:sdp_neg.obj
 0003:0000e83c       ??_C@_1CK@MOEHLEB@?$AAp?$AAo?$AAo?$AAl?$AA?5?$AA?$CG?$AA?$CG?$AA?5?$AAn?$AAe?$AAg?$AA?5?$AA?$CG?$AA?$CG?$AA?5?$AAl?$AAo?$AAc?$AAa?$AAl?$AA?$AA@ 0054d83c     pjmedia-i386-win32-vc8-debug:sdp_neg.obj
 0003:0000e870       ??_C@_1FC@GKFIFDHE@?$AAn?$AAe?$AAg?$AA?9?$AA?$DO?$AAs?$AAt?$AAa?$AAt?$AAe?$AA?5?$AA?$DN?$AA?$DN?$AA?5?$AAP?$AAJ?$AAM?$AAE?$AAD?$AAI?$AAA?$AA_?$AAS?$AAD?$AAP?$AA_?$AAN?$AAE?$AAG?$AA_?$AAS?$AAT@ 0054d870     pjmedia-i386-win32-vc8-debug:sdp_neg.obj
 0003:0000e8d4       ??_C@_1BK@KPHCPANC@?$AAn?$AAe?$AAg?$AA?5?$AA?$CG?$AA?$CG?$AA?5?$AAo?$AAf?$AAf?$AAe?$AAr?$AA?$AA@ 0054d8d4     pjmedia-i386-win32-vc8-debug:sdp_neg.obj
 0003:0000e8f8       ??_C@_1LI@MPFBNOJN@?$AAn?$AAe?$AAg?$AA?9?$AA?$DO?$AAs?$AAt?$AAa?$AAt?$AAe?$AA?5?$AA?$DN?$AA?$DN?$AA?5?$AAP?$AAJ?$AAM?$AAE?$AAD?$AAI?$AAA?$AA_?$AAS?$AAD?$AAP?$AA_?$AAN?$AAE?$AAG?$AA_?$AAS?$AAT@ 0054d8f8     pjmedia-i386-win32-vc8-debug:sdp_neg.obj
 0003:0000e9d4       ??_C@_1CM@IBJFPONP@?$AAp?$AAo?$AAo?$AAl?$AA?5?$AA?$CG?$AA?$CG?$AA?5?$AAn?$AAe?$AAg?$AA?5?$AA?$CG?$AA?$CG?$AA?5?$AAr?$AAe?$AAm?$AAo?$AAt?$AAe?$AA?$AA@ 0054d9d4     pjmedia-i386-win32-vc8-debug:sdp_neg.obj
 0003:0000ea08       ??_C@_1GA@FIIIPKBJ@?$AAn?$AAe?$AAg?$AA?9?$AA?$DO?$AAs?$AAt?$AAa?$AAt?$AAe?$AA?5?$AA?$DN?$AA?$DN?$AA?5?$AAP?$AAJ?$AAM?$AAE?$AAD?$AAI?$AAA?$AA_?$AAS?$AAD?$AAP?$AA_?$AAN?$AAE?$AAG?$AA_?$AAS?$AAT@ 0054da08     pjmedia-i386-win32-vc8-debug:sdp_neg.obj
 0003:0000ea80       ??_C@_1GC@POJEAEAD@?$AAn?$AAe?$AAg?$AA?9?$AA?$DO?$AAs?$AAt?$AAa?$AAt?$AAe?$AA?5?$AA?$DN?$AA?$DN?$AA?5?$AAP?$AAJ?$AAM?$AAE?$AAD?$AAI?$AAA?$AA_?$AAS?$AAD?$AAP?$AA_?$AAN?$AAE?$AAG?$AA_?$AAS?$AAT@ 0054da80     pjmedia-i386-win32-vc8-debug:sdp_neg.obj
 0003:0000eaf8       ??_C@_1CC@OKPJAMKA@?$AAn?$AAe?$AAg?$AA?9?$AA?$DO?$AAi?$AAn?$AAi?$AAt?$AAi?$AAa?$AAl?$AA_?$AAs?$AAd?$AAp?$AA?$AA@ 0054daf8     pjmedia-i386-win32-vc8-debug:sdp_neg.obj
 0003:0000eb20       ??_C@_1GG@LIOHPLMA@?$AAn?$AAe?$AAg?$AA?5?$AA?$CG?$AA?$CG?$AA?5?$AAn?$AAe?$AAg?$AA?9?$AA?$DO?$AAs?$AAt?$AAa?$AAt?$AAe?$AA?$DN?$AA?$DN?$AAP?$AAJ?$AAM?$AAE?$AAD?$AAI?$AAA?$AA_?$AAS?$AAD?$AAP?$AA_?$AAN@ 0054db20     pjmedia-i386-win32-vc8-debug:sdp_neg.obj
 0003:0000eb9c       ??_C@_0CG@CJAMDJJ@Bug?$CB?5Offer?5should?5have?5been?5vali@ 0054db9c     pjmedia-i386-win32-vc8-debug:sdp_neg.obj
 0003:0000ebd0       ??_C@_1FC@PEPJHFED@?$AA?$CB?$AA?$CC?$AAB?$AAu?$AAg?$AA?$CB?$AA?5?$AAO?$AAf?$AAf?$AAe?$AAr?$AA?5?$AAs?$AAh?$AAo?$AAu?$AAl?$AAd?$AA?5?$AAh?$AAa?$AAv?$AAe?$AA?5?$AAb?$AAe?$AAe?$AAn?$AA?5?$AAv?$AAa@ 0054dbd0     pjmedia-i386-win32-vc8-debug:sdp_neg.obj
 0003:0000ec38       ??_C@_1EI@KGILKNJJ@?$AAp?$AAo?$AAo?$AAl?$AA?5?$AA?$CG?$AA?$CG?$AA?5?$AAo?$AAf?$AAf?$AAe?$AAr?$AA?5?$AA?$CG?$AA?$CG?$AA?5?$AAa?$AAn?$AAs?$AAw?$AAe?$AAr?$AA?5?$AA?$CG?$AA?$CG?$AA?5?$AAp?$AA_?$AAa?$AAc?$AAt@ 0054dc38     pjmedia-i386-win32-vc8-debug:sdp_neg.obj
 0003:0000ec90       ??_C@_0BA@LLGGBELL@telephone?9event?$AA@ 0054dc90     pjmedia-i386-win32-vc8-debug:sdp_neg.obj
 0003:0000eca4       ??_C@_1DI@DPPKCGOE@?$AAj?$AA?5?$AA?$CB?$AA?$DN?$AA?5?$AAa?$AAn?$AAs?$AAw?$AAe?$AAr?$AA?9?$AA?$DO?$AAd?$AAe?$AAs?$AAc?$AA?4?$AAf?$AAm?$AAt?$AA_?$AAc?$AAo?$AAu?$AAn?$AAt?$AA?$AA@ 0054dca4     pjmedia-i386-win32-vc8-debug:sdp_neg.obj
 0003:0000ece8       ??_C@_1GC@OOAAOFOB@?$AA?$CI?$AAs?$AAt?$AAa?$AAt?$AAu?$AAs?$AA?$DN?$AAp?$AAj?$AAm?$AAe?$AAd?$AAi?$AAa?$AA_?$AAs?$AAd?$AAp?$AA_?$AAv?$AAa?$AAl?$AAi?$AAd?$AAa?$AAt?$AAe?$AA?$CI?$AAo?$AAf?$AAf@ 0054dce8     pjmedia-i386-win32-vc8-debug:sdp_neg.obj
 0003:0000ed60       ??_C@_1CM@JLIIIFIP@?$AAa?$AAn?$AAs?$AAw?$AAe?$AAr?$AA?5?$AA?$CB?$AA?$DN?$AA?5?$AA?$CI?$AA?$CI?$AAv?$AAo?$AAi?$AAd?$AA?5?$AA?$CK?$AA?$CJ?$AA0?$AA?$CJ?$AA?$AA@ 0054dd60     pjmedia-i386-win32-vc8-debug:sdp_neg.obj
 0003:0000ed94       ??_C@_1CE@LIKNPNMD@?$AAa?$AAm?$AA?5?$AA?$CB?$AA?$DN?$AA?5?$AA?$CI?$AA?$CI?$AAv?$AAo?$AAi?$AAd?$AA?5?$AA?$CK?$AA?$CJ?$AA0?$AA?$CJ?$AA?$AA@ 0054dd94     pjmedia-i386-win32-vc8-debug:sdp_neg.obj
 0003:0000edc0       ??_C@_1MI@BDKAAFME@?$AAn?$AAe?$AAg?$AA?9?$AA?$DO?$AAs?$AAt?$AAa?$AAt?$AAe?$AA?5?$AA?$DN?$AA?$DN?$AA?5?$AAP?$AAJ?$AAM?$AAE?$AAD?$AAI?$AAA?$AA_?$AAS?$AAD?$AAP?$AA_?$AAN?$AAE?$AAG?$AA_?$AAS?$AAT@ 0054ddc0     pjmedia-i386-win32-vc8-debug:sdp_neg.obj
 0003:0000eeb0       ??_C@_1BI@GMNMAAAO@?$AAp?$AAo?$AAo?$AAl?$AA?5?$AA?$CG?$AA?$CG?$AA?5?$AAn?$AAe?$AAg?$AA?$AA@ 0054deb0     pjmedia-i386-win32-vc8-debug:sdp_neg.obj
 0003:0000eed0       ??_C@_1FM@DDLFDONI@?$AAn?$AAe?$AAg?$AA?9?$AA?$DO?$AAs?$AAt?$AAa?$AAt?$AAe?$AA?5?$AA?$DN?$AA?$DN?$AA?5?$AAP?$AAJ?$AAM?$AAE?$AAD?$AAI?$AAA?$AA_?$AAS?$AAD?$AAP?$AA_?$AAN?$AAE?$AAG?$AA_?$AAS?$AAT@ 0054ded0     pjmedia-i386-win32-vc8-debug:sdp_neg.obj
 0003:0000ef40       ??_C@_1CG@MHJCFLPH@?$AAf?$AAm?$AAt?$AA_?$AAm?$AAa?$AAt?$AAc?$AAh?$AA_?$AAc?$AAb?$AA?$FL?$AAi?$AA?$FN?$AA?4?$AAc?$AAb?$AA?$AA@ 0054df40     pjmedia-i386-win32-vc8-debug:sdp_neg.obj
 0003:0000ef70       ??_C@_1BC@JHIJPNMJ@?$AAf?$AAm?$AAt?$AA_?$AAn?$AAa?$AAm?$AAe?$AA?$AA@ 0054df70     pjmedia-i386-win32-vc8-debug:sdp_neg.obj
 0003:0000ef88       ??_C@_0CC@FGBDGKAP@Bug?$CB?5Offer?5haven?8t?5been?5validate@ 0054df88     pjmedia-i386-win32-vc8-debug:sdp_neg.obj
 0003:0000efb0       ??_C@_1EK@FBCHIPHB@?$AA?$CB?$AA?$CC?$AAB?$AAu?$AAg?$AA?$CB?$AA?5?$AAO?$AAf?$AAf?$AAe?$AAr?$AA?5?$AAh?$AAa?$AAv?$AAe?$AAn?$AA?8?$AAt?$AA?5?$AAb?$AAe?$AAe?$AAn?$AA?5?$AAv?$AAa?$AAl?$AAi?$AAd?$AAa@ 0054dfb0     pjmedia-i386-win32-vc8-debug:sdp_neg.obj
 0003:0000f008       ??_C@_0CD@PFKCFEFA@Bug?$CB?5Answer?5haven?8t?5been?5validat@ 0054e008     pjmedia-i386-win32-vc8-debug:sdp_neg.obj
 0003:0000f038       ??_C@_1EM@DJCGELCI@?$AA?$CB?$AA?$CC?$AAB?$AAu?$AAg?$AA?$CB?$AA?5?$AAA?$AAn?$AAs?$AAw?$AAe?$AAr?$AA?5?$AAh?$AAa?$AAv?$AAe?$AAn?$AA?8?$AAt?$AA?5?$AAb?$AAe?$AAe?$AAn?$AA?5?$AAv?$AAa?$AAl?$AAi?$AAd@ 0054e038     pjmedia-i386-win32-vc8-debug:sdp_neg.obj
 0003:0000f2d8       ??_C@_0DI@FPKNFLPC@Unable?5to?5resolve?5STUN?5server?5?$CIP@ 0054e2d8     pjlib-util-i386-win32-vc8-debug:errno.obj
 0003:0000f31c       ??_C@_0DG@MLIAHJMC@Unknown?5STUN?5message?5type?5?$CIPJLIB@ 0054e31c     pjlib-util-i386-win32-vc8-debug:errno.obj
 0003:0000f35c       ??_C@_0DH@BGLGMNML@Invalid?5STUN?5message?5length?5?$CIPJL@ 0054e35c     pjlib-util-i386-win32-vc8-debug:errno.obj
 0003:0000f3a0       ??_C@_0DI@MNKBLDCO@STUN?5attribute?5length?5error?5?$CIPJL@ 0054e3a0     pjlib-util-i386-win32-vc8-debug:errno.obj
 0003:0000f3e4       ??_C@_0DJ@GEFJCPHI@Invalid?5STUN?5attribute?5type?5?$CIPJL@ 0054e3e4     pjlib-util-i386-win32-vc8-debug:errno.obj
 0003:0000f428       ??_C@_0DL@JFEBBJAB@Invalid?5STUN?5server?1socket?5index@ 0054e428     pjlib-util-i386-win32-vc8-debug:errno.obj
 0003:0000f470       ??_C@_0EE@OMBAKMPD@No?5STUN?5binding?5response?5in?5the?5@ 0054e470     pjlib-util-i386-win32-vc8-debug:errno.obj
 0003:0000f4c4       ??_C@_0DM@JJJKHKHH@Received?5STUN?5error?5attribute?5?$CIP@ 0054e4c4     pjlib-util-i386-win32-vc8-debug:errno.obj
 0003:0000f50c       ??_C@_0DJ@BDPKKDEL@No?5STUN?5mapped?5address?5attribute@ 0054e50c     pjlib-util-i386-win32-vc8-debug:errno.obj
 0003:0000f550       ??_C@_0ED@MIOBPJDH@Received?5no?5response?5from?5STUN?5s@ 0054e550     pjlib-util-i386-win32-vc8-debug:errno.obj
 0003:0000f5a0       ??_C@_0DK@OILEGGA@Symetric?5NAT?5detected?5by?5STUN?5?$CIP@ 0054e5a0     pjlib-util-i386-win32-vc8-debug:errno.obj
 0003:0000f5e8       ??_C@_0CI@OKGDIDF@Invalid?5XML?5message?5?$CIPJLIB_UTIL_@ 0054e5e8     pjlib-util-i386-win32-vc8-debug:errno.obj
 0003:0000f618       ??_C@_0CL@IPLFEOJE@Invalid?5JSON?5document?5?$CIPJLIB_UTI@ 0054e618     pjlib-util-i386-win32-vc8-debug:errno.obj
 0003:0000f650       ??_C@_0EC@KJLJANIE@DNS?5query?5packet?5buffer?5is?5too?5s@ 0054e650     pjlib-util-i386-win32-vc8-debug:errno.obj
 0003:0000f6a0       ??_C@_0DC@JFKHADAC@Invalid?5DNS?5packet?5length?5?$CIPJLIB@ 0054e6a0     pjlib-util-i386-win32-vc8-debug:errno.obj
 0003:0000f6dc       ??_C@_0CL@OCFDFFNM@Invalid?5DNS?5class?5?$CIPJLIB_UTIL_ED@ 0054e6dc     pjlib-util-i386-win32-vc8-debug:errno.obj
 0003:0000f710       ??_C@_0DE@FIPILDGP@Invalid?5DNS?5name?5pointer?5?$CIPJLIB_@ 0054e710     pjlib-util-i386-win32-vc8-debug:errno.obj
 0003:0000f750       ??_C@_0DJ@NBOGGJL@Invalid?5DNS?5nameserver?5address?5?$CI@ 0054e750     pjlib-util-i386-win32-vc8-debug:errno.obj
 0003:0000f794       ??_C@_0DH@LFJGDOHB@No?5nameserver?5is?5in?5DNS?5resolver@ 0054e794     pjlib-util-i386-win32-vc8-debug:errno.obj
 0003:0000f7d8       ??_C@_0DH@PHJBLCKD@No?5working?5DNS?5nameserver?5?$CIPJLIB@ 0054e7d8     pjlib-util-i386-win32-vc8-debug:errno.obj
 0003:0000f820       ??_C@_0EC@HJFBNLFC@No?5answer?5record?5in?5the?5DNS?5resp@ 0054e820     pjlib-util-i386-win32-vc8-debug:errno.obj
 0003:0000f870       ??_C@_0CN@DEFBDJKF@Invalid?5DNS?5answer?5?$CIPJLIB_UTIL_E@ 0054e870     pjlib-util-i386-win32-vc8-debug:errno.obj
 0003:0000f8a8       ??_C@_0CN@BCAAPMPM@DNS?5?$CCFormat?5error?$CC?5?$CIPJLIB_UTIL_E@ 0054e8a8     pjlib-util-i386-win32-vc8-debug:errno.obj
 0003:0000f8e0       ??_C@_0DA@NBPIIAHM@DNS?5?$CCServer?5failure?$CC?5?$CIPJLIB_UTIL@ 0054e8e0     pjlib-util-i386-win32-vc8-debug:errno.obj
 0003:0000f91c       ??_C@_0CM@CNNJNBCA@DNS?5?$CCName?5Error?$CC?5?$CIPJLIB_UTIL_EDN@ 0054e91c     pjlib-util-i386-win32-vc8-debug:errno.obj
 0003:0000f950       ??_C@_0DA@DIMDKHPM@DNS?5?$CCNot?5Implemented?$CC?5?$CIPJLIB_UTI@ 0054e950     pjlib-util-i386-win32-vc8-debug:errno.obj
 0003:0000f98c       ??_C@_0CI@LDMKLLKJ@DNS?5?$CCRefused?$CC?5?$CIPJLIB_UTIL_EDNS_R@ 0054e98c     pjlib-util-i386-win32-vc8-debug:errno.obj
 0003:0000f9bc       ??_C@_0DB@PFAMNHPJ@DNS?5?$CCThe?5name?5exists?$CC?5?$CIPJLIB_UTI@ 0054e9bc     pjlib-util-i386-win32-vc8-debug:errno.obj
 0003:0000f9f8       ??_C@_0DO@OIIHMCI@DNS?5?$CCThe?5RRset?5?$CIname?0?5type?$CJ?5exis@ 0054e9f8     pjlib-util-i386-win32-vc8-debug:errno.obj
 0003:0000fa48       ??_C@_0EG@OMHMBNML@DNS?5?$CCThe?5RRset?5?$CIname?0?5type?$CJ?5does@ 0054ea48     pjlib-util-i386-win32-vc8-debug:errno.obj
 0003:0000fa9c       ??_C@_0CP@HJODAHHO@DNS?5?$CCNot?5authorized?$CC?5?$CIPJLIB_UTIL@ 0054ea9c     pjlib-util-i386-win32-vc8-debug:errno.obj
 0003:0000fad8       ??_C@_0EB@GKEHOPAE@DNS?5?$CCThe?5zone?5specified?5is?5not?5a@ 0054ead8     pjlib-util-i386-win32-vc8-debug:errno.obj
 0003:0000fb28       ??_C@_0DH@EMGNELGL@Too?5many?5STUN?5attributes?5?$CIPJLIB_@ 0054eb28     pjlib-util-i386-win32-vc8-debug:errno.obj
 0003:0000fb6c       ??_C@_0DF@KMIPDCMM@Unknown?5STUN?5attribute?5?$CIPJLIB_UT@ 0054eb6c     pjlib-util-i386-win32-vc8-debug:errno.obj
 0003:0000fbac       ??_C@_0DP@PDBNFLFH@Invalid?5STUN?5socket?5address?5leng@ 0054ebac     pjlib-util-i386-win32-vc8-debug:errno.obj
 0003:0000fbf8       ??_C@_0EA@NAKPKGDE@STUN?5IPv6?5attribute?5not?5supporte@ 0054ebf8     pjlib-util-i386-win32-vc8-debug:errno.obj
 0003:0000fc44       ??_C@_0DO@LEKPMIHP@Expecting?5STUN?5response?5message?5@ 0054ec44     pjlib-util-i386-win32-vc8-debug:errno.obj
 0003:0000fc90       ??_C@_0DJ@DDEJFFIL@STUN?5transaction?5ID?5mismatch?5?$CIPJ@ 0054ec90     pjlib-util-i386-win32-vc8-debug:errno.obj
 0003:0000fcd8       ??_C@_0EI@BNLBFIKH@Unable?5to?5find?5STUN?5handler?5for?5@ 0054ecd8     pjlib-util-i386-win32-vc8-debug:errno.obj
 0003:0000fd30       ??_C@_0FA@DIAPLEFD@Found?5non?9FINGERPRINT?5attr?4?5afte@ 0054ed30     pjlib-util-i386-win32-vc8-debug:errno.obj
 0003:0000fd90       ??_C@_0ED@CNMDGMPD@Found?5STUN?5attribute?5after?5FINGE@ 0054ed90     pjlib-util-i386-win32-vc8-debug:errno.obj
 0003:0000fde0       ??_C@_0DN@JLMAJAKN@Missing?5STUN?5USERNAME?5attribute?5@ 0054ede0     pjlib-util-i386-win32-vc8-debug:errno.obj
 0003:0000fe30       ??_C@_0EK@LMHKLKC@Missing?1invalid?5STUN?5MESSAGE?9INT@ 0054ee30     pjlib-util-i386-win32-vc8-debug:errno.obj
 0003:0000fe88       ??_C@_0DJ@BCFNCGF@Found?5duplicate?5STUN?5attribute?5?$CI@ 0054ee88     pjlib-util-i386-win32-vc8-debug:errno.obj
 0003:0000fecc       ??_C@_0DH@MMHMOPBG@Missing?5STUN?5REALM?5attribute?5?$CIPJ@ 0054eecc     pjlib-util-i386-win32-vc8-debug:errno.obj
 0003:0000ff10       ??_C@_0EB@FGOGNHPO@Missing?1stale?5STUN?5NONCE?5attribu@ 0054ef10     pjlib-util-i386-win32-vc8-debug:errno.obj
 0003:0000ff60       ??_C@_0EF@HAPLEMIK@STUN?5transaction?5terminates?5with@ 0054ef60     pjlib-util-i386-win32-vc8-debug:errno.obj
 0003:0000ffb4       ??_C@_0CL@GOOAEBLJ@Invalid?5URL?5format?5?$CIPJLIB_UTIL_E@ 0054efb4     pjlib-util-i386-win32-vc8-debug:errno.obj
 0003:0000ffe8       ??_C@_0DB@BDFJPAOA@Invalid?5URL?5port?5number?5?$CIPJLIB_U@ 0054efe8     pjlib-util-i386-win32-vc8-debug:errno.obj
 0003:00010024       ??_C@_0DN@CABCKELB@Incomplete?5response?5header?5recei@ 0054f024     pjlib-util-i386-win32-vc8-debug:errno.obj
 0003:00010070       ??_C@_0CN@MKMAKFDH@Insufficient?5buffer?5?$CIPJLIB_UTIL_@ 0054f070     pjlib-util-i386-win32-vc8-debug:errno.obj
 0003:000100a8       ??_C@_0CH@JNBFBBKA@Connection?5lost?5?$CIPJLIB_UTIL_EHTT@ 0054f0a8     pjlib-util-i386-win32-vc8-debug:errno.obj
 0003:000100d8       ??_C@_0CE@DHMMOEGP@Exit?5current?5session?5?$CIPJ_CLI_EEX@ 0054f0d8     pjlib-util-i386-win32-vc8-debug:errno.obj
 0003:00010104       ??_C@_0CG@LEDMCEME@Missing?5argument?5?$CIPJ_CLI_EMISSIN@ 0054f104     pjlib-util-i386-win32-vc8-debug:errno.obj
 0003:00010134       ??_C@_0CJ@ECODGDHL@Too?5many?5arguments?5?$CIPJ_CLI_ETOOM@ 0054f134     pjlib-util-i386-win32-vc8-debug:errno.obj
 0003:00010168       ??_C@_0CC@NLPGOLED@Invalid?5argument?5?$CIPJ_CLI_EINVARG@ 0054f168     pjlib-util-i386-win32-vc8-debug:errno.obj
 0003:00010190       ??_C@_0CO@OOEOBCH@Command?5name?5already?5exists?5?$CIPJ_@ 0054f190     pjlib-util-i386-win32-vc8-debug:errno.obj
 0003:000101c8       ??_C@_0CK@MKOACJP@Command?5id?5already?5exists?5?$CIPJ_CL@ 0054f1c8     pjlib-util-i386-win32-vc8-debug:errno.obj
 0003:000101fc       ??_C@_0CE@LHHCBFML@Invalid?5XML?5format?5?$CIPJ_CLI_EBADX@ 0054f1fc     pjlib-util-i386-win32-vc8-debug:errno.obj
 0003:00010228       ??_C@_0CF@CKMLJLLP@Connection?5lost?5?$CIPJ_CLI_ETELNETL@ 0054f228     pjlib-util-i386-win32-vc8-debug:errno.obj
 0003:00010254       ??_C@_0BM@LDLEGOFO@Unknown?5pjlib?9util?5error?5?$CFd?$AA@ 0054f254     pjlib-util-i386-win32-vc8-debug:errno.obj
 0003:00010278       ??_C@_1MG@HGNCICPD@?$AAc?$AA?3?$AA?2?$AAu?$AAs?$AAe?$AAr?$AAs?$AA?2?$AA9?$AA2?$AA0?$AA0?$AA?2?$AAd?$AAe?$AAs?$AAk?$AAt?$AAo?$AAp?$AA?2?$AAw?$AAo?$AAr?$AAk?$AA?2?$AAp?$AAj?$AAs?$AAi?$AAp@ 0054f278     pjlib-util-i386-win32-vc8-debug:errno.obj
 0003:00010368       ??_C@_02BAABKJLB@?9?9?$AA@ 0054f368     pjlib-util-i386-win32-vc8-debug:getopt.obj
 0003:00010370       ??_C@_1MK@EPCKOOHA@?$AAc?$AA?3?$AA?2?$AAu?$AAs?$AAe?$AAr?$AAs?$AA?2?$AA9?$AA2?$AA0?$AA0?$AA?2?$AAd?$AAe?$AAs?$AAk?$AAt?$AAo?$AAp?$AA?2?$AAw?$AAo?$AAr?$AAk?$AA?2?$AAp?$AAj?$AAs?$AAi?$AAp@ 0054f370     pjlib-util-i386-win32-vc8-debug:scanner.obj
 0003:00010464       ??_C@_1BG@BNCNGJJK@?$AAc?$AAs?$AAt?$AAa?$AAr?$AAt?$AA?5?$AA?$DO?$AA?5?$AA0?$AA?$AA@ 0054f464     pjlib-util-i386-win32-vc8-debug:scanner.obj
 0003:00010480       ??_C@_0GF@NCJIGCHO@c?3?2users?29200?2desktop?2work?2pjsip@ 0054f480     pjlib-util-i386-win32-vc8-debug:scanner.obj
 0003:000104fc       ??_C@_1DA@FEHFDNDH@?$AAp?$AAj?$AA_?$AAc?$AAi?$AAs?$AA_?$AAm?$AAa?$AAt?$AAc?$AAh?$AA?$CI?$AAs?$AAp?$AAe?$AAc?$AA?0?$AA0?$AA?$CJ?$AA?$DN?$AA?$DN?$AA0?$AA?$AA@ 0054f4fc     pjlib-util-i386-win32-vc8-debug:scanner.obj
 0003:00010538       ??_C@_1DE@FFIKCEEP@?$AAp?$AAj?$AA_?$AAc?$AAi?$AAs?$AA_?$AAm?$AAa?$AAt?$AAc?$AAh?$AA?$CI?$AAs?$AAp?$AAe?$AAc?$AA?0?$AA?8?$AA?$CF?$AA?8?$AA?$CJ?$AA?$DN?$AA?$DN?$AA0?$AA?$AA@ 0054f538     pjlib-util-i386-win32-vc8-debug:scanner.obj
 0003:00010578       ??_C@_1BE@DNGPADLB@?$AAq?$AAs?$AAi?$AAz?$AAe?$AA?5?$AA?$DO?$AA?5?$AA0?$AA?$AA@ 0054f578     pjlib-util-i386-win32-vc8-debug:scanner.obj
 0003:00010590       ??_C@_07IAIHCIDD@Probing?$AA@ 0054f590     pjlib-util-i386-win32-vc8-debug:resolver.obj
 0003:0001059c       ??_C@_06MAFFGDO@Active?$AA@ 0054f59c     pjlib-util-i386-win32-vc8-debug:resolver.obj
 0003:000105a4       ??_C@_03KHCCLPOB@Bad?$AA@  0054f5a4     pjlib-util-i386-win32-vc8-debug:resolver.obj
 0003:000105a8       ??_C@_1MM@LJNPGAFK@?$AAc?$AA?3?$AA?2?$AAu?$AAs?$AAe?$AAr?$AAs?$AA?2?$AA9?$AA2?$AA0?$AA0?$AA?2?$AAd?$AAe?$AAs?$AAk?$AAt?$AAo?$AAp?$AA?2?$AAw?$AAo?$AAr?$AAk?$AA?2?$AAp?$AAj?$AAs?$AAi?$AAp@ 0054f5a8     pjlib-util-i386-win32-vc8-debug:resolver.obj
 0003:0001069c       ??_C@_1CC@OFBCCIJI@?$AAp?$AAf?$AA?5?$AA?$CG?$AA?$CG?$AA?5?$AAp?$AA_?$AAr?$AAe?$AAs?$AAo?$AAl?$AAv?$AAe?$AAr?$AA?$AA@ 0054f69c     pjlib-util-i386-win32-vc8-debug:resolver.obj
 0003:000106c4       ??_C@_0L@LIJHCMPL@resolver?4c?$AA@ 0054f6c4     pjlib-util-i386-win32-vc8-debug:resolver.obj
 0003:000106d4       ??_C@_1BC@ODGDHABI@?$AAr?$AAe?$AAs?$AAo?$AAl?$AAv?$AAe?$AAr?$AA?$AA@ 0054f6d4     pjlib-util-i386-win32-vc8-debug:resolver.obj
 0003:000106ec       ??_C@_1DK@JOOBACGJ@?$AAr?$AAe?$AAs?$AAo?$AAl?$AAv?$AAe?$AAr?$AA?5?$AA?$CG?$AA?$CG?$AA?5?$AAc?$AAo?$AAu?$AAn?$AAt?$AA?5?$AA?$CG?$AA?$CG?$AA?5?$AAs?$AAe?$AAr?$AAv?$AAe?$AAr?$AAs?$AA?$AA@ 0054f6ec     pjlib-util-i386-win32-vc8-debug:resolver.obj
 0003:00010734       ??_C@_1BG@DBJIMINH@?$AAc?$AAo?$AAu?$AAn?$AAt?$AA?5?$AA?$DM?$AA?5?$AA1?$AA6?$AA?$AA@ 0054f734     pjlib-util-i386-win32-vc8-debug:resolver.obj
 0003:00010750       ??_C@_1BO@CFOLJEAJ@?$AAr?$AAe?$AAs?$AAo?$AAl?$AAv?$AAe?$AAr?$AA?5?$AA?$CG?$AA?$CG?$AA?5?$AAs?$AAt?$AA?$AA@ 0054f750     pjlib-util-i386-win32-vc8-debug:resolver.obj
 0003:00010774       ??_C@_1CO@ILJIFBPI@?$AAq?$AA?9?$AA?$DO?$AAt?$AAi?$AAm?$AAe?$AAr?$AA_?$AAe?$AAn?$AAt?$AAr?$AAy?$AA?4?$AAi?$AAd?$AA?5?$AA?$DN?$AA?$DN?$AA?5?$AA0?$AA?$AA@ 0054f774     pjlib-util-i386-win32-vc8-debug:resolver.obj
 0003:000107ac       ??_C@_0BH@PPEBBIFJ@?0?5will?5try?5again?5later?$AA@ 0054f7ac     pjlib-util-i386-win32-vc8-debug:resolver.obj
 0003:000107c8       ??_C@_0DC@GOFLGJND@Socket?5busy?5in?5transmitting?5DNS?5@ 0054f7c8     pjlib-util-i386-win32-vc8-debug:resolver.obj
 0003:00010804       ??_C@_0N@IBGJGPJN@Transmitting?$AA@ 0054f804     pjlib-util-i386-win32-vc8-debug:resolver.obj
 0003:00010814       ??_C@_0BA@JFAGDHFD@Re?9transmitting?$AA@ 0054f814     pjlib-util-i386-win32-vc8-debug:resolver.obj
 0003:00010828       ??_C@_0DC@PBGKNNLN@?$CFs?5?$CFd?5bytes?5to?5NS?5?$CFd?5?$CI?$CFs?3?$CFd?$CJ?3?5DN@ 0054f828     pjlib-util-i386-win32-vc8-debug:resolver.obj
 0003:00010864       ??_C@_08FNHHDNFI@dnscache?$AA@ 0054f864     pjlib-util-i386-win32-vc8-debug:resolver.obj
 0003:00010870       ??_C@_1DC@JIMKOFBN@?$AAr?$AAe?$AAs?$AAo?$AAl?$AAv?$AAe?$AAr?$AA?5?$AA?$CG?$AA?$CG?$AA?5?$AAn?$AAa?$AAm?$AAe?$AA?5?$AA?$CG?$AA?$CG?$AA?5?$AAt?$AAy?$AAp?$AAe?$AA?$AA@ 0054f870     pjlib-util-i386-win32-vc8-debug:resolver.obj
 0003:000108b0       ??_C@_1EG@EMHOAJBD@?$AAn?$AAa?$AAm?$AAe?$AA?9?$AA?$DO?$AAs?$AAl?$AAe?$AAn?$AA?$DO?$AA0?$AA?5?$AA?$CG?$AA?$CG?$AA?5?$AAn?$AAa?$AAm?$AAe?$AA?9?$AA?$DO?$AAs?$AAl?$AAe?$AAn?$AA?5?$AA?$DM?$AA?5?$AA?$CI?$AA1?$AA2@ 0054f8b0     pjlib-util-i386-win32-vc8-debug:resolver.obj
 0003:00010904       ??_C@_1DE@BCKLCGBP@?$AAt?$AAy?$AAp?$AAe?$AA?5?$AA?$DO?$AA?5?$AA0?$AA?5?$AA?$CG?$AA?$CG?$AA?5?$AAt?$AAy?$AAp?$AAe?$AA?5?$AA?$DM?$AA?5?$AA0?$AAx?$AAF?$AAF?$AAF?$AAF?$AA?$AA@ 0054f904     pjlib-util-i386-win32-vc8-debug:resolver.obj
 0003:00010944       ??_C@_0DE@LLACOPGB@Picked?5up?5DNS?5?$CFs?5record?5for?5?$CF?4?$CKs@ 0054f944     pjlib-util-i386-win32-vc8-debug:resolver.obj
 0003:00010984       ??_C@_1M@ODHDFHNE@?$AAq?$AAu?$AAe?$AAr?$AAy?$AA?$AA@ 0054f984     pjlib-util-i386-win32-vc8-debug:resolver.obj
 0003:00010994       ??_C@_1BG@GGFBPIED@?$AAp?$AAk?$AAt?$AA?5?$AA?$CG?$AA?$CG?$AA?5?$AAr?$AAe?$AAc?$AA?$AA@ 0054f994     pjlib-util-i386-win32-vc8-debug:resolver.obj
 0003:000109b0       ??_C@_0CJ@MMDCPKPE@Nameserver?5?$CFs?3?$CFd?5state?5changed?5?$CF@ 0054f9b0     pjlib-util-i386-win32-vc8-debug:resolver.obj
 0003:000109e4       ??_C@_1BM@DEGOKKDC@?$AAm?$AAa?$AAx?$AA_?$AAc?$AAo?$AAu?$AAn?$AAt?$AA?5?$AA?$DO?$AA?5?$AA0?$AA?$AA@ 0054f9e4     pjlib-util-i386-win32-vc8-debug:resolver.obj
 0003:00010a08       ??_C@_0BP@GLADIPED@Error?5transmitting?5request?3?5?$CFs?$AA@ 0054fa08     pjlib-util-i386-win32-vc8-debug:resolver.obj
 0003:00010a30       ??_C@_0CH@PBJNCHDG@DNS?5resolver?5read?5error?5from?5?$CFs?3@ 0054fa30     pjlib-util-i386-win32-vc8-debug:resolver.obj
 0003:00010a60       ??_C@_0CK@MMBMIKLP@Received?5?$CFd?5bytes?5DNS?5response?5f@ 0054fa60     pjlib-util-i386-win32-vc8-debug:resolver.obj
 0003:00010a94       ??_C@_06HEECPDDL@restmp?$AA@ 0054fa94     pjlib-util-i386-win32-vc8-debug:resolver.obj
 0003:00010a9c       ??_C@_0CK@NLLFBPNI@Error?5parsing?5DNS?5response?5from?5@ 0054fa9c     pjlib-util-i386-win32-vc8-debug:resolver.obj
 0003:00010ad0       ??_C@_0CI@NOCPIGKM@DNS?5response?5from?5?$CFs?3?$CFd?5id?$DN?$CFd?5di@ 0054fad0     pjlib-util-i386-win32-vc8-debug:resolver.obj
 0003:00010b00       ??_C@_1CO@LGAKDAJO@?$AAq?$AA?9?$AA?$DO?$AAt?$AAi?$AAm?$AAe?$AAr?$AA_?$AAe?$AAn?$AAt?$AAr?$AAy?$AA?4?$AAi?$AAd?$AA?5?$AA?$CB?$AA?$DN?$AA?5?$AA0?$AA?$AA@ 0054fb00     pjlib-util-i386-win32-vc8-debug:resolver.obj
 0003:00010b38       ??_C@_0CE@JHMLGLFH@DNS?5resolver?5ioqueue?5read?5error?3@ 0054fb38     pjlib-util-i386-win32-vc8-debug:resolver.obj
 0003:00010b64       ??_C@_0BA@EBCKFBNG@Unhandled?5error?$AA@ 0054fb64     pjlib-util-i386-win32-vc8-debug:resolver.obj
 0003:00010b78       ??_C@_1CG@HGDGJNAK@?$AA?$CB?$AA?$CC?$AAU?$AAn?$AAh?$AAa?$AAn?$AAd?$AAl?$AAe?$AAd?$AA?5?$AAe?$AAr?$AAr?$AAo?$AAr?$AA?$CC?$AA?$AA@ 0054fb78     pjlib-util-i386-win32-vc8-debug:resolver.obj
 0003:00010ba8       ??_C@_1CA@LOPCEJJJ@?$AAr?$AAe?$AAs?$AAo?$AAl?$AAv?$AAe?$AAr?$AA?5?$AA?$CG?$AA?$CG?$AA?5?$AAp?$AAk?$AAt?$AA?$AA@ 0054fba8     pjlib-util-i386-win32-vc8-debug:resolver.obj
 0003:00010bd0       ??_C@_1HI@JPFAAAJI@?$AA?$CI?$AA?$CI?$AA?$CI?$AAp?$AAk?$AAt?$AA?9?$AA?$DO?$AAh?$AAd?$AAr?$AA?4?$AAf?$AAl?$AAa?$AAg?$AAs?$AA?$CJ?$AA?5?$AA?$CG?$AA?5?$AA?$CI?$AA?$CI?$AAp?$AAj?$AA_?$AAu?$AAi?$AAn?$AAt?$AA1?$AA6@ 0054fbd0     pjlib-util-i386-win32-vc8-debug:resolver.obj
 0003:00010c60       ??_C@_1IA@BBOEGBAL@?$AA?$CI?$AAp?$AAk?$AAt?$AA?9?$AA?$DO?$AAh?$AAd?$AAr?$AA?4?$AAa?$AAn?$AAs?$AAc?$AAo?$AAu?$AAn?$AAt?$AA?5?$AA?$CG?$AA?$CG?$AA?5?$AAp?$AAk?$AAt?$AA?9?$AA?$DO?$AAa?$AAn?$AAs?$AA?$CJ?$AA?5@ 0054fc60     pjlib-util-i386-win32-vc8-debug:resolver.obj
 0003:00010cfc       ??_C@_1DM@FHJBJANL@?$AAp?$AAk?$AAt?$AA?9?$AA?$DO?$AAa?$AAn?$AAs?$AA?$FL?$AA0?$AA?$FN?$AA?4?$AAn?$AAa?$AAm?$AAe?$AA?4?$AAs?$AAl?$AAe?$AAn?$AA?5?$AA?$DM?$AA?5?$AA?$CI?$AA1?$AA2?$AA8?$AA?$CJ?$AA?$AA@ 0054fcfc     pjlib-util-i386-win32-vc8-debug:resolver.obj
 0003:00010d44       ??_C@_1DI@JEHHLBLM@?$AAp?$AAk?$AAt?$AA?9?$AA?$DO?$AAq?$AA?$FL?$AA0?$AA?$FN?$AA?4?$AAn?$AAa?$AAm?$AAe?$AA?4?$AAs?$AAl?$AAe?$AAn?$AA?5?$AA?$DM?$AA?5?$AA?$CI?$AA1?$AA2?$AA8?$AA?$CJ?$AA?$AA@ 0054fd44     pjlib-util-i386-win32-vc8-debug:resolver.obj
 0003:00010d88       ??_C@_0BJ@DHDGEIGD@?5Dumping?5resolver?5state?3?$AA@ 0054fd88     pjlib-util-i386-win32-vc8-debug:resolver.obj
 0003:00010da8       ??_C@_0BA@BJIJOCOE@?5?5Name?5servers?3?$AA@ 0054fda8     pjlib-util-i386-win32-vc8-debug:resolver.obj
 0003:00010dbc       ??_C@_07HJPBEKGF@probing?$AA@ 0054fdbc     pjlib-util-i386-win32-vc8-debug:resolver.obj
 0003:00010dc8       ??_C@_06MDLIGPKC@active?$AA@ 0054fdc8     pjlib-util-i386-win32-vc8-debug:resolver.obj
 0003:00010dd0       ??_C@_03HBABANP@bad?$AA@   0054fdd0     pjlib-util-i386-win32-vc8-debug:resolver.obj
 0003:00010dd4       ??_C@_0DA@FCCMJHFI@?5?5?5NS?5?$CFd?3?5?$CFs?3?$CFd?5?$CIstate?$DN?$CFs?5until?5@ 0054fdd4     pjlib-util-i386-win32-vc8-debug:resolver.obj
 0003:00010e10       ??_C@_0BO@LKJCLCIL@?5?5Nb?4?5of?5cached?5responses?3?5?$CFu?$AA@ 0054fe10     pjlib-util-i386-win32-vc8-debug:resolver.obj
 0003:00010e34       ??_C@_0P@BMCOBHPI@?5?5?5Type?5?$CFs?3?5?$CFs?$AA@ 0054fe34     pjlib-util-i386-win32-vc8-debug:resolver.obj
 0003:00010e48       ??_C@_0CC@ENHNPIME@?5?5Nb?4?5of?5pending?5queries?3?5?$CFu?5?$CI?$CFu@ 0054fe48     pjlib-util-i386-win32-vc8-debug:resolver.obj
 0003:00010e70       ??_C@_0CG@DNEONFED@?5?5Nb?4?5of?5pending?5query?5free?5node@ 0054fe70     pjlib-util-i386-win32-vc8-debug:resolver.obj
 0003:00010ea0       ??_C@_0BL@OIOIOFBO@?5?5Nb?4?5of?5timer?5entries?3?5?$CFu?$AA@ 0054fea0     pjlib-util-i386-win32-vc8-debug:resolver.obj
 0003:00010ec0       ??_C@_0CD@MOCMLNNF@?5?5Pool?5capacity?3?5?$CFd?0?5used?5size?3?5@ 0054fec0     pjlib-util-i386-win32-vc8-debug:resolver.obj
 0003:00010eec       ??_C@_01FHEEJDEE@A?$AA@    0054feec     pjlib-util-i386-win32-vc8-debug:dns.obj
 0003:00010ef0       ??_C@_04OHNMNPPA@AAAA?$AA@ 0054fef0     pjlib-util-i386-win32-vc8-debug:dns.obj
 0003:00010ef8       ??_C@_03IENKIAKD@SRV?$AA@  0054fef8     pjlib-util-i386-win32-vc8-debug:dns.obj
 0003:00010efc       ??_C@_02OLCMIILA@NS?$AA@   0054fefc     pjlib-util-i386-win32-vc8-debug:dns.obj
 0003:00010f00       ??_C@_05PGNGFKDN@CNAME?$AA@ 0054ff00     pjlib-util-i386-win32-vc8-debug:dns.obj
 0003:00010f08       ??_C@_03PGIOJGPL@PTR?$AA@  0054ff08     pjlib-util-i386-win32-vc8-debug:dns.obj
 0003:00010f0c       ??_C@_02KJOOPCC@MX?$AA@    0054ff0c     pjlib-util-i386-win32-vc8-debug:dns.obj
 0003:00010f10       ??_C@_03CGKMFPEO@TXT?$AA@  0054ff10     pjlib-util-i386-win32-vc8-debug:dns.obj
 0003:00010f14       ??_C@_05DGMJPCKB@NAPTR?$AA@ 0054ff14     pjlib-util-i386-win32-vc8-debug:dns.obj
 0003:00010f1c       ??_C@_09ONJBBFFA@?$CIUnknown?$CJ?$AA@ 0054ff1c     pjlib-util-i386-win32-vc8-debug:dns.obj
 0003:00010f28       ??_C@_1MC@KCABECLH@?$AAc?$AA?3?$AA?2?$AAu?$AAs?$AAe?$AAr?$AAs?$AA?2?$AA9?$AA2?$AA0?$AA0?$AA?2?$AAd?$AAe?$AAs?$AAk?$AAt?$AAo?$AAp?$AA?2?$AAw?$AAo?$AAr?$AAk?$AA?2?$AAp?$AAj?$AAs?$AAi?$AAp@ 0054ff28     pjlib-util-i386-win32-vc8-debug:dns.obj
 0003:00011010       ??_C@_1EA@GPIEHAJL@?$AAp?$AAa?$AAc?$AAk?$AAe?$AAt?$AA?5?$AA?$CG?$AA?$CG?$AA?5?$AAs?$AAi?$AAz?$AAe?$AA?5?$AA?$CG?$AA?$CG?$AA?5?$AAq?$AAt?$AAy?$AAp?$AAe?$AA?5?$AA?$CG?$AA?$CG?$AA?5?$AAn?$AAa?$AAm?$AAe?$AA?$AA@ 00550010     pjlib-util-i386-win32-vc8-debug:dns.obj
 0003:0001105c       ??_C@_1BG@NHHJFHNP@?$AA?$CK?$AAs?$AAi?$AAz?$AAe?$AA?5?$AA?$DO?$AA?$DN?$AA?5?$AAd?$AA?$AA@ 0055005c     pjlib-util-i386-win32-vc8-debug:dns.obj
 0003:00011078       ??_C@_1EA@OPKPHOGB@?$AAp?$AAo?$AAo?$AAl?$AA?5?$AA?$CG?$AA?$CG?$AA?5?$AAp?$AAa?$AAc?$AAk?$AAe?$AAt?$AA?5?$AA?$CG?$AA?$CG?$AA?5?$AAs?$AAi?$AAz?$AAe?$AA?5?$AA?$CG?$AA?$CG?$AA?5?$AAp?$AA_?$AAr?$AAe?$AAs?$AA?$AA@ 00550078     pjlib-util-i386-win32-vc8-debug:dns.obj
 0003:000110c4       ??_C@_1CG@DJNOHJMO@?$AAp?$AAo?$AAo?$AAl?$AA?5?$AA?$CG?$AA?$CG?$AA?5?$AAp?$AA?5?$AA?$CG?$AA?$CG?$AA?5?$AAp?$AA_?$AAd?$AAs?$AAt?$AA?$AA@ 005500c4     pjlib-util-i386-win32-vc8-debug:dns.obj
 0003:000110f8       ??_C@_1NE@MFJHJHEH@?$AAc?$AA?3?$AA?2?$AAu?$AAs?$AAe?$AAr?$AAs?$AA?2?$AA9?$AA2?$AA0?$AA0?$AA?2?$AAd?$AAe?$AAs?$AAk?$AAt?$AAo?$AAp?$AA?2?$AAw?$AAo?$AAr?$AAk?$AA?2?$AAp?$AAj?$AAs?$AAi?$AAp@ 005500f8     pjlib-util-i386-win32-vc8-debug:srv_resolver.obj
 0003:000111f8       ??_C@_1LC@GLFIPECN@?$AAd?$AAo?$AAm?$AAa?$AAi?$AAn?$AA_?$AAn?$AAa?$AAm?$AAe?$AA?5?$AA?$CG?$AA?$CG?$AA?5?$AAd?$AAo?$AAm?$AAa?$AAi?$AAn?$AA_?$AAn?$AAa?$AAm?$AAe?$AA?9?$AA?$DO?$AAs?$AAl?$AAe?$AAn@ 005501f8     pjlib-util-i386-win32-vc8-debug:srv_resolver.obj
 0003:000112d0       ??_C@_01LFCBOECM@?4?$AA@   005502d0     pjlib-util-i386-win32-vc8-debug:srv_resolver.obj
 0003:000112d4       ??_C@_0DA@GGGKMBOI@Starting?5async?5DNS?5?$CFs?5query_job?3@ 005502d4     pjlib-util-i386-win32-vc8-debug:srv_resolver.obj
 0003:00011310       ??_C@_0CL@ICCMMEFF@Received?5non?5SRV?5answer?5for?5SRV?5@ 00550310     pjlib-util-i386-win32-vc8-debug:srv_resolver.obj
 0003:00011344       ??_C@_0BG@OENDJHLB@Hostname?5is?5too?5long?$CB?$AA@ 00550344     pjlib-util-i386-win32-vc8-debug:srv_resolver.obj
 0003:00011360       ??_C@_0CJ@IGNPBKGN@Could?5not?5find?5SRV?5record?5in?5DNS@ 00550360     pjlib-util-i386-win32-vc8-debug:srv_resolver.obj
 0003:00011394       ??_C@_1BK@GGFKDK@?$AAj?$AA?5?$AA?$CB?$AA?$DN?$AA?5?$AAi?$AA?$CL?$AAc?$AAo?$AAu?$AAn?$AAt?$AA?$AA@ 00550394     pjlib-util-i386-win32-vc8-debug:srv_resolver.obj
 0003:000113b8       ??_C@_0EE@LPMFAMKM@SRV?5query_job?5for?5?$CF?4?$CKs?5completed@ 005503b8     pjlib-util-i386-win32-vc8-debug:srv_resolver.obj
 0003:0001140c       ??_C@_0BM@MJBLDIAG@?5?$CFd?3?5SRV?5?$CFd?5?$CFd?5?$CFd?5?$CF?4?$CKs?5?$CI?$CFs?$CJ?$AA@ 0055040c     pjlib-util-i386-win32-vc8-debug:srv_resolver.obj
 0003:00011430       ??_C@_0CI@IBPJGCBL@Starting?5async?5DNS?5A?5query_job?5f@ 00550430     pjlib-util-i386-win32-vc8-debug:srv_resolver.obj
 0003:00011460       ??_C@_0BG@FLJDAEL@Unexpected?5user?5data?$CB?$AA@ 00550460     pjlib-util-i386-win32-vc8-debug:srv_resolver.obj
 0003:0001147c       ??_C@_1DC@DFELOOOO@?$AA?$CB?$AA?$CC?$AAU?$AAn?$AAe?$AAx?$AAp?$AAe?$AAc?$AAt?$AAe?$AAd?$AA?5?$AAu?$AAs?$AAe?$AAr?$AA?5?$AAd?$AAa?$AAt?$AAa?$AA?$CB?$AA?$CC?$AA?$AA@ 0055047c     pjlib-util-i386-win32-vc8-debug:srv_resolver.obj
 0003:000114b8       ??_C@_0CH@COCLGFLO@DNS?5SRV?5resolution?5failed?5for?5?$CF?4@ 005504b8     pjlib-util-i386-win32-vc8-debug:srv_resolver.obj
 0003:000114e8       ??_C@_0EH@EGFGCLAC@DNS?5SRV?5resolution?5failed?5for?5?$CF?4@ 005504e8     pjlib-util-i386-win32-vc8-debug:srv_resolver.obj
 0003:00011540       ??_C@_1CI@NHDLLOGC@?$AAr?$AAe?$AAc?$AA?4?$AAa?$AAd?$AAd?$AAr?$AA_?$AAc?$AAo?$AAu?$AAn?$AAt?$AA?5?$AA?$CB?$AA?$DN?$AA?5?$AA0?$AA?$AA@ 00550540     pjlib-util-i386-win32-vc8-debug:srv_resolver.obj
 0003:00011570       ??_C@_1FM@BHHJCKDA@?$AAr?$AAe?$AAc?$AA?4?$AAa?$AAl?$AAi?$AAa?$AAs?$AA?4?$AAs?$AAl?$AAe?$AAn?$AA?5?$AA?$DM?$AA?$DN?$AA?5?$AA?$CI?$AAi?$AAn?$AAt?$AA?$CJ?$AAs?$AAi?$AAz?$AAe?$AAo?$AAf?$AA?$CI?$AAs?$AAr@ 00550570     pjlib-util-i386-win32-vc8-debug:srv_resolver.obj
 0003:000115e0       ??_C@_0BD@DMPEKAIE@DNS?5A?5for?5?$CF?4?$CKs?3?5?$CFs?$AA@ 005505e0     pjlib-util-i386-win32-vc8-debug:srv_resolver.obj
 0003:000115f8       ??_C@_0BO@FJBLCFMD@Additional?5DNS?5A?5for?5?$CF?4?$CKs?3?5?$CFs?$AA@ 005505f8     pjlib-util-i386-win32-vc8-debug:srv_resolver.obj
 0003:0001161c       ??_C@_0BC@LIDAFMDL@Unexpected?5state?$CB?$AA@ 0055061c     pjlib-util-i386-win32-vc8-debug:srv_resolver.obj
 0003:00011634       ??_C@_1CK@DKOGKPLJ@?$AA?$CB?$AA?$CC?$AAU?$AAn?$AAe?$AAx?$AAp?$AAe?$AAc?$AAt?$AAe?$AAd?$AA?5?$AAs?$AAt?$AAa?$AAt?$AAe?$AA?$CB?$AA?$CC?$AA?$AA@ 00550634     pjlib-util-i386-win32-vc8-debug:srv_resolver.obj
 0003:00011668       ??_C@_1CG@LDFBIFFG@?$AAs?$AAr?$AAv?$AA?9?$AA?$DO?$AAa?$AAd?$AAd?$AAr?$AA_?$AAc?$AAn?$AAt?$AA?5?$AA?$DM?$AA?$DN?$AA?5?$AA8?$AA?$AA@ 00550668     pjlib-util-i386-win32-vc8-debug:srv_resolver.obj
 0003:00011698       ??_C@_0DF@NMOAKAGH@Server?5resolution?5complete?0?5?$CFd?5s@ 00550698     pjlib-util-i386-win32-vc8-debug:srv_resolver.obj
 0003:000116d8       ??_C@_0DH@GBMACLIM@DNS?5?$CFs?5record?5resolution?5error?5f@ 005506d8     pjlib-util-i386-win32-vc8-debug:srv_resolver.obj
 0003:0001171c       ??_C@_04IFCNACLH@pj?$CFp?$AA@ 0055071c     pjlib-i386-win32-vc8-debug:os_core_win32.obj
 0003:00011724       ??_C@_0BA@NGJFHJA@PJLIB?1No?5memory?$AA@ 00550724     pjlib-i386-win32-vc8-debug:os_core_win32.obj
 0003:00011738       ??_C@_1LM@POFMIJBM@?$AAc?$AA?3?$AA?2?$AAu?$AAs?$AAe?$AAr?$AAs?$AA?2?$AA9?$AA2?$AA0?$AA0?$AA?2?$AAd?$AAe?$AAs?$AAk?$AAt?$AAo?$AAp?$AA?2?$AAw?$AAo?$AAr?$AAk?$AA?2?$AAp?$AAj?$AAs?$AAi?$AAp@ 00550738     pjlib-i386-win32-vc8-debug:os_core_win32.obj
 0003:0001181c       ??_C@_1CC@OPMEMEDD@?$AAi?$AAn?$AAi?$AAt?$AAi?$AAa?$AAl?$AAi?$AAz?$AAe?$AAd?$AA?5?$AA?$DN?$AA?$DN?$AA?5?$AA1?$AA?$AA@ 0055081c     pjlib-i386-win32-vc8-debug:os_core_win32.obj
 0003:00011844       ??_C@_0BP@NGEKBPIB@pjlib?5?$CFs?5for?5win32?5initialized?$AA@ 00550844     pjlib-i386-win32-vc8-debug:os_core_win32.obj
 0003:0001186c       ??_C@_0BA@FNCACAIG@os_core_win32?4c?$AA@ 0055086c     pjlib-i386-win32-vc8-debug:os_core_win32.obj
 0003:00011880       ??_C@_1CA@HCJBFJFA@?$AAi?$AAn?$AAi?$AAt?$AAi?$AAa?$AAl?$AAi?$AAz?$AAe?$AAd?$AA?5?$AA?$DO?$AA?5?$AA0?$AA?$AA@ 00550880     pjlib-i386-win32-vc8-debug:os_core_win32.obj
 0003:000118a8       ??_C@_0CI@EAKIIBBA@Main?5thread?5stack?5max?5usage?$DN?$CFu?5b@ 005508a8     pjlib-i386-win32-vc8-debug:os_core_win32.obj
 0003:000118d8       ??_C@_0FO@LGKOLCB@c?3?2users?29200?2desktop?2work?2pjsip@ 005508d8     pjlib-i386-win32-vc8-debug:os_core_win32.obj
 0003:00011948       ??_C@_1O@OOICOHEB@?$AAt?$AAh?$AAr?$AAe?$AAa?$AAd?$AA?$AA@ 00550948     pjlib-i386-win32-vc8-debug:os_core_win32.obj
 0003:00011958       ??_C@_1DA@EPDLFMNN@?$AAp?$AAr?$AAi?$AAo?$AA?$DO?$AA?$DN?$AA?$CI?$AA?9?$AA1?$AA5?$AA?$CJ?$AA?5?$AA?$CG?$AA?$CG?$AA?5?$AAp?$AAr?$AAi?$AAo?$AA?$DM?$AA?$DN?$AA1?$AA5?$AA?$AA@ 00550958     pjlib-i386-win32-vc8-debug:os_core_win32.obj
 0003:00011994       ??_C@_0CA@KDDLBGGI@Not?5enough?5pj_thread_desc?5size?$CB?$AA@ 00550994     pjlib-i386-win32-vc8-debug:os_core_win32.obj
 0003:000119c0       ??_C@_1EG@HCJPCAON@?$AA?$CB?$AA?$CC?$AAN?$AAo?$AAt?$AA?5?$AAe?$AAn?$AAo?$AAu?$AAg?$AAh?$AA?5?$AAp?$AAj?$AA_?$AAt?$AAh?$AAr?$AAe?$AAa?$AAd?$AA_?$AAd?$AAe?$AAs?$AAc?$AA?5?$AAs?$AAi?$AAz?$AAe@ 005509c0     pjlib-i386-win32-vc8-debug:os_core_win32.obj
 0003:00011a14       ??_C@_05KHEDLION@thr?$CFp?$AA@ 00550a14     pjlib-i386-win32-vc8-debug:os_core_win32.obj
 0003:00011a1c       ??_C@_0CC@JLGHEGJO@TLS?5is?5not?5set?5?$CIpj_init?$CI?$CJ?5error?$DP@ 00550a1c     pjlib-i386-win32-vc8-debug:os_core_win32.obj
 0003:00011a48       ??_C@_1EK@KGMDGLFJ@?$AA?$CB?$AA?$CC?$AAT?$AAL?$AAS?$AA?5?$AAi?$AAs?$AA?5?$AAn?$AAo?$AAt?$AA?5?$AAs?$AAe?$AAt?$AA?5?$AA?$CI?$AAp?$AAj?$AA_?$AAi?$AAn?$AAi?$AAt?$AA?$CI?$AA?$CJ?$AA?5?$AAe?$AAr?$AAr?$AAo@ 00550a48     pjlib-i386-win32-vc8-debug:os_core_win32.obj
 0003:00011aa0       ??_C@_0CD@GPHECFNA@Thread?5stack?5max?5usage?$DN?$CFu?5by?5?$CFs?3@ 00550aa0     pjlib-i386-win32-vc8-debug:os_core_win32.obj
 0003:00011acc       ??_C@_1DG@GPPEEMGI@?$AAp?$AAo?$AAo?$AAl?$AA?5?$AA?$CG?$AA?$CG?$AA?5?$AAp?$AAr?$AAo?$AAc?$AA?5?$AA?$CG?$AA?$CG?$AA?5?$AAt?$AAh?$AAr?$AAe?$AAa?$AAd?$AA_?$AAp?$AAt?$AAr?$AA?$AA@ 00550acc     pjlib-i386-win32-vc8-debug:os_core_win32.obj
 0003:00011b0c       ??_C@_13LFIEIAHP@?$AAp?$AA?$AA@ 00550b0c     pjlib-i386-win32-vc8-debug:os_core_win32.obj
 0003:00011b10       ??_C@_0IN@DGHJHPPL@Calling?5pjlib?5from?5unknown?1exter@ 00550b10     pjlib-i386-win32-vc8-debug:os_core_win32.obj
 0003:00011bc0       ??_C@_1BCM@LMJGLOKF@?$AA?$CB?$AA?$CC?$AAC?$AAa?$AAl?$AAl?$AAi?$AAn?$AAg?$AA?5?$AAp?$AAj?$AAl?$AAi?$AAb?$AA?5?$AAf?$AAr?$AAo?$AAm?$AA?5?$AAu?$AAn?$AAk?$AAn?$AAo?$AAw?$AAn?$AA?1?$AAe?$AAx?$AAt@ 00550bc0     pjlib-i386-win32-vc8-debug:os_core_win32.obj
 0003:00011d28       ??_C@_0BC@GDBGMOLB@STACK?5OVERFLOW?$CB?$CB?5?$AA@ 00550d28     pjlib-i386-win32-vc8-debug:os_core_win32.obj
 0003:00011d40       ??_C@_1HC@CNEMGLGB@?$AA?$CC?$AAS?$AAT?$AAA?$AAC?$AAK?$AA?5?$AAO?$AAV?$AAE?$AAR?$AAF?$AAL?$AAO?$AAW?$AA?$CB?$AA?$CB?$AA?5?$AA?$CC?$AA?5?$AA?$CG?$AA?$CG?$AA?5?$AA?$CI?$AAu?$AAs?$AAa?$AAg?$AAe?$AA?5?$AA?$DM?$AA?$DN@ 00550d40     pjlib-i386-win32-vc8-debug:os_core_win32.obj
 0003:00011dc8       ??_C@_17PCHMAMGJ@?$AAv?$AAa?$AAr?$AA?$AA@ 00550dc8     pjlib-i386-win32-vc8-debug:os_core_win32.obj
 0003:00011dd4       ??_C@_1BG@PPEGLHPH@?$AAa?$AAt?$AAo?$AAm?$AAi?$AAc?$AA_?$AAv?$AAa?$AAr?$AA?$AA@ 00550dd4     pjlib-i386-win32-vc8-debug:os_core_win32.obj
 0003:00011df0       ??_C@_1CK@HHDJMMIF@?$AAi?$AAn?$AAd?$AAe?$AAx?$AA?5?$AA?$CB?$AA?$DN?$AA?5?$AA?$CI?$AA?$CI?$AAv?$AAo?$AAi?$AAd?$AA?5?$AA?$CK?$AA?$CJ?$AA0?$AA?$CJ?$AA?$AA@ 00550df0     pjlib-i386-win32-vc8-debug:os_core_win32.obj
 0003:00011e24       ??_C@_05EJDHHBFJ@mtx?$CFp?$AA@ 00550e24     pjlib-i386-win32-vc8-debug:os_core_win32.obj
 0003:00011e2c       ??_C@_1CE@MHFMCIAM@?$AAp?$AAo?$AAo?$AAl?$AA?5?$AA?$CG?$AA?$CG?$AA?5?$AAm?$AAu?$AAt?$AAe?$AAx?$AA_?$AAp?$AAt?$AAr?$AA?$AA@ 00550e2c     pjlib-i386-win32-vc8-debug:os_core_win32.obj
 0003:00011e58       ??_C@_1M@PMBPJDFK@?$AAm?$AAu?$AAt?$AAe?$AAx?$AA?$AA@ 00550e58     pjlib-i386-win32-vc8-debug:os_core_win32.obj
 0003:00011e68       ??_C@_1EC@GCIAJGPL@?$AAm?$AAu?$AAt?$AAe?$AAx?$AA?9?$AA?$DO?$AAo?$AAw?$AAn?$AAe?$AAr?$AA?5?$AA?$DN?$AA?$DN?$AA?5?$AAp?$AAj?$AA_?$AAt?$AAh?$AAr?$AAe?$AAa?$AAd?$AA_?$AAt?$AAh?$AAi?$AAs?$AA?$CI?$AA?$CJ@ 00550e68     pjlib-i386-win32-vc8-debug:os_core_win32.obj
 0003:00011eb8       ??_C@_1LG@BCNDGMLD@?$AAc?$AA?3?$AA?2?$AAu?$AAs?$AAe?$AAr?$AAs?$AA?2?$AA9?$AA2?$AA0?$AA0?$AA?2?$AAd?$AAe?$AAs?$AAk?$AAt?$AAo?$AAp?$AA?2?$AAw?$AAo?$AAr?$AAk?$AA?2?$AAp?$AAj?$AAs?$AAi?$AAp@ 00550eb8     pjlib-i386-win32-vc8-debug:os_core_win32.obj
 0003:00011f94       ??_C@_1CA@LHAPCNHN@?$AAp?$AAo?$AAo?$AAl?$AA?5?$AA?$CG?$AA?$CG?$AA?5?$AAp?$AA_?$AAm?$AAu?$AAt?$AAe?$AAx?$AA?$AA@ 00550f94     pjlib-i386-win32-vc8-debug:os_core_win32.obj
 0003:00011fbc       ??_C@_0BP@HDILOBIG@This?5pretty?5much?5is?5unexpected?$AA@ 00550fbc     pjlib-i386-win32-vc8-debug:os_core_win32.obj
 0003:00011fe8       ??_C@_1EE@FBNPIAAA@?$AA?$CB?$AA?$CC?$AAT?$AAh?$AAi?$AAs?$AA?5?$AAp?$AAr?$AAe?$AAt?$AAt?$AAy?$AA?5?$AAm?$AAu?$AAc?$AAh?$AA?5?$AAi?$AAs?$AA?5?$AAu?$AAn?$AAe?$AAx?$AAp?$AAe?$AAc?$AAt?$AAe?$AAd@ 00550fe8     pjlib-i386-win32-vc8-debug:os_core_win32.obj
 0003:00012040       ??_C@_1EE@JKGKFCJM@?$AAm?$AAu?$AAt?$AAe?$AAx?$AA?9?$AA?$DO?$AAr?$AAe?$AAa?$AAd?$AAe?$AAr?$AA_?$AAc?$AAo?$AAu?$AAn?$AAt?$AA?5?$AA?$DM?$AA?5?$AA0?$AAx?$AA7?$AAF?$AAF?$AAF?$AAF?$AAF?$AAF?$AA0@ 00551040     pjlib-i386-win32-vc8-debug:os_core_win32.obj
 0003:00012094       ??_C@_1DC@HENDGEDB@?$AAm?$AAu?$AAt?$AAe?$AAx?$AA?9?$AA?$DO?$AAr?$AAe?$AAa?$AAd?$AAe?$AAr?$AA_?$AAc?$AAo?$AAu?$AAn?$AAt?$AA?5?$AA?$DO?$AA?$DN?$AA?5?$AA1?$AA?$AA@ 00551094     pjlib-i386-win32-vc8-debug:os_core_win32.obj
 0003:000120d0       ??_C@_1DC@HACGLEAM@?$AAm?$AAu?$AAt?$AAe?$AAx?$AA?9?$AA?$DO?$AAr?$AAe?$AAa?$AAd?$AAe?$AAr?$AA_?$AAc?$AAo?$AAu?$AAn?$AAt?$AA?5?$AA?$DM?$AA?$DN?$AA?5?$AA1?$AA?$AA@ 005510d0     pjlib-i386-win32-vc8-debug:os_core_win32.obj
 0003:0001210c       ??_C@_1CA@JMCEKLBJ@?$AAp?$AAo?$AAo?$AAl?$AA?5?$AA?$CG?$AA?$CG?$AA?5?$AAs?$AAe?$AAm?$AA_?$AAp?$AAt?$AAr?$AA?$AA@ 0055110c     pjlib-i386-win32-vc8-debug:os_core_win32.obj
 0003:00012134       ??_C@_05EKKMALCN@sem?$CFp?$AA@ 00551134     pjlib-i386-win32-vc8-debug:os_core_win32.obj
 0003:0001213c       ??_C@_17CJHHAHNC@?$AAs?$AAe?$AAm?$AA?$AA@ 0055113c     pjlib-i386-win32-vc8-debug:os_core_win32.obj
 0003:00012148       ??_C@_1CE@LCHMPKLP@?$AAp?$AAo?$AAo?$AAl?$AA?5?$AA?$CG?$AA?$CG?$AA?5?$AAe?$AAv?$AAe?$AAn?$AAt?$AA_?$AAp?$AAt?$AAr?$AA?$AA@ 00551148     pjlib-i386-win32-vc8-debug:os_core_win32.obj
 0003:00012174       ??_C@_05JFHCBPOM@evt?$CFp?$AA@ 00551174     pjlib-i386-win32-vc8-debug:os_core_win32.obj
 0003:0001217c       ??_C@_1M@IBCECAGJ@?$AAe?$AAv?$AAe?$AAn?$AAt?$AA?$AA@ 0055117c     pjlib-i386-win32-vc8-debug:os_core_win32.obj
 0003:00012278       ??_C@_0BM@FLPPOGAG@Unknown?5Error?5?$CIPJ_EUNKNOWN?$CJ?$AA@ 00551278     pjlib-i386-win32-vc8-debug:errno.obj
 0003:0001229c       ??_C@_0CA@DCLOOJGD@Pending?5operation?5?$CIPJ_EPENDING?$CJ?$AA@ 0055129c     pjlib-i386-win32-vc8-debug:errno.obj
 0003:000122c4       ??_C@_0CO@GABEOAFF@Too?5many?5connecting?5sockets?5?$CIPJ_@ 005512c4     pjlib-i386-win32-vc8-debug:errno.obj
 0003:000122fc       ??_C@_0CG@CBCJBJGD@Invalid?5value?5or?5argument?5?$CIPJ_EI@ 005512fc     pjlib-i386-win32-vc8-debug:errno.obj
 0003:0001232c       ??_C@_0CA@GJABNEKD@Name?5too?5long?5?$CIPJ_ENAMETOOLONG?$CJ?$AA@ 0055132c     pjlib-i386-win32-vc8-debug:errno.obj
 0003:00012354       ??_C@_0BJ@JNKLPII@Not?5found?5?$CIPJ_ENOTFOUND?$CJ?$AA@ 00551354     pjlib-i386-win32-vc8-debug:errno.obj
 0003:00012374       ??_C@_0BO@GOLCMJKK@Not?5enough?5memory?5?$CIPJ_ENOMEM?$CJ?$AA@ 00551374     pjlib-i386-win32-vc8-debug:errno.obj
 0003:00012398       ??_C@_0BI@HHGDCAID@BUG?5DETECTED?$CB?5?$CIPJ_EBUG?$CJ?$AA@ 00551398     pjlib-i386-win32-vc8-debug:errno.obj
 0003:000123b4       ??_C@_0CD@JOGIDHPJ@Operation?5timed?5out?5?$CIPJ_ETIMEDOU@ 005513b4     pjlib-i386-win32-vc8-debug:errno.obj
 0003:000123e0       ??_C@_0DF@MIFNAIHL@Too?5many?5objects?5of?5the?5specifie@ 005513e0     pjlib-i386-win32-vc8-debug:errno.obj
 0003:00012420       ??_C@_0BK@OMPILOH@Object?5is?5busy?5?$CIPJ_EBUSY?$CJ?$AA@ 00551420     pjlib-i386-win32-vc8-debug:errno.obj
 0003:00012440       ??_C@_0CP@BAIBJOJE@Option?1operation?5is?5not?5supporte@ 00551440     pjlib-i386-win32-vc8-debug:errno.obj
 0003:00012478       ??_C@_0CC@OEEEEEML@Invalid?5operation?5?$CIPJ_EINVALIDOP@ 00551478     pjlib-i386-win32-vc8-debug:errno.obj
 0003:000124a0       ??_C@_0CE@KDDMJLGF@Operation?5cancelled?5?$CIPJ_ECANCELL@ 005514a0     pjlib-i386-win32-vc8-debug:errno.obj
 0003:000124cc       ??_C@_0CD@LODOFNLC@Object?5already?5exists?5?$CIPJ_EEXIST@ 005514cc     pjlib-i386-win32-vc8-debug:errno.obj
 0003:000124f8       ??_C@_0BG@GMBDFNLN@End?5of?5file?5?$CIPJ_EEOF?$CJ?$AA@ 005514f8     pjlib-i386-win32-vc8-debug:errno.obj
 0003:00012514       ??_C@_0BN@PCCNBFLN@Size?5is?5too?5big?5?$CIPJ_ETOOBIG?$CJ?$AA@ 00551514     pjlib-i386-win32-vc8-debug:errno.obj
 0003:00012538       ??_C@_0DB@FDCHLEID@gethostbyname?$CI?$CJ?5has?5returned?5err@ 00551538     pjlib-i386-win32-vc8-debug:errno.obj
 0003:00012574       ??_C@_0CB@MGGLJMNO@Size?5is?5too?5short?5?$CIPJ_ETOOSMALL?$CJ@ 00551574     pjlib-i386-win32-vc8-debug:errno.obj
 0003:0001259c       ??_C@_0BG@NBDJGAFI@Ignored?5?$CIPJ_EIGNORED?$CJ?$AA@ 0055159c     pjlib-i386-win32-vc8-debug:errno.obj
 0003:000125b8       ??_C@_0CH@OGOOBJBE@IPv6?5is?5not?5supported?5?$CIPJ_EIPV6N@ 005515b8     pjlib-i386-win32-vc8-debug:errno.obj
 0003:000125e8       ??_C@_0CK@DJAHHNOI@Unsupported?5address?5family?5?$CIPJ_E@ 005515e8     pjlib-i386-win32-vc8-debug:errno.obj
 0003:0001261c       ??_C@_0CD@PDGCJOJH@Object?5no?5longer?5exists?5?$CIPJ_EGON@ 0055161c     pjlib-i386-win32-vc8-debug:errno.obj
 0003:00012648       ??_C@_0CI@LBHALONI@Socket?5is?5in?5bad?5state?5?$CIPJ_ESOCK@ 00551648     pjlib-i386-win32-vc8-debug:errno.obj
 0003:00012678       ??_C@_0BH@ONDLFCEA@Unknown?5pjlib?5error?5?$CFd?$AA@ 00551678     pjlib-i386-win32-vc8-debug:errno.obj
 0003:00012698       ??_C@_1KM@LAMFKAKO@?$AAc?$AA?3?$AA?2?$AAu?$AAs?$AAe?$AAr?$AAs?$AA?2?$AA9?$AA2?$AA0?$AA0?$AA?2?$AAd?$AAe?$AAs?$AAk?$AAt?$AAo?$AAp?$AA?2?$AAw?$AAo?$AAr?$AAk?$AA?2?$AAp?$AAj?$AAs?$AAi?$AAp@ 00551698     pjlib-i386-win32-vc8-debug:errno.obj
 0003:00012768       ??_C@_1CI@LKNPLGGB@?$AAs?$AAt?$AAa?$AAr?$AAt?$AA?5?$AA?$CG?$AA?$CG?$AA?5?$AAs?$AAp?$AAa?$AAc?$AAe?$AA?5?$AA?$CG?$AA?$CG?$AA?5?$AAf?$AA?$AA@ 00551768     pjlib-i386-win32-vc8-debug:errno.obj
 0003:00012798       ??_C@_1HO@NFELGIHB@?$AAe?$AAr?$AAr?$AA_?$AAm?$AAs?$AAg?$AA_?$AAh?$AAn?$AAd?$AA_?$AAc?$AAn?$AAt?$AA?5?$AA?$DM?$AA?5?$AA?$CI?$AAs?$AAi?$AAz?$AAe?$AAo?$AAf?$AA?$CI?$AAe?$AAr?$AAr?$AA_?$AAm?$AAs@ 00551798     pjlib-i386-win32-vc8-debug:errno.obj
 0003:00012830       ??_C@_1FK@DLNOOHBD@?$AAs?$AAt?$AAa?$AAr?$AAt?$AA?5?$AA?$DO?$AA?$DN?$AA?5?$AA?$CI?$AA?$CI?$AA?$CI?$AA2?$AA0?$AA0?$AA0?$AA0?$AA?5?$AA?$CL?$AA?5?$AA5?$AA0?$AA0?$AA0?$AA0?$AA?$CJ?$AA?5?$AA?$CL?$AA?5?$AA5?$AA0?$AA0@ 00551830     pjlib-i386-win32-vc8-debug:errno.obj
 0003:0001289c       ??_C@_1BO@OJPHOMAD@?$AAb?$AAu?$AAf?$AA?5?$AA?$CG?$AA?$CG?$AA?5?$AAb?$AAu?$AAf?$AAs?$AAi?$AAz?$AAe?$AA?$AA@ 0055189c     pjlib-i386-win32-vc8-debug:errno.obj
 0003:000128c0       ??_C@_07PBILKAFL@Success?$AA@ 005518c0     pjlib-i386-win32-vc8-debug:errno.obj
 0003:000128cc       ??_C@_0BB@BIKLJNJD@Unknown?5error?5?$CFd?$AA@ 005518cc     pjlib-i386-win32-vc8-debug:errno.obj
 0003:000128e0       ??_C@_05NAOIJFC@Error?$AA@ 005518e0     pjlib-i386-win32-vc8-debug:errno.obj
 0003:000128e8       ??_C@_06DJHOIPC@?$CFs?3?5?$CFs?$AA@ 005518e8     pjlib-i386-win32-vc8-debug:errno.obj
 0003:000128f0       ??_C@_03HODKBCIO@?3?$CFd?$AA@ 005518f0     pjlib-i386-win32-vc8-debug:sock_common.obj
 0003:000128f4       ??_C@_08KJEDNCKC@?$CFs?$CFs?$CFs?$CFs?$AA@ 005518f4     pjlib-i386-win32-vc8-debug:sock_common.obj
 0003:00012900       ??_C@_0FM@MNACDKOF@c?3?2users?29200?2desktop?2work?2pjsip@ 00551900     pjlib-i386-win32-vc8-debug:sock_common.obj
 0003:00012970       ??_C@_1LI@EHMCHINJ@?$AAc?$AA?3?$AA?2?$AAu?$AAs?$AAe?$AAr?$AAs?$AA?2?$AA9?$AA2?$AA0?$AA0?$AA?2?$AAd?$AAe?$AAs?$AAk?$AAt?$AAo?$AAp?$AA?2?$AAw?$AAo?$AAr?$AAk?$AA?2?$AAp?$AAj?$AAs?$AAi?$AAp@ 00551970     pjlib-i386-win32-vc8-debug:sock_common.obj
 0003:00012a50       ??_C@_1EI@LMAIDKEG@?$AA?$CB?$AAs?$AAt?$AAr?$AA_?$AAa?$AAd?$AAd?$AAr?$AA?5?$AA?$HM?$AA?$HM?$AA?5?$AAs?$AAt?$AAr?$AA_?$AAa?$AAd?$AAd?$AAr?$AA?9?$AA?$DO?$AAs?$AAl?$AAe?$AAn?$AA?5?$AA?$DM?$AA?5?$AA?$CI?$AA1@ 00551a50     pjlib-i386-win32-vc8-debug:sock_common.obj
 0003:00012aa8       ??_C@_1CA@EINGOHHA@?$AAa?$AAf?$AA?$DN?$AA?$DN?$AAP?$AAJ?$AA_?$AAA?$AAF?$AA_?$AAI?$AAN?$AAE?$AAT?$AA6?$AA?$AA@ 00551aa8     pjlib-i386-win32-vc8-debug:sock_common.obj
 0003:00012ad0       ??_C@_19CEKCHDNN@?$AAa?$AAd?$AAd?$AAr?$AA?$AA@ 00551ad0     pjlib-i386-win32-vc8-debug:sock_common.obj
 0003:00012ae0       ??_C@_1II@IEDNCJLG@?$AAa?$AA?9?$AA?$DO?$AAa?$AAd?$AAd?$AAr?$AA?4?$AAs?$AAa?$AA_?$AAf?$AAa?$AAm?$AAi?$AAl?$AAy?$AA?5?$AA?$DN?$AA?$DN?$AA?5?$AAP?$AAJ?$AA_?$AAA?$AAF?$AA_?$AAI?$AAN?$AAE?$AAT?$AA?5@ 00551ae0     pjlib-i386-win32-vc8-debug:sock_common.obj
 0003:00012b88       ??_C@_1EE@BHODCNOF@?$AAa?$AAf?$AA?$DN?$AA?$DN?$AAP?$AAJ?$AA_?$AAA?$AAF?$AA_?$AAI?$AAN?$AAE?$AAT?$AA?5?$AA?$HM?$AA?$HM?$AA?5?$AAa?$AAf?$AA?$DN?$AA?$DN?$AAP?$AAJ?$AA_?$AAA?$AAF?$AA_?$AAI?$AAN?$AAE?$AAT@ 00551b88     pjlib-i386-win32-vc8-debug:sock_common.obj
 0003:00012be0       ??_C@_1LE@BCBAMGPH@?$AA?$CI?$AAa?$AAf?$AA?$DN?$AA?$DN?$AAP?$AAJ?$AA_?$AAA?$AAF?$AA_?$AAI?$AAN?$AAE?$AAT?$AA?5?$AA?$HM?$AA?$HM?$AA?5?$AAa?$AAf?$AA?$DN?$AA?$DN?$AAP?$AAJ?$AA_?$AAA?$AAF?$AA_?$AAI?$AAN?$AAE@ 00551be0     pjlib-i386-win32-vc8-debug:sock_common.obj
 0003:00012cb8       ??_C@_1GM@GCDHCLKA@?$AAa?$AAf?$AA?$DN?$AA?$DN?$AAP?$AAJ?$AA_?$AAA?$AAF?$AA_?$AAU?$AAN?$AAS?$AAP?$AAE?$AAC?$AA?5?$AA?$HM?$AA?$HM?$AA?5?$AAa?$AAf?$AA?$DN?$AA?$DN?$AAP?$AAJ?$AA_?$AAA?$AAF?$AA_?$AAI?$AAN@ 00551cb8     pjlib-i386-win32-vc8-debug:sock_common.obj
 0003:00012d3c       ??_C@_1BK@KDKCCGFK@?$AAo?$AAp?$AAt?$AAi?$AAo?$AAn?$AAs?$AA?5?$AA?$DN?$AA?$DN?$AA?5?$AA0?$AA?$AA@ 00551d3c     pjlib-i386-win32-vc8-debug:sock_common.obj
 0003:00012d60       ??_C@_1FK@OKOAJPPE@?$AAa?$AAi?$AA?4?$AAa?$AAi?$AA_?$AAa?$AAd?$AAd?$AAr?$AA?4?$AAa?$AAd?$AAd?$AAr?$AA?4?$AAs?$AAa?$AA_?$AAf?$AAa?$AAm?$AAi?$AAl?$AAy?$AA?5?$AA?$DN?$AA?$DN?$AA?5?$AA?$CI?$AAp?$AAj@ 00551d60     pjlib-i386-win32-vc8-debug:sock_common.obj
 0003:00012dcc       ??_C@_07EBPGIHEF@1?41?41?41?$AA@ 00551dcc     pjlib-i386-win32-vc8-debug:sock_common.obj
 0003:00012dd8       ??_C@_04NFKLOGOF@1?3?31?$AA@ 00551dd8     pjlib-i386-win32-vc8-debug:sock_common.obj
 0003:00012de0       ??_C@_1MI@MLDCCECM@?$AAs?$AAo?$AAc?$AAk?$AAf?$AAd?$AA?5?$AA?$CB?$AA?$DN?$AA?5?$AA?$CI?$AA?9?$AA1?$AA?$CJ?$AA?5?$AA?$CG?$AA?$CG?$AA?5?$AAb?$AAu?$AAf?$AA_?$AAs?$AAi?$AAz?$AAe?$AA?5?$AA?$CG?$AA?$CG?$AA?5?$AA?$CK?$AAb@ 00551de0     pjlib-i386-win32-vc8-debug:sock_common.obj
 0003:00012ed0       ??_C@_0FF@IDBNAACM@c?3?2users?29200?2desktop?2work?2pjsip@ 00551ed0     pjlib-i386-win32-vc8-debug:pool.obj
 0003:00012f38       ??_C@_1KK@OBNIOBCG@?$AAc?$AA?3?$AA?2?$AAu?$AAs?$AAe?$AAr?$AAs?$AA?2?$AA9?$AA2?$AA0?$AA0?$AA?2?$AAd?$AAe?$AAs?$AAk?$AAt?$AAo?$AAp?$AA?2?$AAw?$AAo?$AAr?$AAk?$AA?2?$AAp?$AAj?$AAs?$AAi?$AAp@ 00551f38     pjlib-i386-win32-vc8-debug:pool.obj
 0003:00013004       ??_C@_1DM@GJMPJMCP@?$AAs?$AAi?$AAz?$AAe?$AA?5?$AA?$DO?$AA?$DN?$AA?5?$AAs?$AAi?$AAz?$AAe?$AAo?$AAf?$AA?$CI?$AAp?$AAj?$AA_?$AAp?$AAo?$AAo?$AAl?$AA_?$AAb?$AAl?$AAo?$AAc?$AAk?$AA?$CJ?$AA?$AA@ 00552004     pjlib-i386-win32-vc8-debug:pool.obj
 0003:0001304c       ??_C@_1CC@EAFADDBO@?$AAp?$AA?5?$AA?$CB?$AA?$DN?$AA?5?$AA?$CI?$AA?$CI?$AAv?$AAo?$AAi?$AAd?$AA?5?$AA?$CK?$AA?$CJ?$AA0?$AA?$CJ?$AA?$AA@ 0055204c     pjlib-i386-win32-vc8-debug:pool.obj
 0003:00013078       ??_C@_1HA@KHKDBJOJ@?$AAi?$AAn?$AAi?$AAt?$AAi?$AAa?$AAl?$AA_?$AAs?$AAi?$AAz?$AAe?$AA?5?$AA?$DO?$AA?$DN?$AA?5?$AAs?$AAi?$AAz?$AAe?$AAo?$AAf?$AA?$CI?$AAp?$AAj?$AA_?$AAp?$AAo?$AAo?$AAl?$AA_?$AAt@ 00552078     pjlib-i386-win32-vc8-debug:pool.obj
 0003:00013100       ??_C@_0FN@KGFFBKJK@c?3?2users?29200?2desktop?2work?2pjsip@ 00552100     pjlib-i386-win32-vc8-debug:pool_caching.obj
 0003:00013170       ??_C@_0M@IGFPEOLJ@cachingpool?$AA@ 00552170     pjlib-i386-win32-vc8-debug:pool_caching.obj
 0003:00013180       ??_C@_0DD@ECGDPCBA@Pool?5is?5not?5released?5by?5applicat@ 00552180     pjlib-i386-win32-vc8-debug:pool_caching.obj
 0003:000131c0       ??_C@_1LK@PKJGNOKB@?$AAc?$AA?3?$AA?2?$AAu?$AAs?$AAe?$AAr?$AAs?$AA?2?$AA9?$AA2?$AA0?$AA0?$AA?2?$AAd?$AAe?$AAs?$AAk?$AAt?$AAo?$AAp?$AA?2?$AAw?$AAo?$AAr?$AAk?$AA?2?$AAp?$AAj?$AAs?$AAi?$AAp@ 005521c0     pjlib-i386-win32-vc8-debug:pool_caching.obj
 0003:000132a0       ??_C@_1BG@FEHIFIBG@?$AAp?$AAf?$AA?5?$AA?$CG?$AA?$CG?$AA?5?$AAp?$AAo?$AAo?$AAl?$AA?$AA@ 005522a0     pjlib-i386-win32-vc8-debug:pool_caching.obj
 0003:000132bc       ??_C@_19PJIDINHE@?$AAi?$AA?$DM?$AA1?$AA6?$AA?$AA@ 005522bc     pjlib-i386-win32-vc8-debug:pool_caching.obj
 0003:000132c8       ??_C@_0BH@BBPHJKOA@?5Dumping?5caching?5pool?3?$AA@ 005522c8     pjlib-i386-win32-vc8-debug:pool_caching.obj
 0003:000132e4       ??_C@_08COPEICHG@cachpool?$AA@ 005522e4     pjlib-i386-win32-vc8-debug:pool_caching.obj
 0003:000132f0       ??_C@_0CN@DOKPIIOH@?5?5?5Capacity?$DN?$CFu?0?5max_capacity?$DN?$CFu?0@ 005522f0     pjlib-i386-win32-vc8-debug:pool_caching.obj
 0003:00013328       ??_C@_0BM@IDLDGCC@?5?5Dumping?5all?5active?5pools?3?$AA@ 00552328     pjlib-i386-win32-vc8-debug:pool_caching.obj
 0003:0001334c       ??_C@_0CA@MMLIKIEG@?5?5?5?$CF16s?3?5?$CF8d?5of?5?$CF8d?5?$CI?$CFd?$CF?$CF?$CJ?5used?$AA@ 0055234c     pjlib-i386-win32-vc8-debug:pool_caching.obj
 0003:00013374       ??_C@_0CB@GKBJPDKG@?5?5Total?5?$CF9d?5of?5?$CF9d?5?$CI?$CFd?5?$CF?$CF?$CJ?5used?$CB@ 00552374     pjlib-i386-win32-vc8-debug:pool_caching.obj
 0003:000133a0       ??_C@_0FH@NMDLAJCG@c?3?2users?29200?2desktop?2work?2pjsip@ 005523a0     pjlib-i386-win32-vc8-debug:string.obj
 0003:00013408       ??_C@_0BB@CEONGONL@Unsupported?5base?$AA@ 00552408     pjlib-i386-win32-vc8-debug:string.obj
 0003:00013420       ??_C@_1KO@KCMBBBBL@?$AAc?$AA?3?$AA?2?$AAu?$AAs?$AAe?$AAr?$AAs?$AA?2?$AA9?$AA2?$AA0?$AA0?$AA?2?$AAd?$AAe?$AAs?$AAk?$AAt?$AAo?$AAp?$AA?2?$AAw?$AAo?$AAr?$AAk?$AA?2?$AAp?$AAj?$AAs?$AAi?$AAp@ 00552420     pjlib-i386-win32-vc8-debug:string.obj
 0003:000134f0       ??_C@_1CI@NFHHBACP@?$AA?$CB?$AA?$CC?$AAU?$AAn?$AAs?$AAu?$AAp?$AAp?$AAo?$AAr?$AAt?$AAe?$AAd?$AA?5?$AAb?$AAa?$AAs?$AAe?$AA?$CC?$AA?$AA@ 005524f0     pjlib-i386-win32-vc8-debug:string.obj
 0003:00013520       __real@00000000            00552520     pjlib-i386-win32-vc8-debug:string.obj
 0003:00013524       __real@3f800000            00552524     pjlib-i386-win32-vc8-debug:string.obj
 0003:00013528       __real@41200000            00552528     pjlib-i386-win32-vc8-debug:string.obj
 0003:00013530       __xmm@41f00000000000000000000000000000 00552530     pjlib-i386-win32-vc8-debug:string.obj
 0003:00013548       ??_C@_1KM@CPCLIPAI@?$AAc?$AA?3?$AA?2?$AAu?$AAs?$AAe?$AAr?$AAs?$AA?2?$AA9?$AA2?$AA0?$AA0?$AA?2?$AAd?$AAe?$AAs?$AAk?$AAt?$AAo?$AAp?$AA?2?$AAw?$AAo?$AAr?$AAk?$AA?2?$AAp?$AAj?$AAs?$AAi?$AAp@ 00552548     pjlib-i386-win32-vc8-debug:array.obj
 0003:00013618       ??_C@_1BG@OJJHGIJH@?$AAc?$AAo?$AAu?$AAn?$AAt?$AA?5?$AA?$CB?$AA?$DN?$AA?5?$AA0?$AA?$AA@ 00552618     pjlib-i386-win32-vc8-debug:array.obj
 0003:00013634       ??_C@_06DDFOEFIF@FATAL?3?$AA@ 00552634     pjlib-i386-win32-vc8-debug:log.obj
 0003:0001363c       ??_C@_06PONDCDME@ERROR?3?$AA@ 0055263c     pjlib-i386-win32-vc8-debug:log.obj
 0003:00013644       ??_C@_06OHJPOJDB@?5WARN?3?$AA@ 00552644     pjlib-i386-win32-vc8-debug:log.obj
 0003:0001364c       ??_C@_06ICKKLHPE@?5INFO?3?$AA@ 0055264c     pjlib-i386-win32-vc8-debug:log.obj
 0003:00013654       ??_C@_06DNOFLLB@DEBUG?3?$AA@ 00552654     pjlib-i386-win32-vc8-debug:log.obj
 0003:0001365c       ??_C@_06ELIFFDKB@TRACE?3?$AA@ 0055265c     pjlib-i386-win32-vc8-debug:log.obj
 0003:00013664       ??_C@_06HGKAKJPG@DETRC?3?$AA@ 00552664     pjlib-i386-win32-vc8-debug:log.obj
 0003:0001366c       ??_C@_03KOEHGMDN@Sun?$AA@  0055266c     pjlib-i386-win32-vc8-debug:log.obj
 0003:00013670       ??_C@_03PDAGKDH@Mon?$AA@   00552670     pjlib-i386-win32-vc8-debug:log.obj
 0003:00013674       ??_C@_03NAGEINEP@Tue?$AA@  00552674     pjlib-i386-win32-vc8-debug:log.obj
 0003:00013678       ??_C@_03MHOMLAJA@Wed?$AA@  00552678     pjlib-i386-win32-vc8-debug:log.obj
 0003:0001367c       ??_C@_03IOFIKPDN@Thu?$AA@  0055267c     pjlib-i386-win32-vc8-debug:log.obj
 0003:00013680       ??_C@_03IDIOELNC@Fri?$AA@  00552680     pjlib-i386-win32-vc8-debug:log.obj
 0003:00013684       ??_C@_03FEFJNEK@Sat?$AA@   00552684     pjlib-i386-win32-vc8-debug:log.obj
 0003:00013688       ??_C@_0FE@JNFHFJBM@c?3?2users?29200?2desktop?2work?2pjsip@ 00552688     pjlib-i386-win32-vc8-debug:log.obj
 0003:000136ec       ??_C@_0BO@BGMDCDKP@?$DMlogging?5error?3?5msg?5too?5long?$DO?$AA@ 005526ec     pjlib-i386-win32-vc8-debug:log.obj
 0003:00013710       _PJ_AF_UNSPEC              00552710     pjlib-i386-win32-vc8-debug:sock_bsd.obj
 0003:00013714       _PJ_AF_UNIX                00552714     pjlib-i386-win32-vc8-debug:sock_bsd.obj
 0003:00013718       _PJ_AF_INET                00552718     pjlib-i386-win32-vc8-debug:sock_bsd.obj
 0003:0001371c       _PJ_AF_INET6               0055271c     pjlib-i386-win32-vc8-debug:sock_bsd.obj
 0003:00013720       _PJ_AF_PACKET              00552720     pjlib-i386-win32-vc8-debug:sock_bsd.obj
 0003:00013724       _PJ_AF_IRDA                00552724     pjlib-i386-win32-vc8-debug:sock_bsd.obj
 0003:00013728       _PJ_SOCK_STREAM            00552728     pjlib-i386-win32-vc8-debug:sock_bsd.obj
 0003:0001372c       _PJ_SOCK_DGRAM             0055272c     pjlib-i386-win32-vc8-debug:sock_bsd.obj
 0003:00013730       _PJ_SOCK_RAW               00552730     pjlib-i386-win32-vc8-debug:sock_bsd.obj
 0003:00013734       _PJ_SOCK_RDM               00552734     pjlib-i386-win32-vc8-debug:sock_bsd.obj
 0003:00013738       _PJ_SOL_SOCKET             00552738     pjlib-i386-win32-vc8-debug:sock_bsd.obj
 0003:0001373c       _PJ_SOL_IP                 0055273c     pjlib-i386-win32-vc8-debug:sock_bsd.obj
 0003:00013740       _PJ_SOL_TCP                00552740     pjlib-i386-win32-vc8-debug:sock_bsd.obj
 0003:00013744       _PJ_SOL_UDP                00552744     pjlib-i386-win32-vc8-debug:sock_bsd.obj
 0003:00013748       _PJ_SOL_IPV6               00552748     pjlib-i386-win32-vc8-debug:sock_bsd.obj
 0003:0001374c       _PJ_IP_TOS                 0055274c     pjlib-i386-win32-vc8-debug:sock_bsd.obj
 0003:00013750       _PJ_IPTOS_LOWDELAY         00552750     pjlib-i386-win32-vc8-debug:sock_bsd.obj
 0003:00013754       _PJ_IPTOS_THROUGHPUT       00552754     pjlib-i386-win32-vc8-debug:sock_bsd.obj
 0003:00013758       _PJ_IPTOS_RELIABILITY      00552758     pjlib-i386-win32-vc8-debug:sock_bsd.obj
 0003:0001375c       _PJ_IPTOS_MINCOST          0055275c     pjlib-i386-win32-vc8-debug:sock_bsd.obj
 0003:00013760       _PJ_SO_TYPE                00552760     pjlib-i386-win32-vc8-debug:sock_bsd.obj
 0003:00013764       _PJ_SO_RCVBUF              00552764     pjlib-i386-win32-vc8-debug:sock_bsd.obj
 0003:00013768       _PJ_SO_SNDBUF              00552768     pjlib-i386-win32-vc8-debug:sock_bsd.obj
 0003:0001376c       _PJ_TCP_NODELAY            0055276c     pjlib-i386-win32-vc8-debug:sock_bsd.obj
 0003:00013770       _PJ_SO_REUSEADDR           00552770     pjlib-i386-win32-vc8-debug:sock_bsd.obj
 0003:00013774       _PJ_SO_NOSIGPIPE           00552774     pjlib-i386-win32-vc8-debug:sock_bsd.obj
 0003:00013778       _PJ_SO_PRIORITY            00552778     pjlib-i386-win32-vc8-debug:sock_bsd.obj
 0003:0001377c       _PJ_IP_MULTICAST_IF        0055277c     pjlib-i386-win32-vc8-debug:sock_bsd.obj
 0003:00013780       _PJ_IP_MULTICAST_TTL       00552780     pjlib-i386-win32-vc8-debug:sock_bsd.obj
 0003:00013784       _PJ_IP_MULTICAST_LOOP      00552784     pjlib-i386-win32-vc8-debug:sock_bsd.obj
 0003:00013788       _PJ_IP_ADD_MEMBERSHIP      00552788     pjlib-i386-win32-vc8-debug:sock_bsd.obj
 0003:0001378c       _PJ_IP_DROP_MEMBERSHIP     0055278c     pjlib-i386-win32-vc8-debug:sock_bsd.obj
 0003:00013790       _PJ_MSG_OOB                00552790     pjlib-i386-win32-vc8-debug:sock_bsd.obj
 0003:00013794       _PJ_MSG_PEEK               00552794     pjlib-i386-win32-vc8-debug:sock_bsd.obj
 0003:00013798       _PJ_MSG_DONTROUTE          00552798     pjlib-i386-win32-vc8-debug:sock_bsd.obj
 0003:000137b8       ??_C@_1LC@BIEACIEN@?$AAc?$AA?3?$AA?2?$AAu?$AAs?$AAe?$AAr?$AAs?$AA?2?$AA9?$AA2?$AA0?$AA0?$AA?2?$AAd?$AAe?$AAs?$AAk?$AAt?$AAo?$AAp?$AA?2?$AAw?$AAo?$AAr?$AAk?$AA?2?$AAp?$AAj?$AAs?$AAi?$AAp@ 005527b8     pjlib-i386-win32-vc8-debug:sock_bsd.obj
 0003:00013890       ??_C@_1CM@OEECOBPG@?$AAc?$AAp?$AA?5?$AA?$CG?$AA?$CG?$AA?5?$AAc?$AAp?$AA?9?$AA?$DO?$AAs?$AAl?$AAe?$AAn?$AA?5?$AA?$CG?$AA?$CG?$AA?5?$AAi?$AAn?$AAp?$AA?$AA@ 00552890     pjlib-i386-win32-vc8-debug:sock_bsd.obj
 0003:000138c4       ??_C@_1DA@NIAFCNGJ@?$AAs?$AAr?$AAc?$AA?5?$AA?$CG?$AA?$CG?$AA?5?$AAs?$AAr?$AAc?$AA?9?$AA?$DO?$AAs?$AAl?$AAe?$AAn?$AA?5?$AA?$CG?$AA?$CG?$AA?5?$AAd?$AAs?$AAt?$AA?$AA@ 005528c4     pjlib-i386-win32-vc8-debug:sock_bsd.obj
 0003:00013900       ??_C@_1CG@FCIAPMOJ@?$AAs?$AAr?$AAc?$AA?5?$AA?$CG?$AA?$CG?$AA?5?$AAd?$AAs?$AAt?$AA?5?$AA?$CG?$AA?$CG?$AA?5?$AAs?$AAi?$AAz?$AAe?$AA?$AA@ 00552900     pjlib-i386-win32-vc8-debug:sock_bsd.obj
 0003:00013930       ??_C@_0FJ@ODFMJDPD@c?3?2users?29200?2desktop?2work?2pjsip@ 00552930     pjlib-i386-win32-vc8-debug:sock_bsd.obj
 0003:0001399c       ??_C@_1CE@CHKBIEBK@?$AAs?$AAo?$AAc?$AAk?$AA?$CB?$AA?$DN?$AA?$CI?$AA?$CI?$AAv?$AAo?$AAi?$AAd?$AA?5?$AA?$CK?$AA?$CJ?$AA0?$AA?$CJ?$AA?$AA@ 0055299c     pjlib-i386-win32-vc8-debug:sock_bsd.obj
 0003:000139c8       ??_C@_1FO@NFJOCODB@?$AAa?$AAd?$AAd?$AAr?$AA?5?$AA?$CG?$AA?$CG?$AA?5?$AAl?$AAe?$AAn?$AA?5?$AA?$DO?$AA?$DN?$AA?5?$AA?$CI?$AAi?$AAn?$AAt?$AA?$CJ?$AAs?$AAi?$AAz?$AAe?$AAo?$AAf?$AA?$CI?$AAs?$AAt?$AAr?$AAu?$AAc@ 005529c8     pjlib-i386-win32-vc8-debug:sock_bsd.obj
 0003:00013a38       ??_C@_17JOFJILLL@?$AAl?$AAe?$AAn?$AA?$AA@ 00552a38     pjlib-i386-win32-vc8-debug:sock_bsd.obj
 0003:00013a44       ??_C@_1BG@KIOEFHJP@?$AAb?$AAu?$AAf?$AA?5?$AA?$CG?$AA?$CG?$AA?5?$AAl?$AAe?$AAn?$AA?$AA@ 00552a44     pjlib-i386-win32-vc8-debug:sock_bsd.obj
 0003:00013a60       ??_C@_1CC@JEHODAPI@?$AAo?$AAp?$AAt?$AAv?$AAa?$AAl?$AA?5?$AA?$CG?$AA?$CG?$AA?5?$AAo?$AAp?$AAt?$AAl?$AAe?$AAn?$AA?$AA@ 00552a60     pjlib-i386-win32-vc8-debug:sock_bsd.obj
 0003:00013a88       ??_C@_1CO@HPOGKJKP@?$AAn?$AAe?$AAw?$AAs?$AAo?$AAc?$AAk?$AA?5?$AA?$CB?$AA?$DN?$AA?5?$AA?$CI?$AA?$CI?$AAv?$AAo?$AAi?$AAd?$AA?5?$AA?$CK?$AA?$CJ?$AA0?$AA?$CJ?$AA?$AA@ 00552a88     pjlib-i386-win32-vc8-debug:sock_bsd.obj
 0003:00013ac0       ??_C@_1KK@LNGGKFPA@?$AAc?$AA?3?$AA?2?$AAu?$AAs?$AAe?$AAr?$AAs?$AA?2?$AA9?$AA2?$AA0?$AA0?$AA?2?$AAd?$AAe?$AAs?$AAk?$AAt?$AAo?$AAp?$AA?2?$AAw?$AAo?$AAr?$AAk?$AA?2?$AAp?$AAj?$AAs?$AAi?$AAp@ 00552ac0     pjlib-i386-win32-vc8-debug:lock.obj
 0003:00013b8c       ??_C@_1BK@HMAALPLD@?$AAp?$AAo?$AAo?$AAl?$AA?5?$AA?$CG?$AA?$CG?$AA?5?$AAl?$AAo?$AAc?$AAk?$AA?$AA@ 00552b8c     pjlib-i386-win32-vc8-debug:lock.obj
 0003:00013bac       ??_C@_19LMCCMMJG@?$AAl?$AAo?$AAc?$AAk?$AA?$AA@ 00552bac     pjlib-i386-win32-vc8-debug:lock.obj
 0003:00013bb8       ??_C@_1CI@EGCMNLMJ@?$AAl?$AAo?$AAc?$AAk?$AA?5?$AA?$CB?$AA?$DN?$AA?5?$AA?$CI?$AA?$CI?$AAv?$AAo?$AAi?$AAd?$AA?5?$AA?$CK?$AA?$CJ?$AA0?$AA?$CJ?$AA?$AA@ 00552bb8     pjlib-i386-win32-vc8-debug:lock.obj
 0003:00013be8       ??_C@_1EC@BAIJMPOD@?$AAg?$AAl?$AAo?$AAc?$AAk?$AA?9?$AA?$DO?$AAo?$AAw?$AAn?$AAe?$AAr?$AA?5?$AA?$DN?$AA?$DN?$AA?5?$AAp?$AAj?$AA_?$AAt?$AAh?$AAr?$AAe?$AAa?$AAd?$AA_?$AAt?$AAh?$AAi?$AAs?$AA?$CI?$AA?$CJ@ 00552be8     pjlib-i386-win32-vc8-debug:lock.obj
 0003:00013c38       ??_C@_1CK@GIKHEGPF@?$AAg?$AAl?$AAo?$AAc?$AAk?$AA?9?$AA?$DO?$AAo?$AAw?$AAn?$AAe?$AAr?$AA_?$AAc?$AAn?$AAt?$AA?5?$AA?$DO?$AA?5?$AA0?$AA?$AA@ 00552c38     pjlib-i386-win32-vc8-debug:lock.obj
 0003:00013c70       ??_C@_1EE@CPEFOKMM@?$AAp?$AAj?$AA_?$AAa?$AAt?$AAo?$AAm?$AAi?$AAc?$AA_?$AAg?$AAe?$AAt?$AA?$CI?$AAg?$AAl?$AAo?$AAc?$AAk?$AA?9?$AA?$DO?$AAr?$AAe?$AAf?$AA_?$AAc?$AAn?$AAt?$AA?$CJ?$AA?5?$AA?$DO?$AA?5@ 00552c70     pjlib-i386-win32-vc8-debug:lock.obj
 0003:00013cc4       ??_C@_1CG@FLJIPPJO@?$AAp?$AAo?$AAo?$AAl?$AA?5?$AA?$CG?$AA?$CG?$AA?5?$AAp?$AA_?$AAg?$AAr?$AAp?$AA_?$AAl?$AAo?$AAc?$AAk?$AA?$AA@ 00552cc4     pjlib-i386-win32-vc8-debug:lock.obj
 0003:00013cf4       ??_C@_06HALIBNKJ@glck?$CFp?$AA@ 00552cf4     pjlib-i386-win32-vc8-debug:lock.obj
 0003:00013cfc       ??_C@_1BA@ELFKFCPF@?$AAc?$AAn?$AAt?$AA?5?$AA?$DO?$AA?5?$AA0?$AA?$AA@ 00552cfc     pjlib-i386-win32-vc8-debug:lock.obj
 0003:00013d10       ??_C@_0FF@NGFMHBCK@c?3?2users?29200?2desktop?2work?2pjsip@ 00552d10     pjlib-i386-win32-vc8-debug:rand.obj
 0003:00013d78       ??_C@_0FG@ECHKPFFK@c?3?2users?29200?2desktop?2work?2pjsip@ 00552d78     pjlib-i386-win32-vc8-debug:types.obj
 0003:00013de0       ??_C@_0FG@CCFABPLE@c?3?2users?29200?2desktop?2work?2pjsip@ 00552de0     pjlib-i386-win32-vc8-debug:timer.obj
 0003:00013e48       ??_C@_1KM@LANCKFKA@?$AAc?$AA?3?$AA?2?$AAu?$AAs?$AAe?$AAr?$AAs?$AA?2?$AA9?$AA2?$AA0?$AA0?$AA?2?$AAd?$AAe?$AAs?$AAk?$AAt?$AAo?$AAp?$AA?2?$AAw?$AAo?$AAr?$AAk?$AA?2?$AAp?$AAj?$AAs?$AAi?$AAp@ 00552e48     pjlib-i386-win32-vc8-debug:timer.obj
 0003:00013f18       ??_C@_1EG@MEMOBNLP@?$AAe?$AAn?$AAt?$AAr?$AAy?$AA?5?$AA?$DN?$AA?$DN?$AA?5?$AAh?$AAt?$AA?9?$AA?$DO?$AAh?$AAe?$AAa?$AAp?$AA?$FL?$AAt?$AAi?$AAm?$AAe?$AAr?$AA_?$AAn?$AAo?$AAd?$AAe?$AA_?$AAs?$AAl?$AAo@ 00552f18     pjlib-i386-win32-vc8-debug:timer.obj
 0003:00013f6c       ??_C@_1BO@IFOFGLKN@?$AAp?$AAo?$AAo?$AAl?$AA?5?$AA?$CG?$AA?$CG?$AA?5?$AAp?$AA_?$AAh?$AAe?$AAa?$AAp?$AA?$AA@ 00552f6c     pjlib-i386-win32-vc8-debug:timer.obj
 0003:00013f90       ??_C@_1BI@DEOIKAPM@?$AAe?$AAn?$AAt?$AAr?$AAy?$AA?5?$AA?$CG?$AA?$CG?$AA?5?$AAc?$AAb?$AA?$AA@ 00552f90     pjlib-i386-win32-vc8-debug:timer.obj
 0003:00013fac       ??_C@_1CK@NIFHNMEB@?$AAh?$AAt?$AA?5?$AA?$CG?$AA?$CG?$AA?5?$AAe?$AAn?$AAt?$AAr?$AAy?$AA?5?$AA?$CG?$AA?$CG?$AA?5?$AAd?$AAe?$AAl?$AAa?$AAy?$AA?$AA@ 00552fac     pjlib-i386-win32-vc8-debug:timer.obj
 0003:00013fe0       ??_C@_1DC@NCOGDIAG@?$AAe?$AAn?$AAt?$AAr?$AAy?$AA?9?$AA?$DO?$AAc?$AAb?$AA?5?$AA?$CB?$AA?$DN?$AA?5?$AA?$CI?$AA?$CI?$AAv?$AAo?$AAi?$AAd?$AA?5?$AA?$CK?$AA?$CJ?$AA0?$AA?$CJ?$AA?$AA@ 00552fe0     pjlib-i386-win32-vc8-debug:timer.obj
 0003:0001401c       ??_C@_1CK@BOBACKKA@?$AAe?$AAn?$AAt?$AAr?$AAy?$AA?9?$AA?$DO?$AA_?$AAt?$AAi?$AAm?$AAe?$AAr?$AA_?$AAi?$AAd?$AA?5?$AA?$DM?$AA?5?$AA1?$AA?$AA@ 0055301c     pjlib-i386-win32-vc8-debug:timer.obj
 0003:00014050       ??_C@_1BI@CGKKKIHJ@?$AAh?$AAt?$AA?5?$AA?$CG?$AA?$CG?$AA?5?$AAe?$AAn?$AAt?$AAr?$AAy?$AA?$AA@ 00553050     pjlib-i386-win32-vc8-debug:timer.obj
 0003:0001406c       ??_C@_15EOMHOEKA@?$AAh?$AAt?$AA?$AA@ 0055306c     pjlib-i386-win32-vc8-debug:timer.obj
 0003:00014074       ??_C@_1CE@GFFKOKMD@?$AAh?$AAt?$AA?9?$AA?$DO?$AAc?$AAu?$AAr?$AA_?$AAs?$AAi?$AAz?$AAe?$AA?5?$AA?$CB?$AA?$DN?$AA?5?$AA0?$AA?$AA@ 00553074     pjlib-i386-win32-vc8-debug:timer.obj
 0003:000140a0       ??_C@_1MG@IIKPLMM@?$AAc?$AA?3?$AA?2?$AAu?$AAs?$AAe?$AAr?$AAs?$AA?2?$AA9?$AA2?$AA0?$AA0?$AA?2?$AAd?$AAe?$AAs?$AAk?$AAt?$AAo?$AAp?$AA?2?$AAw?$AAo?$AAr?$AAk?$AA?2?$AAp?$AAj?$AAs?$AAi?$AAp@ 005530a0     pjlib-i386-win32-vc8-debug:ioqueue_select.obj
 0003:00014190       ??_C@_1CA@KCHPHKDA@?$AAi?$AAo?$AAq?$AAu?$AAe?$AAu?$AAe?$AA?5?$AA?$CG?$AA?$CG?$AA?5?$AAl?$AAo?$AAc?$AAk?$AA?$AA@ 00553190     pjlib-i386-win32-vc8-debug:ioqueue_select.obj
 0003:000141b8       ??_C@_1CI@INOOPFAE@?$AAk?$AAe?$AAy?$AA?9?$AA?$DO?$AAr?$AAe?$AAf?$AA_?$AAc?$AAo?$AAu?$AAn?$AAt?$AA?5?$AA?$DN?$AA?$DN?$AA?5?$AA0?$AA?$AA@ 005531b8     pjlib-i386-win32-vc8-debug:ioqueue_select.obj
 0003:000141e8       ??_C@_1CG@DEMIAMFE@?$AAk?$AAe?$AAy?$AA?5?$AA?$CB?$AA?$DN?$AA?5?$AA?$CI?$AA?$CI?$AAv?$AAo?$AAi?$AAd?$AA?5?$AA?$CK?$AA?$CJ?$AA0?$AA?$CJ?$AA?$AA@ 005531e8     pjlib-i386-win32-vc8-debug:ioqueue_select.obj
 0003:00014218       ??_C@_17FJFCONIE@?$AAk?$AAe?$AAy?$AA?$AA@ 00553218     pjlib-i386-win32-vc8-debug:ioqueue_select.obj
 0003:00014224       ??_C@_0BI@NKJLJNEF@Invalid?5operation?5type?$CB?$AA@ 00553224     pjlib-i386-win32-vc8-debug:ioqueue_select.obj
 0003:00014240       ??_C@_1DG@KDBMKDML@?$AA?$CB?$AA?$CC?$AAI?$AAn?$AAv?$AAa?$AAl?$AAi?$AAd?$AA?5?$AAo?$AAp?$AAe?$AAr?$AAa?$AAt?$AAi?$AAo?$AAn?$AA?5?$AAt?$AAy?$AAp?$AAe?$AA?$CB?$AA?$CC?$AA?$AA@ 00553240     pjlib-i386-win32-vc8-debug:ioqueue_select.obj
 0003:00014280       ??_C@_1BI@EKGFNMKL@?$AAs?$AAe?$AAn?$AAd?$AA_?$AAr?$AAc?$AA?5?$AA?$DO?$AA?5?$AA0?$AA?$AA@ 00553280     pjlib-i386-win32-vc8-debug:ioqueue_select.obj
 0003:000142a0       ??_C@_1EE@CNIDBBIK@?$AAr?$AAe?$AAa?$AAd?$AA_?$AAo?$AAp?$AA?9?$AA?$DO?$AAo?$AAp?$AA?5?$AA?$DN?$AA?$DN?$AA?5?$AAP?$AAJ?$AA_?$AAI?$AAO?$AAQ?$AAU?$AAE?$AAU?$AAE?$AA_?$AAO?$AAP?$AA_?$AAR?$AAE?$AAA@ 005532a0     pjlib-i386-win32-vc8-debug:ioqueue_select.obj
 0003:000142f8       ??_C@_1EE@GPIKMDPH@?$AAk?$AAe?$AAy?$AA?5?$AA?$CG?$AA?$CG?$AA?5?$AAo?$AAp?$AA_?$AAk?$AAe?$AAy?$AA?5?$AA?$CG?$AA?$CG?$AA?5?$AAb?$AAu?$AAf?$AAf?$AAe?$AAr?$AA?5?$AA?$CG?$AA?$CG?$AA?5?$AAl?$AAe?$AAn?$AAg?$AAt@ 005532f8     pjlib-i386-win32-vc8-debug:ioqueue_select.obj
 0003:00014350       ??_C@_0GD@IGHJNFBJ@c?3?2users?29200?2desktop?2work?2pjsip@ 00553350     pjlib-i386-win32-vc8-debug:ioqueue_select.obj
 0003:000143c8       ??_C@_1EA@PBLBPGMH@?$AAk?$AAe?$AAy?$AA?5?$AA?$CG?$AA?$CG?$AA?5?$AAo?$AAp?$AA_?$AAk?$AAe?$AAy?$AA?5?$AA?$CG?$AA?$CG?$AA?5?$AAd?$AAa?$AAt?$AAa?$AA?5?$AA?$CG?$AA?$CG?$AA?5?$AAl?$AAe?$AAn?$AAg?$AAt?$AAh?$AA?$AA@ 005533c8     pjlib-i386-win32-vc8-debug:ioqueue_select.obj
 0003:00014418       ??_C@_1EO@LGPBHJKN@?$AAa?$AAd?$AAd?$AAr?$AAl?$AAe?$AAn?$AA?5?$AA?$DM?$AA?$DN?$AA?5?$AA?$CI?$AAi?$AAn?$AAt?$AA?$CJ?$AAs?$AAi?$AAz?$AAe?$AAo?$AAf?$AA?$CI?$AAp?$AAj?$AA_?$AAs?$AAo?$AAc?$AAk?$AAa?$AAd@ 00553418     pjlib-i386-win32-vc8-debug:ioqueue_select.obj
 0003:00014478       ??_C@_1DE@IAHNELBK@?$AAk?$AAe?$AAy?$AA?5?$AA?$CG?$AA?$CG?$AA?5?$AAo?$AAp?$AA_?$AAk?$AAe?$AAy?$AA?5?$AA?$CG?$AA?$CG?$AA?5?$AAn?$AAe?$AAw?$AA_?$AAs?$AAo?$AAc?$AAk?$AA?$AA@ 00553478     pjlib-i386-win32-vc8-debug:ioqueue_select.obj
 0003:000144b8       ??_C@_1CO@PMKELHLG@?$AAk?$AAe?$AAy?$AA?5?$AA?$CG?$AA?$CG?$AA?5?$AAa?$AAd?$AAd?$AAr?$AA?5?$AA?$CG?$AA?$CG?$AA?5?$AAa?$AAd?$AAd?$AAr?$AAl?$AAe?$AAn?$AA?$AA@ 005534b8     pjlib-i386-win32-vc8-debug:ioqueue_select.obj
 0003:000144f0       ??_C@_1CO@FLGLFEIC@?$AAi?$AAo?$AAq?$AAu?$AAe?$AAu?$AAe?$AA?5?$AA?$CB?$AA?$DN?$AA?5?$AA?$CI?$AA?$CI?$AAv?$AAo?$AAi?$AAd?$AA?5?$AA?$CK?$AA?$CJ?$AA0?$AA?$CJ?$AA?$AA@ 005534f0     pjlib-i386-win32-vc8-debug:ioqueue_select.obj
 0003:00014528       ??_C@_1BG@HNKGLEIM@?$AAa?$AAl?$AAl?$AAo?$AAw?$AA?5?$AA?$HM?$AA?$HM?$AA?5?$AA1?$AA?$AA@ 00553528     pjlib-i386-win32-vc8-debug:ioqueue_select.obj
 0003:00014544       ??_C@_06LGNCCACI@select?$AA@ 00553544     pjlib-i386-win32-vc8-debug:ioqueue_select.obj
 0003:00014550       ??_C@_1LO@IPGKOAAB@?$AAc?$AA?3?$AA?2?$AAu?$AAs?$AAe?$AAr?$AAs?$AA?2?$AA9?$AA2?$AA0?$AA0?$AA?2?$AAd?$AAe?$AAs?$AAk?$AAt?$AAo?$AAp?$AA?2?$AAw?$AAo?$AAr?$AAk?$AA?2?$AAp?$AAj?$AAs?$AAi?$AAp@ 00553550     pjlib-i386-win32-vc8-debug:ioqueue_select.obj
 0003:00014638       ??_C@_1KA@LNOEPJNH@?$AAp?$AAo?$AAo?$AAl?$AA?5?$AA?$CB?$AA?$DN?$AA?5?$AA?$CI?$AA?$CI?$AAv?$AAo?$AAi?$AAd?$AA?5?$AA?$CK?$AA?$CJ?$AA0?$AA?$CJ?$AA?5?$AA?$CG?$AA?$CG?$AA?5?$AAp?$AA_?$AAi?$AAo?$AAq?$AAu?$AAe?$AAu?$AAe@ 00553638     pjlib-i386-win32-vc8-debug:ioqueue_select.obj
 0003:000146f8       ??_C@_05LIJONKFG@ioq?$CFp?$AA@ 005536f8     pjlib-i386-win32-vc8-debug:ioqueue_select.obj
 0003:00014700       ??_C@_0CA@IMDCINDN@select?$CI?$CJ?5I?1O?5Queue?5created?5?$CI?$CFp?$CJ?$AA@ 00553700     pjlib-i386-win32-vc8-debug:ioqueue_select.obj
 0003:00014728       ??_C@_05PHKAINEA@pjlib?$AA@ 00553728     pjlib-i386-win32-vc8-debug:ioqueue_select.obj
 0003:00014730       ??_C@_1BA@ENKELKPH@?$AAi?$AAo?$AAq?$AAu?$AAe?$AAu?$AAe?$AA?$AA@ 00553730     pjlib-i386-win32-vc8-debug:ioqueue_select.obj
 0003:00014748       ??_C@_1FO@PPHPABF@?$AAp?$AAo?$AAo?$AAl?$AA?5?$AA?$CG?$AA?$CG?$AA?5?$AAi?$AAo?$AAq?$AAu?$AAe?$AAu?$AAe?$AA?5?$AA?$CG?$AA?$CG?$AA?5?$AAs?$AAo?$AAc?$AAk?$AA?5?$AA?$CB?$AA?$DN?$AA?5?$AA?$CI?$AA?9?$AA1?$AA?$CJ?$AA?5@ 00553748     pjlib-i386-win32-vc8-debug:ioqueue_select.obj
 0003:000147b8       ??_C@_1EI@PJMCDAJH@?$AA?$CB?$AAp?$AAj?$AA_?$AAl?$AAi?$AAs?$AAt?$AA_?$AAe?$AAm?$AAp?$AAt?$AAy?$AA?$CI?$AA?$CG?$AAi?$AAo?$AAq?$AAu?$AAe?$AAu?$AAe?$AA?9?$AA?$DO?$AAf?$AAr?$AAe?$AAe?$AA_?$AAl?$AAi@ 005537b8     pjlib-i386-win32-vc8-debug:ioqueue_select.obj
 0003:00014810       ??_C@_1CE@KOHBIHOL@?$AAk?$AAe?$AAy?$AA?9?$AA?$DO?$AAc?$AAl?$AAo?$AAs?$AAi?$AAn?$AAg?$AA?5?$AA?$DN?$AA?$DN?$AA?5?$AA1?$AA?$AA@ 00553810     pjlib-i386-win32-vc8-debug:ioqueue_select.obj
 0003:0001483c       ??_C@_1CG@PJOLFMEL@?$AAi?$AAo?$AAq?$AAu?$AAe?$AAu?$AAe?$AA?9?$AA?$DO?$AAc?$AAo?$AAu?$AAn?$AAt?$AA?5?$AA?$DO?$AA?5?$AA0?$AA?$AA@ 0055383c     pjlib-i386-win32-vc8-debug:ioqueue_select.obj
 0003:0001486c       ??_C@_1CA@OBALMACM@?$AAh?$AA?9?$AA?$DO?$AAc?$AAl?$AAo?$AAs?$AAi?$AAn?$AAg?$AA?5?$AA?$CB?$AA?$DN?$AA?5?$AA0?$AA?$AA@ 0055386c     pjlib-i386-win32-vc8-debug:ioqueue_select.obj
 0003:00014894       ??_C@_0P@KEHJHANK@Invalid?5event?$CB?$AA@ 00553894     pjlib-i386-win32-vc8-debug:ioqueue_select.obj
 0003:000148a8       ??_C@_1CE@KOLKIPFK@?$AA?$CB?$AA?$CC?$AAI?$AAn?$AAv?$AAa?$AAl?$AAi?$AAd?$AA?5?$AAe?$AAv?$AAe?$AAn?$AAt?$AA?$CB?$AA?$CC?$AA?$AA@ 005538a8     pjlib-i386-win32-vc8-debug:ioqueue_select.obj
 0003:000148d4       ??_C@_0CD@KFHCCJFN@?$CB?$CB?$CBFATAL?3?5unhandled?5exception?5?$CFs@ 005538d4     pjlib-i386-win32-vc8-debug:except.obj
 0003:00014900       ??_C@_08PDFMOJIE@except?4c?$AA@ 00553900     pjlib-i386-win32-vc8-debug:except.obj
 0003:00014910       ??_C@_1KO@BANIDFEG@?$AAc?$AA?3?$AA?2?$AAu?$AAs?$AAe?$AAr?$AAs?$AA?2?$AA9?$AA2?$AA0?$AA0?$AA?2?$AAd?$AAe?$AAs?$AAk?$AAt?$AAo?$AAp?$AA?2?$AAw?$AAo?$AAr?$AAk?$AA?2?$AAp?$AAj?$AAs?$AAi?$AAp@ 00553910     pjlib-i386-win32-vc8-debug:except.obj
 0003:000149e0       ??_C@_1CO@MDLDAOGN@?$AAh?$AAa?$AAn?$AAd?$AAl?$AAe?$AAr?$AA?5?$AA?$CB?$AA?$DN?$AA?5?$AA?$CI?$AA?$CI?$AAv?$AAo?$AAi?$AAd?$AA?5?$AA?$CK?$AA?$CJ?$AA0?$AA?$CJ?$AA?$AA@ 005539e0     pjlib-i386-win32-vc8-debug:except.obj
 0003:00014a18       ??_C@_1CM@CIICDJMC@?$AAt?$AAh?$AAr?$AAe?$AAa?$AAd?$AA_?$AAl?$AAo?$AAc?$AAa?$AAl?$AA_?$AAi?$AAd?$AA?5?$AA?$CB?$AA?$DN?$AA?5?$AA?9?$AA1?$AA?$AA@ 00553a18     pjlib-i386-win32-vc8-debug:except.obj
 0003:00014a4c       ??_C@_1BM@OONEPGEP@?$AAi?$AAd?$AA?$DO?$AA0?$AA?5?$AA?$CG?$AA?$CG?$AA?5?$AAi?$AAd?$AA?$DM?$AA1?$AA6?$AA?$AA@ 00553a4c     pjlib-i386-win32-vc8-debug:except.obj
 0003:00014a70       ??_C@_0N@GJOLEKJC@?$DMInvalid?5ID?$DO?$AA@ 00553a70     pjlib-i386-win32-vc8-debug:except.obj
 0003:00014a80       ??_C@_0N@LJPLLMIL@exception?5?$CFd?$AA@ 00553a80     pjlib-i386-win32-vc8-debug:except.obj
 0003:00014a90       ??_C@_0FF@MHFEFOCB@c?3?2users?29200?2desktop?2work?2pjsip@ 00553a90     pjlib-i386-win32-vc8-debug:hash.obj
 0003:00014af8       ??_C@_1KK@OENKHPPO@?$AAc?$AA?3?$AA?2?$AAu?$AAs?$AAe?$AAr?$AAs?$AA?2?$AA9?$AA2?$AA0?$AA0?$AA?2?$AAd?$AAe?$AAs?$AAk?$AAt?$AAo?$AAp?$AA?2?$AAw?$AAo?$AAr?$AAk?$AA?2?$AAp?$AAj?$AAs?$AAi?$AAp@ 00553af8     pjlib-i386-win32-vc8-debug:hash.obj
 0003:00014da8       ??_C@_0CD@FNMHLHMI@Interrupted?5system?5call?5?$CIWSAEINT@ 00553da8     pjlib-i386-win32-vc8-debug:os_error_win32.obj
 0003:00014dd4       ??_C@_0BL@OKPDNKLH@Bad?5file?5number?5?$CIWSAEBADF?$CJ?$AA@ 00553dd4     pjlib-i386-win32-vc8-debug:os_error_win32.obj
 0003:00014df4       ??_C@_0BO@BMBEEPBP@Permission?5denied?5?$CIWSAEACCES?$CJ?$AA@ 00553df4     pjlib-i386-win32-vc8-debug:os_error_win32.obj
 0003:00014e18       ??_C@_0BI@LAKHPJJ@Bad?5address?5?$CIWSAEFAULT?$CJ?$AA@ 00553e18     pjlib-i386-win32-vc8-debug:os_error_win32.obj
 0003:00014e34       ??_C@_0BN@FEIDINKH@Invalid?5argument?5?$CIWSAEINVAL?$CJ?$AA@ 00553e34     pjlib-i386-win32-vc8-debug:os_error_win32.obj
 0003:00014e58       ??_C@_0CC@HMKKNDGL@Too?5many?5open?5sockets?5?$CIWSAEMFILE@ 00553e58     pjlib-i386-win32-vc8-debug:os_error_win32.obj
 0003:00014e80       ??_C@_0CH@GCPPFMGM@Operation?5would?5block?5?$CIWSAEWOULD@ 00553e80     pjlib-i386-win32-vc8-debug:os_error_win32.obj
 0003:00014eb0       ??_C@_0CL@DKGHEPCD@Operation?5now?5in?5progress?5?$CIWSAEI@ 00553eb0     pjlib-i386-win32-vc8-debug:os_error_win32.obj
 0003:00014ee4       ??_C@_0CM@BEMCBKDH@Operation?5already?5in?5progress?5?$CIW@ 00553ee4     pjlib-i386-win32-vc8-debug:os_error_win32.obj
 0003:00014f18       ??_C@_0CN@PAFKDEBN@Socket?5operation?5on?5non?9socket?5?$CI@ 00553f18     pjlib-i386-win32-vc8-debug:os_error_win32.obj
 0003:00014f50       ??_C@_0CP@HCDICECK@Destination?5address?5required?5?$CIWS@ 00553f50     pjlib-i386-win32-vc8-debug:os_error_win32.obj
 0003:00014f88       ??_C@_0BP@LNFPBFEK@Message?5too?5long?5?$CIWSAEMSGSIZE?$CJ?$AA@ 00553f88     pjlib-i386-win32-vc8-debug:os_error_win32.obj
 0003:00014fb0       ??_C@_0CP@MMIMIEMF@Protocol?5wrong?5type?5for?5socket?5?$CI@ 00553fb0     pjlib-i386-win32-vc8-debug:os_error_win32.obj
 0003:00014fe8       ??_C@_0CF@HNFLHOHA@Bad?5protocol?5option?5?$CIWSAENOPROTO@ 00553fe8     pjlib-i386-win32-vc8-debug:os_error_win32.obj
 0003:00015014       ??_C@_0CM@HPGHEHCE@Protocol?5not?5supported?5?$CIWSAEPROT@ 00554014     pjlib-i386-win32-vc8-debug:os_error_win32.obj
 0003:00015048       ??_C@_0CP@JLBNHCOL@Socket?5type?5not?5supported?5?$CIWSAES@ 00554048     pjlib-i386-win32-vc8-debug:os_error_win32.obj
 0003:00015080       ??_C@_0DC@GJMFANID@Operation?5not?5supported?5on?5socke@ 00554080     pjlib-i386-win32-vc8-debug:os_error_win32.obj
 0003:000150bc       ??_C@_0DA@GFNBENIG@Protocol?5family?5not?5supported?5?$CIW@ 005540bc     pjlib-i386-win32-vc8-debug:os_error_win32.obj
 0003:000150f8       ??_C@_0CP@MMKHGIFC@Address?5family?5not?5supported?5?$CIWS@ 005540f8     pjlib-i386-win32-vc8-debug:os_error_win32.obj
 0003:00015130       ??_C@_0CH@OCKNFBKE@Address?5already?5in?5use?5?$CIWSAEADDR@ 00554130     pjlib-i386-win32-vc8-debug:os_error_win32.obj
 0003:00015160       ??_C@_0DC@FJJPJPOD@Can?8t?5assign?5requested?5address?5?$CI@ 00554160     pjlib-i386-win32-vc8-debug:os_error_win32.obj
 0003:0001519c       ??_C@_0BO@IICKDHLJ@Network?5is?5down?5?$CIWSAENETDOWN?$CJ?$AA@ 0055419c     pjlib-i386-win32-vc8-debug:os_error_win32.obj
 0003:000151c0       ??_C@_0CI@NKJAACME@Network?5is?5unreachable?5?$CIWSAENETU@ 005541c0     pjlib-i386-win32-vc8-debug:os_error_win32.obj
 0003:000151f0       ??_C@_0CE@LJEEEFEC@Net?5connection?5reset?5?$CIWSAENETRES@ 005541f0     pjlib-i386-win32-vc8-debug:os_error_win32.obj
 0003:0001521c       ??_C@_0DD@PGDIHOBG@Software?5caused?5connection?5abort@ 0055421c     pjlib-i386-win32-vc8-debug:os_error_win32.obj
 0003:0001525c       ??_C@_0CJ@PJHCFAAN@Connection?5reset?5by?5peer?5?$CIWSAECO@ 0055425c     pjlib-i386-win32-vc8-debug:os_error_win32.obj
 0003:00015290       ??_C@_0CH@EKNGIMKN@No?5buffer?5space?5available?5?$CIWSAEN@ 00554290     pjlib-i386-win32-vc8-debug:os_error_win32.obj
 0003:000152c0       ??_C@_0CJ@JOPBNNOD@Socket?5is?5already?5connected?5?$CIWSA@ 005542c0     pjlib-i386-win32-vc8-debug:os_error_win32.obj
 0003:000152f4       ??_C@_0CG@CECDMHLL@Socket?5is?5not?5connected?5?$CIWSAENOT@ 005542f4     pjlib-i386-win32-vc8-debug:os_error_win32.obj
 0003:00015324       ??_C@_0DA@JGJMJPNM@Can?8t?5send?5after?5socket?5shutdown@ 00554324     pjlib-i386-win32-vc8-debug:os_error_win32.obj
 0003:00015360       ??_C@_0DE@CAILNFFE@Too?5many?5references?0?5can?8t?5splic@ 00554360     pjlib-i386-win32-vc8-debug:os_error_win32.obj
 0003:000153a0       ??_C@_0CE@IIKHBGF@Connection?5timed?5out?5?$CIWSAETIMEDO@ 005543a0     pjlib-i386-win32-vc8-debug:os_error_win32.obj
 0003:000153cc       ??_C@_0CF@JMKFBJH@Connection?5refused?5?$CIWSAECONNREFU@ 005543cc     pjlib-i386-win32-vc8-debug:os_error_win32.obj
 0003:000153f8       ??_C@_0CN@FCKBNFMB@Too?5many?5levels?5of?5symbolic?5link@ 005543f8     pjlib-i386-win32-vc8-debug:os_error_win32.obj
 0003:00015430       ??_C@_0CF@MOFKOMBB@File?5name?5too?5long?5?$CIWSAENAMETOOL@ 00554430     pjlib-i386-win32-vc8-debug:os_error_win32.obj
 0003:0001545c       ??_C@_0BM@NCJCEEDP@Host?5is?5down?5?$CIWSAEHOSTDOWN?$CJ?$AA@ 0055445c     pjlib-i386-win32-vc8-debug:os_error_win32.obj
 0003:00015480       ??_C@_0CD@ECJOJHBH@No?5route?5to?5host?5?$CIWSAEHOSTUNREAC@ 00554480     pjlib-i386-win32-vc8-debug:os_error_win32.obj
 0003:000154ac       ??_C@_0CD@NEFLEHEG@Directory?5not?5empty?5?$CIWSAENOTEMPT@ 005544ac     pjlib-i386-win32-vc8-debug:os_error_win32.obj
 0003:000154d8       ??_C@_0CB@GPCGLHOJ@Too?5many?5processes?5?$CIWSAEPROCLIM?$CJ@ 005544d8     pjlib-i386-win32-vc8-debug:os_error_win32.obj
 0003:00015500       ??_C@_0BL@IGHJMJKO@Too?5many?5users?5?$CIWSAEUSERS?$CJ?$AA@ 00554500     pjlib-i386-win32-vc8-debug:os_error_win32.obj
 0003:00015520       ??_C@_0CA@MIOFDKMA@Disc?5quota?5exceeded?5?$CIWSAEDQUOT?$CJ?$AA@ 00554520     pjlib-i386-win32-vc8-debug:os_error_win32.obj
 0003:00015548       ??_C@_0CC@IMLIDHNH@Stale?5NFS?5file?5handle?5?$CIWSAESTALE@ 00554548     pjlib-i386-win32-vc8-debug:os_error_win32.obj
 0003:00015570       ??_C@_0CP@MLAFGPOA@Too?5many?5levels?5of?5remote?5in?5pat@ 00554570     pjlib-i386-win32-vc8-debug:os_error_win32.obj
 0003:000155a8       ??_C@_0CP@IBAEMKGH@Network?5system?5is?5unavailable?5?$CIW@ 005545a8     pjlib-i386-win32-vc8-debug:os_error_win32.obj
 0003:000155e0       ??_C@_0DC@BLAKHMMJ@Winsock?5version?5out?5of?5range?5?$CIWS@ 005545e0     pjlib-i386-win32-vc8-debug:os_error_win32.obj
 0003:0001561c       ??_C@_0CO@HPDHHDHA@WSAStartup?5not?5yet?5called?5?$CIWSANO@ 0055461c     pjlib-i386-win32-vc8-debug:os_error_win32.obj
 0003:00015654       ??_C@_0CL@GFDHEKLB@Graceful?5shutdown?5in?5progress?5?$CIW@ 00554654     pjlib-i386-win32-vc8-debug:os_error_win32.obj
 0003:00015688       ??_C@_0CD@OEALOMDH@Host?5not?5found?5?$CIWSAHOST_NOT_FOUN@ 00554688     pjlib-i386-win32-vc8-debug:os_error_win32.obj
 0003:000156b4       ??_C@_0DB@KFPHELLI@No?5host?5data?5of?5that?5type?5was?5fo@ 005546b4     pjlib-i386-win32-vc8-debug:os_error_win32.obj
 0003:000156f0       ??_C@_1LO@GLMLEIEO@?$AAc?$AA?3?$AA?2?$AAu?$AAs?$AAe?$AAr?$AAs?$AA?2?$AA9?$AA2?$AA0?$AA0?$AA?2?$AAd?$AAe?$AAs?$AAk?$AAt?$AAo?$AAp?$AA?2?$AAw?$AAo?$AAr?$AAk?$AA?2?$AAp?$AAj?$AAs?$AAi?$AAp@ 005546f0     pjlib-i386-win32-vc8-debug:os_error_win32.obj
 0003:000157d4       ??_C@_1CG@MKDKEIKM@?$AAb?$AAu?$AAf?$AA?5?$AA?$CB?$AA?$DN?$AA?5?$AA?$CI?$AA?$CI?$AAv?$AAo?$AAi?$AAd?$AA?5?$AA?$CK?$AA?$CJ?$AA0?$AA?$CJ?$AA?$AA@ 005547d4     pjlib-i386-win32-vc8-debug:os_error_win32.obj
 0003:00015804       ??_C@_1BK@KKHIEKEI@?$AAb?$AAu?$AAf?$AAs?$AAi?$AAz?$AAe?$AA?5?$AA?$DO?$AA?$DN?$AA?5?$AA0?$AA?$AA@ 00554804     pjlib-i386-win32-vc8-debug:os_error_win32.obj
 0003:00015824       ??_C@_0BE@JPHLLAEM@Win32?5error?5code?5?$CFu?$AA@ 00554824     pjlib-i386-win32-vc8-debug:os_error_win32.obj
 0003:0001583c       _PJ_GUID_STRING_LENGTH     0055483c     pjlib-i386-win32-vc8-debug:guid_win32.obj
 0003:00015840       ??_C@_0FL@BGAOOONH@c?3?2users?29200?2desktop?2work?2pjsip@ 00554840     pjlib-i386-win32-vc8-debug:guid_win32.obj
 0003:000158e0       ??_C@_1MA@KEPFLJJ@?$AAc?$AA?3?$AA?2?$AAu?$AAs?$AAe?$AAr?$AAs?$AA?2?$AA9?$AA2?$AA0?$AA0?$AA?2?$AAd?$AAe?$AAs?$AAk?$AAt?$AAo?$AAp?$AA?2?$AAw?$AAo?$AAr?$AAk?$AA?2?$AAp?$AAj?$AAs?$AAi?$AAp@ 005548e0     pjlib-i386-win32-vc8-debug:sock_qos_common.obj
 0003:000159c8       ??_C@_1EK@FDLHHEKP@?$AAt?$AAy?$AAp?$AAe?$AA?$DM?$AA?$DN?$AAP?$AAJ?$AA_?$AAQ?$AAO?$AAS?$AA_?$AAT?$AAY?$AAP?$AAE?$AA_?$AAC?$AAO?$AAN?$AAT?$AAR?$AAO?$AAL?$AA?5?$AA?$CG?$AA?$CG?$AA?5?$AAp?$AA_?$AAp@ 005549c8     pjlib-i386-win32-vc8-debug:sock_qos_common.obj
 0003:00015a20       ??_C@_1CA@MBGCEBMK@?$AAp?$AAa?$AAr?$AAa?$AAm?$AA?5?$AA?$CG?$AA?$CG?$AA?5?$AAp?$AA_?$AAt?$AAy?$AAp?$AAe?$AA?$AA@ 00554a20     pjlib-i386-win32-vc8-debug:sock_qos_common.obj
 0003:00015a48       ??_C@_0BC@GPHMAKPK@sock_qos_common?4c?$AA@ 00554a48     pjlib-i386-win32-vc8-debug:sock_qos_common.obj
 0003:00015a60       ??_C@_06HBELJPBO@socket?$AA@ 00554a60     pjlib-i386-win32-vc8-debug:sock_qos_common.obj
 0003:00015a68       ??_C@_0CA@EBJCMLJI@Error?5setting?5QoS?5type?5?$CFd?5to?5?$CFs?$AA@ 00554a68     pjlib-i386-win32-vc8-debug:sock_qos_common.obj
 0003:00015a90       ??_C@_0CK@CGDCCPNL@Error?5setting?5QoS?5params?5?$CIflags?$DN@ 00554a90     pjlib-i386-win32-vc8-debug:sock_qos_common.obj
 0003:00015ac8       ??_C@_1LG@DLHMKHDI@?$AAc?$AA?3?$AA?2?$AAu?$AAs?$AAe?$AAr?$AAs?$AA?2?$AA9?$AA2?$AA0?$AA0?$AA?2?$AAd?$AAe?$AAs?$AAk?$AAt?$AAo?$AAp?$AA?2?$AAw?$AAo?$AAr?$AAk?$AA?2?$AAp?$AAj?$AAs?$AAi?$AAp@ 00554ac8     pjlib-i386-win32-vc8-debug:activesock.obj
 0003:00015ba8       ??_C@_1EC@OFAEOALN@?$AAp?$AAo?$AAo?$AAl?$AA?5?$AA?$CG?$AA?$CG?$AA?5?$AAi?$AAo?$AAq?$AAu?$AAe?$AAu?$AAe?$AA?5?$AA?$CG?$AA?$CG?$AA?5?$AAc?$AAb?$AA?5?$AA?$CG?$AA?$CG?$AA?5?$AAp?$AA_?$AAa?$AAs?$AAo?$AAc?$AAk@ 00554ba8     pjlib-i386-win32-vc8-debug:activesock.obj
 0003:00015bf8       ??_C@_1CM@DFNNFLPB@?$AAs?$AAo?$AAc?$AAk?$AA?$CB?$AA?$DN?$AA0?$AA?5?$AA?$CG?$AA?$CG?$AA?5?$AAs?$AAo?$AAc?$AAk?$AA?$CB?$AA?$DN?$AA?$CI?$AA?9?$AA1?$AA?$CJ?$AA?$AA@ 00554bf8     pjlib-i386-win32-vc8-debug:activesock.obj
 0003:00015c30       ??_C@_1GM@HNEOJPGK@?$AAs?$AAo?$AAc?$AAk?$AA_?$AAt?$AAy?$AAp?$AAe?$AA?$DN?$AA?$DN?$AAP?$AAJ?$AA_?$AAS?$AAO?$AAC?$AAK?$AA_?$AAS?$AAT?$AAR?$AAE?$AAA?$AAM?$AA?5?$AA?$HM?$AA?$HM?$AA?5?$AAs?$AAo?$AAc@ 00554c30     pjlib-i386-win32-vc8-debug:activesock.obj
 0003:00015cb4       ??_C@_1DI@IDGEEHNC@?$AA?$CB?$AAo?$AAp?$AAt?$AA?5?$AA?$HM?$AA?$HM?$AA?5?$AAo?$AAp?$AAt?$AA?9?$AA?$DO?$AAa?$AAs?$AAy?$AAn?$AAc?$AA_?$AAc?$AAn?$AAt?$AA?5?$AA?$DO?$AA?$DN?$AA?5?$AA1?$AA?$AA@ 00554cb4     pjlib-i386-win32-vc8-debug:activesock.obj
 0003:00015cf8       ??_C@_1M@EBCPJIIN@?$AAa?$AAs?$AAo?$AAc?$AAk?$AA?$AA@ 00554cf8     pjlib-i386-win32-vc8-debug:activesock.obj
 0003:00015d08       ??_C@_1DG@HNFIMNHE@?$AAa?$AAs?$AAo?$AAc?$AAk?$AA?5?$AA?$CG?$AA?$CG?$AA?5?$AAp?$AAo?$AAo?$AAl?$AA?5?$AA?$CG?$AA?$CG?$AA?5?$AAb?$AAu?$AAf?$AAf?$AA_?$AAs?$AAi?$AAz?$AAe?$AA?$AA@ 00554d08     pjlib-i386-win32-vc8-debug:activesock.obj
 0003:00015d48       ??_C@_1DM@GLFIDNND@?$AAa?$AAs?$AAo?$AAc?$AAk?$AA?9?$AA?$DO?$AAr?$AAe?$AAa?$AAd?$AA_?$AAt?$AAy?$AAp?$AAe?$AA?5?$AA?$DN?$AA?$DN?$AA?5?$AAT?$AAY?$AAP?$AAE?$AA_?$AAN?$AAO?$AAN?$AAE?$AA?$AA@ 00554d48     pjlib-i386-win32-vc8-debug:activesock.obj
 0003:00015d90       ??_C@_1DM@HJJJAFAG@?$AAa?$AAs?$AAo?$AAc?$AAk?$AA?9?$AA?$DO?$AAr?$AAe?$AAa?$AAd?$AA_?$AAo?$AAp?$AA?5?$AA?$DN?$AA?$DN?$AA?5?$AA?$CI?$AA?$CI?$AAv?$AAo?$AAi?$AAd?$AA?5?$AA?$CK?$AA?$CJ?$AA0?$AA?$CJ?$AA?$AA@ 00554d90     pjlib-i386-win32-vc8-debug:activesock.obj
 0003:00015dd8       ??_C@_1CK@DNOGCHOK@?$AAs?$AAt?$AAa?$AAt?$AAu?$AAs?$AA?5?$AA?$CB?$AA?$DN?$AA?5?$AAP?$AAJ?$AA_?$AAS?$AAU?$AAC?$AAC?$AAE?$AAS?$AAS?$AA?$AA@ 00554dd8     pjlib-i386-win32-vc8-debug:activesock.obj
 0003:00015e10       ??_C@_1EE@KJNPGMJN@?$AAa?$AAs?$AAo?$AAc?$AAk?$AA?5?$AA?$CG?$AA?$CG?$AA?5?$AAs?$AAe?$AAn?$AAd?$AA_?$AAk?$AAe?$AAy?$AA?5?$AA?$CG?$AA?$CG?$AA?5?$AAd?$AAa?$AAt?$AAa?$AA?5?$AA?$CG?$AA?$CG?$AA?5?$AAs?$AAi?$AAz@ 00554e10     pjlib-i386-win32-vc8-debug:activesock.obj
 0003:00015e68       ??_C@_1GM@HNOPOOMA@?$AAa?$AAs?$AAo?$AAc?$AAk?$AA?5?$AA?$CG?$AA?$CG?$AA?5?$AAs?$AAe?$AAn?$AAd?$AA_?$AAk?$AAe?$AAy?$AA?5?$AA?$CG?$AA?$CG?$AA?5?$AAd?$AAa?$AAt?$AAa?$AA?5?$AA?$CG?$AA?$CG?$AA?5?$AAs?$AAi?$AAz@ 00554e68     pjlib-i386-win32-vc8-debug:activesock.obj
 0003:00015eec       ??_C@_1DM@PMMGBNAB@?$AAa?$AAs?$AAo?$AAc?$AAk?$AA?9?$AA?$DO?$AAa?$AAc?$AAc?$AAe?$AAp?$AAt?$AA_?$AAo?$AAp?$AA?$DN?$AA?$DN?$AA?$CI?$AA?$CI?$AAv?$AAo?$AAi?$AAd?$AA?5?$AA?$CK?$AA?$CJ?$AA0?$AA?$CJ?$AA?$AA@ 00554eec     pjlib-i386-win32-vc8-debug:activesock.obj
 0003:00015f38       ??_C@_0GB@HHNNKDBF@Received?5?$CFd?5consecutive?5errors?3?5@ 00554f38     pjlib-i386-win32-vc8-debug:activesock.obj
 0003:00015fb0       __real@0000000000000000    00554fb0     pjlib-i386-win32-vc8-debug:os_timestamp_common.obj
 0003:00015fc0       __real@3ff0000000000000    00554fc0     pjlib-i386-win32-vc8-debug:os_timestamp_common.obj
 0003:00015fd0       __real@408f400000000000    00554fd0     pjlib-i386-win32-vc8-debug:os_timestamp_common.obj
 0003:00015fe0       __real@412e848000000000    00554fe0     pjlib-i386-win32-vc8-debug:os_timestamp_common.obj
 0003:00015ff0       __real@41cdcd6500000000    00554ff0     pjlib-i386-win32-vc8-debug:os_timestamp_common.obj
 0003:00016000       ??_C@_1MC@NBBNBNGF@?$AAc?$AA?3?$AA?2?$AAu?$AAs?$AAe?$AAr?$AAs?$AA?2?$AA9?$AA2?$AA0?$AA0?$AA?2?$AAd?$AAe?$AAs?$AAk?$AAt?$AAo?$AAp?$AA?2?$AAw?$AAo?$AAr?$AAk?$AA?2?$AAp?$AAj?$AAs?$AAi?$AAp@ 00555000     pjlib-i386-win32-vc8-debug:addr_resolv_sock.obj
 0003:000160e8       ??_C@_1EI@LHIOBFFM@?$AAh?$AAo?$AAs?$AAt?$AAn?$AAa?$AAm?$AAe?$AA?5?$AA?$CG?$AA?$CG?$AA?5?$AAh?$AAo?$AAs?$AAt?$AAn?$AAa?$AAm?$AAe?$AA?5?$AA?9?$AA?$DO?$AAs?$AAl?$AAe?$AAn?$AA?5?$AA?$DM?$AA?5?$AA?$CI?$AA1@ 005550e8     pjlib-i386-win32-vc8-debug:addr_resolv_sock.obj
 0003:00016140       ??_C@_1CA@LMDHKGAC@?$AAc?$AAo?$AAu?$AAn?$AAt?$AA?5?$AA?$CG?$AA?$CG?$AA?5?$AA?$CK?$AAc?$AAo?$AAu?$AAn?$AAt?$AA?$AA@ 00555140     pjlib-i386-win32-vc8-debug:addr_resolv_sock.obj
 0003:00016168       ??_C@_1LC@IPADHDEI@?$AAc?$AA?3?$AA?2?$AAu?$AAs?$AAe?$AAr?$AAs?$AA?2?$AA9?$AA2?$AA0?$AA0?$AA?2?$AAd?$AAe?$AAs?$AAk?$AAt?$AAo?$AAp?$AA?2?$AAw?$AAo?$AAr?$AAk?$AA?2?$AAp?$AAj?$AAs?$AAi?$AAp@ 00555168     pjlib-i386-win32-vc8-debug:pool_buf.obj
 0003:00016240       ??_C@_1CI@HJOGHDAN@?$AAs?$AAi?$AAz?$AAe?$AA?5?$AA?$DM?$AA?$DN?$AA?5?$AAp?$AAa?$AAr?$AAa?$AAm?$AA?9?$AA?$DO?$AAs?$AAi?$AAz?$AAe?$AA?$AA@ 00555240     pjlib-i386-win32-vc8-debug:pool_buf.obj
 0003:00016270       ??_C@_1BI@BGGDHCPA@?$AAb?$AAu?$AAf?$AA?5?$AA?$CG?$AA?$CG?$AA?5?$AAs?$AAi?$AAz?$AAe?$AA?$AA@ 00555270     pjlib-i386-win32-vc8-debug:pool_buf.obj
 0003:0001628c       ??_C@_08DOCHLGNA@config?4c?$AA@ 0055528c     pjlib-i386-win32-vc8-debug:config.obj
 0003:00016298       ??_C@_05NHNCDFON@2?42?41?$AA@ 00555298     pjlib-i386-win32-vc8-debug:config.obj
 0003:000162a0       ??_C@_0BO@KNCHBKC@PJLIB?5?$CIc?$CJ2008?92009?5Teluu?5Inc?4?$AA@ 005552a0     pjlib-i386-win32-vc8-debug:config.obj
 0003:000162c4       ??_C@_0BI@GDBJIAMF@Dumping?5configurations?3?$AA@ 005552c4     pjlib-i386-win32-vc8-debug:config.obj
 0003:000162e0       ??_C@_0CA@JHFFEGGP@?5PJ_VERSION?5?5?5?5?5?5?5?5?5?5?5?5?5?5?5?5?3?5?$CFs?$AA@ 005552e0     pjlib-i386-win32-vc8-debug:config.obj
 0003:00016308       ??_C@_04OMAFGPMM@i386?$AA@ 00555308     pjlib-i386-win32-vc8-debug:config.obj
 0003:00016310       ??_C@_0CA@NCEBBBBA@?5PJ_M_NAME?5?5?5?5?5?5?5?5?5?5?5?5?5?5?5?5?5?3?5?$CFs?$AA@ 00555310     pjlib-i386-win32-vc8-debug:config.obj
 0003:00016338       ??_C@_0CA@KOLEBPNK@?5PJ_HAS_PENTIUM?5?5?5?5?5?5?5?5?5?5?5?5?3?5?$CFd?$AA@ 00555338     pjlib-i386-win32-vc8-debug:config.obj
 0003:00016360       ??_C@_05NMJMPJJB@win32?$AA@ 00555360     pjlib-i386-win32-vc8-debug:config.obj
 0003:00016368       ??_C@_0CA@GPBHGDBG@?5PJ_OS_NAME?5?5?5?5?5?5?5?5?5?5?5?5?5?5?5?5?3?5?$CFs?$AA@ 00555368     pjlib-i386-win32-vc8-debug:config.obj
 0003:00016390       ??_C@_04DPFJJIOK@msvc?$AA@ 00555390     pjlib-i386-win32-vc8-debug:config.obj
 0003:00016398       ??_C@_0CJ@BAKBAPNO@?5PJ_CC_NAME?1VER_?$CI1?02?03?$CJ?5?5?5?5?3?5?$CFs?9@ 00555398     pjlib-i386-win32-vc8-debug:config.obj
 0003:000163cc       ??_C@_0O@KEGGAHLA@little?9endian?$AA@ 005553cc     pjlib-i386-win32-vc8-debug:config.obj
 0003:000163dc       ??_C@_0CA@CNKKKLLD@?5PJ_IS_?$CIBIG?1LITTLE?$CJ_ENDIAN?5?3?5?$CFs?$AA@ 005553dc     pjlib-i386-win32-vc8-debug:config.obj
 0003:00016404       ??_C@_0CA@GGBFPJFC@?5PJ_HAS_INT64?5?5?5?5?5?5?5?5?5?5?5?5?5?5?3?5?$CFd?$AA@ 00555404     pjlib-i386-win32-vc8-debug:config.obj
 0003:0001642c       ??_C@_0CA@LMENGBAP@?5PJ_HAS_FLOATING_POINT?5?5?5?5?5?3?5?$CFd?$AA@ 0055542c     pjlib-i386-win32-vc8-debug:config.obj
 0003:00016454       ??_C@_0CA@NBBHLDIH@?5PJ_DEBUG?5?5?5?5?5?5?5?5?5?5?5?5?5?5?5?5?5?5?3?5?$CFd?$AA@ 00555454     pjlib-i386-win32-vc8-debug:config.obj
 0003:0001647c       ??_C@_0CA@PKIHIMKF@?5PJ_FUNCTIONS_ARE_INLINED?5?5?3?5?$CFd?$AA@ 0055547c     pjlib-i386-win32-vc8-debug:config.obj
 0003:000164a4       ??_C@_0CA@GEBJAONH@?5PJ_LOG_MAX_LEVEL?5?5?5?5?5?5?5?5?5?5?3?5?$CFd?$AA@ 005554a4     pjlib-i386-win32-vc8-debug:config.obj
 0003:000164cc       ??_C@_0CA@JKBDOCPB@?5PJ_LOG_MAX_SIZE?5?5?5?5?5?5?5?5?5?5?5?3?5?$CFd?$AA@ 005554cc     pjlib-i386-win32-vc8-debug:config.obj
 0003:000164f4       ??_C@_0CA@LNDGNGPB@?5PJ_LOG_USE_STACK_BUFFER?5?5?5?3?5?$CFd?$AA@ 005554f4     pjlib-i386-win32-vc8-debug:config.obj
 0003:0001651c       ??_C@_0CA@HLGIANHB@?5PJ_POOL_DEBUG?5?5?5?5?5?5?5?5?5?5?5?5?5?3?5?$CFd?$AA@ 0055551c     pjlib-i386-win32-vc8-debug:config.obj
 0003:00016544       ??_C@_0CA@JFMEIGNB@?5PJ_HAS_POOL_ALT_API?5?5?5?5?5?5?5?3?5?$CFd?$AA@ 00555544     pjlib-i386-win32-vc8-debug:config.obj
 0003:0001656c       ??_C@_0CA@PHJFINJO@?5PJ_HAS_TCP?5?5?5?5?5?5?5?5?5?5?5?5?5?5?5?5?3?5?$CFd?$AA@ 0055556c     pjlib-i386-win32-vc8-debug:config.obj
 0003:00016594       ??_C@_0CA@IJPJLFMD@?5PJ_MAX_HOSTNAME?5?5?5?5?5?5?5?5?5?5?5?3?5?$CFd?$AA@ 00555594     pjlib-i386-win32-vc8-debug:config.obj
 0003:000165bc       ??_C@_0CA@IFEKDPPK@?5ioqueue?5type?5?5?5?5?5?5?5?5?5?5?5?5?5?5?3?5?$CFs?$AA@ 005555bc     pjlib-i386-win32-vc8-debug:config.obj
 0003:000165e4       ??_C@_0CA@MFIGELPB@?5PJ_IOQUEUE_MAX_HANDLES?5?5?5?5?3?5?$CFd?$AA@ 005555e4     pjlib-i386-win32-vc8-debug:config.obj
 0003:0001660c       ??_C@_0CA@EOIHPMGI@?5PJ_IOQUEUE_HAS_SAFE_UNREG?5?3?5?$CFd?$AA@ 0055560c     pjlib-i386-win32-vc8-debug:config.obj
 0003:00016634       ??_C@_0CA@KKPKMEKG@?5PJ_HAS_THREADS?5?5?5?5?5?5?5?5?5?5?5?5?3?5?$CFd?$AA@ 00555634     pjlib-i386-win32-vc8-debug:config.obj
 0003:0001665c       ??_C@_0CA@MDECAGDJ@?5PJ_HAS_SEMAPHORE?5?5?5?5?5?5?5?5?5?5?3?5?$CFd?$AA@ 0055565c     pjlib-i386-win32-vc8-debug:config.obj
 0003:00016684       ??_C@_0CA@PPJIFE@?5PJ_HAS_EVENT_OBJ?5?5?5?5?5?5?5?5?5?5?3?5?$CFd?$AA@ 00555684     pjlib-i386-win32-vc8-debug:config.obj
 0003:000166ac       ??_C@_0CA@HDOPKKCK@?5PJ_ENABLE_EXTRA_CHECK?5?5?5?5?5?3?5?$CFd?$AA@ 005556ac     pjlib-i386-win32-vc8-debug:config.obj
 0003:000166d4       ??_C@_0CA@KBIPPCDM@?5PJ_HAS_EXCEPTION_NAMES?5?5?5?5?3?5?$CFd?$AA@ 005556d4     pjlib-i386-win32-vc8-debug:config.obj
 0003:000166fc       ??_C@_0CA@PDHBELMF@?5PJ_MAX_EXCEPTION_ID?5?5?5?5?5?5?5?3?5?$CFd?$AA@ 005556fc     pjlib-i386-win32-vc8-debug:config.obj
 0003:00016724       ??_C@_0CA@JCLOPIAE@?5PJ_EXCEPTION_USE_WIN32_SEH?3?5?$CFd?$AA@ 00555724     pjlib-i386-win32-vc8-debug:config.obj
 0003:0001674c       ??_C@_0CA@ELABDFDK@?5PJ_TIMESTAMP_USE_RDTSC?3?5?5?5?3?5?$CFd?$AA@ 0055574c     pjlib-i386-win32-vc8-debug:config.obj
 0003:00016774       ??_C@_0CA@KNFEOAMF@?5PJ_OS_HAS_CHECK_STACK?5?5?5?5?5?3?5?$CFd?$AA@ 00555774     pjlib-i386-win32-vc8-debug:config.obj
 0003:0001679c       ??_C@_0CA@HPFADEMC@?5PJ_HAS_HIGH_RES_TIMER?5?5?5?5?5?3?5?$CFd?$AA@ 0055579c     pjlib-i386-win32-vc8-debug:config.obj
 0003:000167c4       ??_C@_08PFPBFMIL@IpHlpApi?$AA@ 005557c4     pjlib-i386-win32-vc8-debug:ip_helper_win32.obj
 0003:000167d0       ??_C@_0P@PMIJPFPM@GetIpAddrTable?$AA@ 005557d0     pjlib-i386-win32-vc8-debug:ip_helper_win32.obj
 0003:000167e4       ??_C@_0BF@LHFCIIHE@GetAdaptersAddresses?$AA@ 005557e4     pjlib-i386-win32-vc8-debug:ip_helper_win32.obj
 0003:00016800       ??_C@_0L@BLHMKEDC@GetIfEntry?$AA@ 00555800     pjlib-i386-win32-vc8-debug:ip_helper_win32.obj
 0003:00016810       ??_C@_0BC@MNHJPEOP@GetIpForwardTable?$AA@ 00555810     pjlib-i386-win32-vc8-debug:ip_helper_win32.obj
 0003:00016828       ??_C@_1MA@HBAIELOG@?$AAc?$AA?3?$AA?2?$AAu?$AAs?$AAe?$AAr?$AAs?$AA?2?$AA9?$AA2?$AA0?$AA0?$AA?2?$AAd?$AAe?$AAs?$AAk?$AAt?$AAo?$AAp?$AA?2?$AAw?$AAo?$AAr?$AAk?$AA?2?$AAp?$AAj?$AAs?$AAi?$AAp@ 00555828     pjlib-i386-win32-vc8-debug:ip_helper_win32.obj
 0003:00016910       ??_C@_1BK@HGDCMKGI@?$AAp?$AA_?$AAc?$AAn?$AAt?$AA?5?$AA?$CG?$AA?$CG?$AA?5?$AAi?$AAf?$AAs?$AA?$AA@ 00555910     pjlib-i386-win32-vc8-debug:ip_helper_win32.obj
 0003:00016930       ??_C@_1CA@PNMIBKCD@?$AAp?$AA_?$AAc?$AAn?$AAt?$AA?5?$AA?$CG?$AA?$CG?$AA?5?$AAr?$AAo?$AAu?$AAt?$AAe?$AAs?$AA?$AA@ 00555930     pjlib-i386-win32-vc8-debug:ip_helper_win32.obj
 0003:00016958       ??_C@_0GD@NACDFKDL@c?3?2users?29200?2desktop?2work?2pjsip@ 00555958     pjlib-i386-win32-vc8-debug:pool_policy_malloc.obj
 0003:000169d0       ??_C@_0GC@CPIDHGHB@c?3?2users?29200?2desktop?2work?2pjsip@ 005559d0     pjlib-i386-win32-vc8-debug:log_writer_stdout.obj
 0003:00016a48       ??_C@_0FM@EAHCLHHP@c?3?2users?29200?2desktop?2work?2pjsip@ 00555a48     pjlib-i386-win32-vc8-debug:sock_select.obj
 0003:00016ab8       ??_C@_0CH@FPHLCLAF@f?3?2dd?2vctools?2crt?2crtw32?2stdio?2_@ 00555ab8     LIBCMTD:_file.obj
 0003:00016ae8       ??_C@_1EK@KICPAPCG@?$AA?$CI?$AA?5?$AAs?$AAt?$AAr?$AAi?$AAn?$AAg?$AA?5?$AA?$CB?$AA?$DN?$AA?5?$AAN?$AAU?$AAL?$AAL?$AA?5?$AA?$CJ?$AA?5?$AA?$HM?$AA?$HM?$AA?5?$AA?$CI?$AA?5?$AAc?$AAo?$AAu?$AAn?$AAt?$AA?5?$AA?$DN?$AA?$DN@ 00555ae8     LIBCMTD:fgets.obj
 0003:00016b40       ??_C@_15GANGMFKL@?$AA?$CF?$AAs?$AA?$AA@ 00555b40     LIBCMTD:fgets.obj
 0003:00016b48       ??_C@_1EO@PGEPLMEM@?$AAf?$AA?3?$AA?2?$AAd?$AAd?$AA?2?$AAv?$AAc?$AAt?$AAo?$AAo?$AAl?$AAs?$AA?2?$AAc?$AAr?$AAt?$AA?2?$AAc?$AAr?$AAt?$AAw?$AA3?$AA2?$AA?2?$AAs?$AAt?$AAd?$AAi?$AAo?$AA?2?$AAf@ 00555b48     LIBCMTD:fgets.obj
 0003:00016ba8       ??_C@_1M@BEMABAL@?$AAf?$AAg?$AAe?$AAt?$AAs?$AA?$AA@ 00555ba8     LIBCMTD:fgets.obj
 0003:00016bb8       ??_C@_1BO@CLMMCNLO@?$AA?$CI?$AA?5?$AAc?$AAo?$AAu?$AAn?$AAt?$AA?5?$AA?$DO?$AA?$DN?$AA?5?$AA0?$AA?5?$AA?$CJ?$AA?$AA@ 00555bb8     LIBCMTD:fgets.obj
 0003:00016bdc       ??_C@_1CA@EHPEFHFN@?$AA?$CI?$AA?5?$AAs?$AAt?$AAr?$AA?5?$AA?$CB?$AA?$DN?$AA?5?$AAN?$AAU?$AAL?$AAL?$AA?5?$AA?$CJ?$AA?$AA@ 00555bdc     LIBCMTD:fgets.obj
 0003:00016c08       ??_C@_1BAA@ODEGEDCK@?$AA?$CI?$AA?5?$AA?$CI?$AA_?$AAS?$AAt?$AAr?$AAe?$AAa?$AAm?$AA?9?$AA?$DO?$AA_?$AAf?$AAl?$AAa?$AAg?$AA?5?$AA?$CG?$AA?5?$AA_?$AAI?$AAO?$AAS?$AAT?$AAR?$AAG?$AA?$CJ?$AA?5?$AA?$HM?$AA?$HM?$AA?5@ 00555c08     LIBCMTD:fgets.obj
 0003:00016d3c       ??_C@_1CC@MGIEJOME@?$AA?$CI?$AAf?$AAo?$AAr?$AAm?$AAa?$AAt?$AA?5?$AA?$CB?$AA?$DN?$AA?5?$AAN?$AAU?$AAL?$AAL?$AA?$CJ?$AA?$AA@ 00555d3c     LIBCMTD:printf.obj
 0003:00016d68       ??_C@_1FA@GMJBBNDK@?$AAf?$AA?3?$AA?2?$AAd?$AAd?$AA?2?$AAv?$AAc?$AAt?$AAo?$AAo?$AAl?$AAs?$AA?2?$AAc?$AAr?$AAt?$AA?2?$AAc?$AAr?$AAt?$AAw?$AA3?$AA2?$AA?2?$AAs?$AAt?$AAd?$AAi?$AAo?$AA?2?$AAp@ 00555d68     LIBCMTD:printf.obj
 0003:00016dc8       ??_C@_1O@GKDHFACN@?$AAp?$AAr?$AAi?$AAn?$AAt?$AAf?$AA?$AA@ 00555dc8     LIBCMTD:printf.obj
 0003:00016dd8       ??_C@_1CC@OLIJCKA@?$AA?$CI?$AAs?$AAt?$AAr?$AAi?$AAn?$AAg?$AA?5?$AA?$CB?$AA?$DN?$AA?5?$AAN?$AAU?$AAL?$AAL?$AA?$CJ?$AA?$AA@ 00555dd8     LIBCMTD:puts.obj
 0003:00016e00       ??_C@_1EM@IHFMKAO@?$AAf?$AA?3?$AA?2?$AAd?$AAd?$AA?2?$AAv?$AAc?$AAt?$AAo?$AAo?$AAl?$AAs?$AA?2?$AAc?$AAr?$AAt?$AA?2?$AAc?$AAr?$AAt?$AAw?$AA3?$AA2?$AA?2?$AAs?$AAt?$AAd?$AAi?$AAo?$AA?2?$AAp@ 00555e00     LIBCMTD:puts.obj
 0003:00016e5c       ??_C@_19OHLFMNEA@?$AAp?$AAu?$AAt?$AAs?$AA?$AA@ 00555e5c     LIBCMTD:puts.obj
 0003:00016e68       ??_C@_1FC@JALKILNE@?$AAf?$AA?3?$AA?2?$AAd?$AAd?$AA?2?$AAv?$AAc?$AAt?$AAo?$AAo?$AAl?$AAs?$AA?2?$AAc?$AAr?$AAt?$AA?2?$AAc?$AAr?$AAt?$AAw?$AA3?$AA2?$AA?2?$AAs?$AAt?$AAd?$AAi?$AAo?$AA?2?$AAs@ 00555e68     LIBCMTD:sprintf.obj
 0003:00016ecc       ??_C@_1BA@KBJJGFFE@?$AAs?$AAp?$AAr?$AAi?$AAn?$AAt?$AAf?$AA?$AA@ 00555ecc     LIBCMTD:sprintf.obj
 0003:00016ee0       ?ProcessDetach@NativeDll@<CrtImplementationDetails>@@0IB 00555ee0     LIBCMTD:strtol.obj
 0003:00016ee4       ?ProcessAttach@NativeDll@<CrtImplementationDetails>@@0IB 00555ee4     LIBCMTD:strtol.obj
 0003:00016ee8       ?ThreadAttach@NativeDll@<CrtImplementationDetails>@@0IB 00555ee8     LIBCMTD:strtol.obj
 0003:00016eec       ?ThreadDetach@NativeDll@<CrtImplementationDetails>@@0IB 00555eec     LIBCMTD:strtol.obj
 0003:00016ef0       ?ProcessVerifier@NativeDll@<CrtImplementationDetails>@@0IB 00555ef0     LIBCMTD:strtol.obj
 0003:00016ef4       ??_C@_1BK@LAOAACLJ@?$AAn?$AAp?$AAt?$AAr?$AA?5?$AA?$CB?$AA?$DN?$AA?5?$AAN?$AAU?$AAL?$AAL?$AA?$AA@ 00555ef4     LIBCMTD:strtol.obj
 0003:00016f18       ??_C@_1FE@OOICPOFH@?$AAf?$AA?3?$AA?2?$AAd?$AAd?$AA?2?$AAv?$AAc?$AAt?$AAo?$AAo?$AAl?$AAs?$AA?2?$AAc?$AAr?$AAt?$AA?2?$AAc?$AAr?$AAt?$AAw?$AA3?$AA2?$AA?2?$AAc?$AAo?$AAn?$AAv?$AAe?$AAr?$AAt@ 00555f18     LIBCMTD:strtol.obj
 0003:00016f7c       ??_C@_1BA@LOLAMAJG@?$AAs?$AAt?$AAr?$AAt?$AAo?$AAx?$AAl?$AA?$AA@ 00555f7c     LIBCMTD:strtol.obj
 0003:00016f90       ??_C@_1FE@CEHLKAHD@?$AAi?$AAb?$AAa?$AAs?$AAe?$AA?5?$AA?$DN?$AA?$DN?$AA?5?$AA0?$AA?5?$AA?$HM?$AA?$HM?$AA?5?$AA?$CI?$AA2?$AA?5?$AA?$DM?$AA?$DN?$AA?5?$AAi?$AAb?$AAa?$AAs?$AAe?$AA?5?$AA?$CG?$AA?$CG?$AA?5?$AAi?$AAb?$AAa@ 00555f90     LIBCMTD:strtol.obj
 0003:00016ff4       ??_C@_17LGKOMLJ@?$AA?4?$AA?4?$AA?4?$AA?$AA@ 00555ff4     LIBCMTD:wassert.obj
 0003:00017000       ??_C@_13LBAGMAIH@?$AA?6?$AA?$AA@ 00556000     LIBCMTD:wassert.obj
 0003:00017004       ??_C@_15IABLJNFO@?$AA?6?$AA?6?$AA?$AA@ 00556004     LIBCMTD:wassert.obj
 0003:00017010       ??_C@_1EO@DPPHNOPL@?$AAf?$AA?3?$AA?2?$AAd?$AAd?$AA?2?$AAv?$AAc?$AAt?$AAo?$AAo?$AAl?$AAs?$AA?2?$AAc?$AAr?$AAt?$AA?2?$AAc?$AAr?$AAt?$AAw?$AA3?$AA2?$AA?2?$AAm?$AAi?$AAs?$AAc?$AA?2?$AAa?$AAs@ 00556010     LIBCMTD:wassert.obj
 0003:00017070       ??_C@_1BC@LNOOMFNA@?$AA_?$AAw?$AAa?$AAs?$AAs?$AAe?$AAr?$AAt?$AA?$AA@ 00556070     LIBCMTD:wassert.obj
 0003:00017088       ??_C@_1GM@PANFFKAD@?$AAw?$AAc?$AAs?$AAc?$AAp?$AAy?$AA_?$AAs?$AA?$CI?$AA?5?$AAa?$AAs?$AAs?$AAe?$AAr?$AAt?$AAb?$AAu?$AAf?$AA?0?$AA?5?$AA?$CI?$AA6?$AA4?$AA?5?$AA?$CK?$AA?5?$AA9?$AA?$CJ?$AA?0?$AA?5?$AAL@ 00556088     LIBCMTD:wassert.obj
 0003:0001710c       ??_C@_1CE@OJBNHDMO@?$AAA?$AAs?$AAs?$AAe?$AAr?$AAt?$AAi?$AAo?$AAn?$AA?5?$AAf?$AAa?$AAi?$AAl?$AAe?$AAd?$AA?$CB?$AA?$AA@ 0055610c     LIBCMTD:wassert.obj
 0003:00017138       ??_C@_1FI@OJONHFCN@?$AAw?$AAc?$AAs?$AAc?$AAa?$AAt?$AA_?$AAs?$AA?$CI?$AA?5?$AAa?$AAs?$AAs?$AAe?$AAr?$AAt?$AAb?$AAu?$AAf?$AA?0?$AA?5?$AA?$CI?$AA6?$AA4?$AA?5?$AA?$CK?$AA?5?$AA9?$AA?$CJ?$AA?0?$AA?5?$AAd@ 00556138     LIBCMTD:wassert.obj
 0003:000171a8       ??_C@_1FM@JONFCKBO@?$AAw?$AAc?$AAs?$AAc?$AAa?$AAt?$AA_?$AAs?$AA?$CI?$AA?5?$AAa?$AAs?$AAs?$AAe?$AAr?$AAt?$AAb?$AAu?$AAf?$AA?0?$AA?5?$AA?$CI?$AA6?$AA4?$AA?5?$AA?$CK?$AA?5?$AA9?$AA?$CJ?$AA?0?$AA?5?$AAL@ 005561a8     LIBCMTD:wassert.obj
 0003:00017218       ??_C@_1BE@PHKBBGE@?$AAP?$AAr?$AAo?$AAg?$AAr?$AAa?$AAm?$AA?3?$AA?5?$AA?$AA@ 00556218     LIBCMTD:wassert.obj
 0003:00017230       ??_C@_1HA@EPFCONEE@?$AAw?$AAc?$AAs?$AAc?$AAp?$AAy?$AA_?$AAs?$AA?$CI?$AA?5?$AAp?$AAr?$AAo?$AAg?$AAn?$AAa?$AAm?$AAe?$AA?0?$AA?5?$AA2?$AA6?$AA0?$AA?5?$AA?$CL?$AA?5?$AA1?$AA?0?$AA?5?$AAL?$AA?$CC?$AA?$DM@ 00556230     LIBCMTD:wassert.obj
 0003:000172b8       ??_C@_1CO@EAEJAADC@?$AA?$DM?$AAp?$AAr?$AAo?$AAg?$AAr?$AAa?$AAm?$AA?5?$AAn?$AAa?$AAm?$AAe?$AA?5?$AAu?$AAn?$AAk?$AAn?$AAo?$AAw?$AAn?$AA?$DO?$AA?$AA@ 005562b8     LIBCMTD:wassert.obj
 0003:000172f0       ??_C@_1LK@LGFOFOMH@?$AAm?$AAe?$AAm?$AAc?$AAp?$AAy?$AA_?$AAs?$AA?$CI?$AAp?$AAc?$AAh?$AA?0?$AA?5?$AAs?$AAi?$AAz?$AAe?$AAo?$AAf?$AA?$CI?$AAT?$AAC?$AAH?$AAA?$AAR?$AA?$CJ?$AA?5?$AA?$CK?$AA?5?$AA?$CI?$AA?$CI@ 005562f0     LIBCMTD:wassert.obj
 0003:000173d0       ??_C@_1EK@BFAHOLDO@?$AAw?$AAc?$AAs?$AAc?$AAa?$AAt?$AA_?$AAs?$AA?$CI?$AA?5?$AAa?$AAs?$AAs?$AAe?$AAr?$AAt?$AAb?$AAu?$AAf?$AA?0?$AA?5?$AA?$CI?$AA6?$AA4?$AA?5?$AA?$CK?$AA?5?$AA9?$AA?$CJ?$AA?0?$AA?5?$AAp@ 005563d0     LIBCMTD:wassert.obj
 0003:00017428       ??_C@_1FC@GNPGDADJ@?$AAw?$AAc?$AAs?$AAc?$AAa?$AAt?$AA_?$AAs?$AA?$CI?$AA?5?$AAa?$AAs?$AAs?$AAe?$AAr?$AAt?$AAb?$AAu?$AAf?$AA?0?$AA?5?$AA?$CI?$AA6?$AA4?$AA?5?$AA?$CK?$AA?5?$AA9?$AA?$CJ?$AA?0?$AA?5?$AAn@ 00556428     LIBCMTD:wassert.obj
 0003:00017490       ??_C@_1FG@NHACFNEK@?$AAw?$AAc?$AAs?$AAc?$AAa?$AAt?$AA_?$AAs?$AA?$CI?$AA?5?$AAa?$AAs?$AAs?$AAe?$AAr?$AAt?$AAb?$AAu?$AAf?$AA?0?$AA?5?$AA?$CI?$AA6?$AA4?$AA?5?$AA?$CK?$AA?5?$AA9?$AA?$CJ?$AA?0?$AA?5?$AAL@ 00556490     LIBCMTD:wassert.obj
 0003:000174f8       ??_C@_1O@HEMHKNDC@?$AAF?$AAi?$AAl?$AAe?$AA?3?$AA?5?$AA?$AA@ 005564f8     LIBCMTD:wassert.obj
 0003:00017508       ??_C@_1GG@PKOIFPHI@?$AAw?$AAc?$AAs?$AAn?$AAc?$AAa?$AAt?$AA_?$AAs?$AA?$CI?$AA?5?$AAa?$AAs?$AAs?$AAe?$AAr?$AAt?$AAb?$AAu?$AAf?$AA?0?$AA?5?$AA?$CI?$AA6?$AA4?$AA?5?$AA?$CK?$AA?5?$AA9?$AA?$CJ?$AA?0?$AA?5@ 00556508     LIBCMTD:wassert.obj
 0003:00017588       ??_C@_1FG@PLMFGJFG@?$AAw?$AAc?$AAs?$AAc?$AAa?$AAt?$AA_?$AAs?$AA?$CI?$AA?5?$AAa?$AAs?$AAs?$AAe?$AAr?$AAt?$AAb?$AAu?$AAf?$AA?0?$AA?5?$AA?$CI?$AA6?$AA4?$AA?5?$AA?$CK?$AA?5?$AA9?$AA?$CJ?$AA?0?$AA?5?$AAd@ 00556588     LIBCMTD:wassert.obj
 0003:000175f0       ??_C@_1FO@HPHMICDB@?$AAw?$AAc?$AAs?$AAc?$AAa?$AAt?$AA_?$AAs?$AA?$CI?$AA?5?$AAa?$AAs?$AAs?$AAe?$AAr?$AAt?$AAb?$AAu?$AAf?$AA?0?$AA?5?$AA?$CI?$AA6?$AA4?$AA?5?$AA?$CK?$AA?5?$AA9?$AA?$CJ?$AA?0?$AA?5?$AAp@ 005565f0     LIBCMTD:wassert.obj
 0003:00017660       ??_C@_1GO@KNIHEHNA@?$AAw?$AAc?$AAs?$AAn?$AAc?$AAa?$AAt?$AA_?$AAs?$AA?$CI?$AA?5?$AAa?$AAs?$AAs?$AAe?$AAr?$AAt?$AAb?$AAu?$AAf?$AA?0?$AA?5?$AA?$CI?$AA6?$AA4?$AA?5?$AA?$CK?$AA?5?$AA9?$AA?$CJ?$AA?0?$AA?5@ 00556660     LIBCMTD:wassert.obj
 0003:000176e8       ??_C@_1HG@FHHFPPED@?$AAw?$AAc?$AAs?$AAn?$AAc?$AAa?$AAt?$AA_?$AAs?$AA?$CI?$AA?5?$AAa?$AAs?$AAs?$AAe?$AAr?$AAt?$AAb?$AAu?$AAf?$AA?0?$AA?5?$AA?$CI?$AA6?$AA4?$AA?5?$AA?$CK?$AA?5?$AA9?$AA?$CJ?$AA?0?$AA?5@ 005566e8     LIBCMTD:wassert.obj
 0003:00017778       ??_C@_1IC@JGCGJJHO@?$AAw?$AAc?$AAs?$AAc?$AAa?$AAt?$AA_?$AAs?$AA?$CI?$AA?5?$AAa?$AAs?$AAs?$AAe?$AAr?$AAt?$AAb?$AAu?$AAf?$AA?0?$AA?5?$AA?$CI?$AA6?$AA4?$AA?5?$AA?$CK?$AA?5?$AA9?$AA?$CJ?$AA?0?$AA?5?$AAp@ 00556778     LIBCMTD:wassert.obj
 0003:00017818       ??_C@_1FE@NDOBOCBD@?$AAw?$AAc?$AAs?$AAc?$AAa?$AAt?$AA_?$AAs?$AA?$CI?$AA?5?$AAa?$AAs?$AAs?$AAe?$AAr?$AAt?$AAb?$AAu?$AAf?$AA?0?$AA?5?$AA?$CI?$AA6?$AA4?$AA?5?$AA?$CK?$AA?5?$AA9?$AA?$CJ?$AA?0?$AA?5?$AAf@ 00556818     LIBCMTD:wassert.obj
 0003:00017880       ??_C@_1FG@HLHNIBH@?$AAw?$AAc?$AAs?$AAc?$AAa?$AAt?$AA_?$AAs?$AA?$CI?$AA?5?$AAa?$AAs?$AAs?$AAe?$AAr?$AAt?$AAb?$AAu?$AAf?$AA?0?$AA?5?$AA?$CI?$AA6?$AA4?$AA?5?$AA?$CK?$AA?5?$AA9?$AA?$CJ?$AA?0?$AA?5?$AAL@ 00556880     LIBCMTD:wassert.obj
 0003:000178e8       ??_C@_1O@KCAFKHJE@?$AAL?$AAi?$AAn?$AAe?$AA?3?$AA?5?$AA?$AA@ 005568e8     LIBCMTD:wassert.obj
 0003:000178f8       ??_C@_1KG@NJJPHNOK@?$AA_?$AAi?$AAt?$AAo?$AAw?$AA_?$AAs?$AA?$CI?$AA?5?$AAl?$AAi?$AAn?$AAe?$AAn?$AAo?$AA?0?$AA?5?$AAa?$AAs?$AAs?$AAe?$AAr?$AAt?$AAb?$AAu?$AAf?$AA?5?$AA?$CL?$AA?5?$AAw?$AAc?$AAs@ 005568f8     LIBCMTD:wassert.obj
 0003:000179c0       ??_C@_1GC@CFDADAM@?$AAw?$AAc?$AAs?$AAc?$AAa?$AAt?$AA_?$AAs?$AA?$CI?$AA?5?$AAa?$AAs?$AAs?$AAe?$AAr?$AAt?$AAb?$AAu?$AAf?$AA?0?$AA?5?$AA?$CI?$AA6?$AA4?$AA?5?$AA?$CK?$AA?5?$AA9?$AA?$CJ?$AA?0?$AA?5?$AAL@ 005569c0     LIBCMTD:wassert.obj
 0003:00017a38       ??_C@_1BK@PEDCIPMA@?$AAE?$AAx?$AAp?$AAr?$AAe?$AAs?$AAs?$AAi?$AAo?$AAn?$AA?3?$AA?5?$AA?$AA@ 00556a38     LIBCMTD:wassert.obj
 0003:00017a58       ??_C@_1CHM@HIHGOMKE@?$AAw?$AAc?$AAs?$AAn?$AAc?$AAa?$AAt?$AA_?$AAs?$AA?$CI?$AA?5?$AAa?$AAs?$AAs?$AAe?$AAr?$AAt?$AAb?$AAu?$AAf?$AA?0?$AA?5?$AA?$CI?$AA6?$AA4?$AA?5?$AA?$CK?$AA?5?$AA9?$AA?$CJ?$AA?0?$AA?5@ 00556a58     LIBCMTD:wassert.obj
 0003:00017d58       ??_C@_1EM@DAMJKKKC@?$AAw?$AAc?$AAs?$AAc?$AAa?$AAt?$AA_?$AAs?$AA?$CI?$AA?5?$AAa?$AAs?$AAs?$AAe?$AAr?$AAt?$AAb?$AAu?$AAf?$AA?0?$AA?5?$AA?$CI?$AA6?$AA4?$AA?5?$AA?$CK?$AA?5?$AA9?$AA?$CJ?$AA?0?$AA?5?$AAe@ 00556d58     LIBCMTD:wassert.obj
 0003:00017db8       ??_C@_1BCO@GAGHDLIF@?$AAw?$AAc?$AAs?$AAc?$AAa?$AAt?$AA_?$AAs?$AA?$CI?$AAa?$AAs?$AAs?$AAe?$AAr?$AAt?$AAb?$AAu?$AAf?$AA?0?$AA?5?$AA?$CI?$AA6?$AA4?$AA?5?$AA?$CK?$AA?5?$AA9?$AA?$CJ?$AA?0?$AA?5?$AAL?$AA?$CC@ 00556db8     LIBCMTD:wassert.obj
 0003:00017f28       ??_C@_1OA@EGMLFBHJ@?$AAF?$AAo?$AAr?$AA?5?$AAi?$AAn?$AAf?$AAo?$AAr?$AAm?$AAa?$AAt?$AAi?$AAo?$AAn?$AA?5?$AAo?$AAn?$AA?5?$AAh?$AAo?$AAw?$AA?5?$AAy?$AAo?$AAu?$AAr?$AA?5?$AAp?$AAr?$AAo?$AAg@ 00556f28     LIBCMTD:wassert.obj
 0003:00018038       ??_C@_1FG@IFIHHMNM@?$AAw?$AAc?$AAs?$AAc?$AAa?$AAt?$AA_?$AAs?$AA?$CI?$AAa?$AAs?$AAs?$AAe?$AAr?$AAt?$AAb?$AAu?$AAf?$AA?0?$AA?5?$AA?$CI?$AA6?$AA4?$AA?5?$AA?$CK?$AA?5?$AA9?$AA?$CJ?$AA?0?$AA?5?$AAd?$AAb@ 00557038     LIBCMTD:wassert.obj
 0003:000180a0       ??_C@_1LO@CHAFGADE@?$AAw?$AAc?$AAs?$AAc?$AAa?$AAt?$AA_?$AAs?$AA?$CI?$AAa?$AAs?$AAs?$AAe?$AAr?$AAt?$AAb?$AAu?$AAf?$AA?0?$AA?5?$AA?$CI?$AA6?$AA4?$AA?5?$AA?$CK?$AA?5?$AA9?$AA?$CJ?$AA?0?$AA?5?$AAL?$AA?$CC@ 005570a0     LIBCMTD:wassert.obj
 0003:00018188       ??_C@_1HK@POCJMFGK@?$AA?$CI?$AAP?$AAr?$AAe?$AAs?$AAs?$AA?5?$AAR?$AAe?$AAt?$AAr?$AAy?$AA?5?$AAt?$AAo?$AA?5?$AAd?$AAe?$AAb?$AAu?$AAg?$AA?5?$AAt?$AAh?$AAe?$AA?5?$AAa?$AAp?$AAp?$AAl?$AAi?$AAc@ 00557188     LIBCMTD:wassert.obj
 0003:00018220       ??_C@_1EK@MBDPDCGA@?$AAM?$AAi?$AAc?$AAr?$AAo?$AAs?$AAo?$AAf?$AAt?$AA?5?$AAV?$AAi?$AAs?$AAu?$AAa?$AAl?$AA?5?$AAC?$AA?$CL?$AA?$CL?$AA?5?$AAR?$AAu?$AAn?$AAt?$AAi?$AAm?$AAe?$AA?5?$AAL?$AAi?$AAb@ 00557220     LIBCMTD:wassert.obj
 0003:00018278       ??_C@_1BE@CHNFPLHD@?$AA_?$AAs?$AAn?$AAp?$AAr?$AAi?$AAn?$AAt?$AAf?$AA?$AA@ 00557278     LIBCMTD:snprintf.obj
 0003:00018290       ??_C@_1EC@FABAOFFO@?$AA?$CI?$AAc?$AAo?$AAu?$AAn?$AAt?$AA?5?$AA?$DN?$AA?$DN?$AA?5?$AA0?$AA?$CJ?$AA?5?$AA?$HM?$AA?$HM?$AA?5?$AA?$CI?$AAs?$AAt?$AAr?$AAi?$AAn?$AAg?$AA?5?$AA?$CB?$AA?$DN?$AA?5?$AAN?$AAU?$AAL?$AAL?$AA?$CJ@ 00557290     LIBCMTD:snprintf.obj
 0003:000182ec       ??_C@_1BI@GKKCBDMD@?$AAd?$AAs?$AAt?$AA?5?$AA?$CB?$AA?$DN?$AA?5?$AAN?$AAU?$AAL?$AAL?$AA?$AA@ 005572ec     LIBCMTD:strnicmp.obj
 0003:00018308       ??_C@_1FG@NEKCMHCI@?$AAf?$AA?3?$AA?2?$AAd?$AAd?$AA?2?$AAv?$AAc?$AAt?$AAo?$AAo?$AAl?$AAs?$AA?2?$AAc?$AAr?$AAt?$AA?2?$AAc?$AAr?$AAt?$AAw?$AA3?$AA2?$AA?2?$AAs?$AAt?$AAr?$AAi?$AAn?$AAg?$AA?2@ 00557308     LIBCMTD:strnicmp.obj
 0003:00018370       ??_C@_1BI@BJLEPLEF@?$AA_?$AAs?$AAt?$AAr?$AAn?$AAi?$AAc?$AAm?$AAp?$AA_?$AAl?$AA?$AA@ 00557370     LIBCMTD:strnicmp.obj
 0003:0001838c       ??_C@_1BI@DCHLDCPP@?$AAs?$AAr?$AAc?$AA?5?$AA?$CB?$AA?$DN?$AA?5?$AAN?$AAU?$AAL?$AAL?$AA?$AA@ 0055738c     LIBCMTD:strnicmp.obj
 0003:000183a8       ??_C@_1CC@JLPHKJPH@?$AAc?$AAo?$AAu?$AAn?$AAt?$AA?5?$AA?$DM?$AA?$DN?$AA?5?$AAI?$AAN?$AAT?$AA_?$AAM?$AAA?$AAX?$AA?$AA@ 005573a8     LIBCMTD:strnicmp.obj
 0003:000183d0       ??_C@_1BE@BHJDFFNA@?$AA_?$AAs?$AAt?$AAr?$AAn?$AAi?$AAc?$AAm?$AAp?$AA?$AA@ 005573d0     LIBCMTD:strnicmp.obj
 0003:000183e8       ??_C@_1FE@CKCGICM@?$AAf?$AA?3?$AA?2?$AAd?$AAd?$AA?2?$AAv?$AAc?$AAt?$AAo?$AAo?$AAl?$AAs?$AA?2?$AAc?$AAr?$AAt?$AA?2?$AAc?$AAr?$AAt?$AAw?$AA3?$AA2?$AA?2?$AAs?$AAt?$AAd?$AAi?$AAo?$AA?2?$AAv@ 005573e8     LIBCMTD:vsnprint.obj
 0003:0001844c       ??_C@_1BK@FHMHFMNL@?$AA_?$AAv?$AAs?$AAn?$AAp?$AAr?$AAi?$AAn?$AAt?$AAf?$AA_?$AAl?$AA?$AA@ 0055744c     LIBCMTD:vsnprint.obj
 0003:0001846c       __FPinit                   0055746c     LIBCMTD:fpinit.obj
 0003:00018470       __OP_FMODjmptab            00557470     LIBCMTD:87fmod.obj
 0003:0001856c       ??_C@_0CJ@LPLBAFNO@f?3?2dd?2vctools?2crt?2crtw32?2startup@ 0055756c     LIBCMTD:mlock.obj
 0003:000185b8       ??_C@_04HJMOFLDF@Free?$AA@ 005575b8     LIBCMTD:dbgheap.obj
 0003:000185c0       ??_C@_06EFAGIKOH@Normal?$AA@ 005575c0     LIBCMTD:dbgheap.obj
 0003:000185c8       ??_C@_03OGPFLFLO@CRT?$AA@  005575c8     LIBCMTD:dbgheap.obj
 0003:000185cc       ??_C@_06KMEJCCGM@Ignore?$AA@ 005575cc     LIBCMTD:dbgheap.obj
 0003:000185d4       ??_C@_06PJIGMIJB@Client?$AA@ 005575d4     LIBCMTD:dbgheap.obj
 0003:000185dc       ??_C@_1CE@LJFEPPMP@?$AA_?$AAC?$AAr?$AAt?$AAC?$AAh?$AAe?$AAc?$AAk?$AAM?$AAe?$AAm?$AAo?$AAr?$AAy?$AA?$CI?$AA?$CJ?$AA?$AA@ 005575dc     LIBCMTD:dbgheap.obj
 0003:00018608       ??_C@_1FA@JKEKCOIC@?$AAf?$AA?3?$AA?2?$AAd?$AAd?$AA?2?$AAv?$AAc?$AAt?$AAo?$AAo?$AAl?$AAs?$AA?2?$AAc?$AAr?$AAt?$AA?2?$AAc?$AAr?$AAt?$AAw?$AA3?$AA2?$AA?2?$AAm?$AAi?$AAs?$AAc?$AA?2?$AAd?$AAb@ 00557608     LIBCMTD:dbgheap.obj
 0003:00018668       ??_C@_0DF@BBEGIFEK@Client?5hook?5allocation?5failure?5a@ 00557668     LIBCMTD:dbgheap.obj
 0003:000186a8       ??_C@_0CB@CCLOLAHO@Client?5hook?5allocation?5failure?4?6@ 005576a8     LIBCMTD:dbgheap.obj
 0003:000186d0       ??_C@_0CF@BICKFLAF@Invalid?5allocation?5size?3?5?$CFIu?5byt@ 005576d0     LIBCMTD:dbgheap.obj
 0003:000186fc       ??_C@_0DC@JEMAGEKG@Error?3?5memory?5allocation?3?5bad?5me@ 005576fc     LIBCMTD:dbgheap.obj
 0003:00018738       ??_C@_0DI@KKJPDPGM@Client?5hook?5re?9allocation?5failur@ 00557738     LIBCMTD:dbgheap.obj
 0003:0001877c       ??_C@_0CE@DOFMDOL@Client?5hook?5re?9allocation?5failur@ 0055777c     LIBCMTD:dbgheap.obj
 0003:000187a8       ??_C@_0ED@GPCPBAGP@Invalid?5allocation?5size?3?5?$CFIu?5byt@ 005577a8     LIBCMTD:dbgheap.obj
 0003:000187f8       ??_C@_0FA@EFEIGJKG@Error?3?5memory?5allocation?3?5bad?5me@ 005577f8     LIBCMTD:dbgheap.obj
 0003:00018858       ??_C@_0EM@LGFLMAGJ@The?5Block?5at?50x?$CFp?5was?5allocated?5@ 00557858     LIBCMTD:dbgheap.obj
 0003:000188b8       ??_C@_1EE@GFOPCECE@?$AA_?$AAC?$AAr?$AAt?$AAI?$AAs?$AAV?$AAa?$AAl?$AAi?$AAd?$AAH?$AAe?$AAa?$AAp?$AAP?$AAo?$AAi?$AAn?$AAt?$AAe?$AAr?$AA?$CI?$AAp?$AAU?$AAs?$AAe?$AAr?$AAD?$AAa?$AAt?$AAa@ 005578b8     LIBCMTD:dbgheap.obj
 0003:00018910       ??_C@_1IK@DCPKDGNH@?$AAp?$AAO?$AAl?$AAd?$AAB?$AAl?$AAo?$AAc?$AAk?$AA?9?$AA?$DO?$AAn?$AAL?$AAi?$AAn?$AAe?$AA?5?$AA?$DN?$AA?$DN?$AA?5?$AAI?$AAG?$AAN?$AAO?$AAR?$AAE?$AA_?$AAL?$AAI?$AAN?$AAE?$AA?5@ 00557910     LIBCMTD:dbgheap.obj
 0003:000189b8       ??_C@_0DA@HFBKENN@Error?3?5possible?5heap?5corruption?5@ 005579b8     LIBCMTD:dbgheap.obj
 0003:000189f8       ??_C@_1GE@PCKLOLAO@?$AAf?$AAR?$AAe?$AAa?$AAl?$AAl?$AAo?$AAc?$AA?5?$AA?$HM?$AA?$HM?$AA?5?$AA?$CI?$AA?$CB?$AAf?$AAR?$AAe?$AAa?$AAl?$AAl?$AAo?$AAc?$AA?5?$AA?$CG?$AA?$CG?$AA?5?$AAp?$AAN?$AAe?$AAw?$AAB?$AAl@ 005579f8     LIBCMTD:dbgheap.obj
 0003:00018a70       ??_C@_1DC@GEFKNOOL@?$AA_?$AAp?$AAL?$AAa?$AAs?$AAt?$AAB?$AAl?$AAo?$AAc?$AAk?$AA?5?$AA?$DN?$AA?$DN?$AA?5?$AAp?$AAO?$AAl?$AAd?$AAB?$AAl?$AAo?$AAc?$AAk?$AA?$AA@ 00557a70     LIBCMTD:dbgheap.obj
 0003:00018aac       ??_C@_1DE@KOOKLFBB@?$AA_?$AAp?$AAF?$AAi?$AAr?$AAs?$AAt?$AAB?$AAl?$AAo?$AAc?$AAk?$AA?5?$AA?$DN?$AA?$DN?$AA?5?$AAp?$AAO?$AAl?$AAd?$AAB?$AAl?$AAo?$AAc?$AAk?$AA?$AA@ 00557aac     LIBCMTD:dbgheap.obj
 0003:00018aec       ??_C@_1CE@CJACEFBA@?$AAp?$AAU?$AAs?$AAe?$AAr?$AAD?$AAa?$AAt?$AAa?$AA?5?$AA?$CB?$AA?$DN?$AA?5?$AAN?$AAU?$AAL?$AAL?$AA?$AA@ 00557aec     LIBCMTD:dbgheap.obj
 0003:00018b18       ??_C@_1BI@HAPNGHDP@?$AA_?$AAe?$AAx?$AAp?$AAa?$AAn?$AAd?$AA_?$AAd?$AAb?$AAg?$AA?$AA@ 00557b18     LIBCMTD:dbgheap.obj
 0003:00018b38       ??_C@_0EJ@HEIBCIMJ@The?5Block?5at?50x?$CFp?5was?5allocated?5@ 00557b38     LIBCMTD:dbgheap.obj
 0003:00018b90       ??_C@_0BL@KEIPLFAC@Client?5hook?5free?5failure?4?6?$AA@ 00557b90     LIBCMTD:dbgheap.obj
 0003:00018bb0       ??_C@_1EO@LHDAJOCM@?$AA_?$AAB?$AAL?$AAO?$AAC?$AAK?$AA_?$AAT?$AAY?$AAP?$AAE?$AA_?$AAI?$AAS?$AA_?$AAV?$AAA?$AAL?$AAI?$AAD?$AA?$CI?$AAp?$AAH?$AAe?$AAa?$AAd?$AA?9?$AA?$DO?$AAn?$AAB?$AAl?$AAo@ 00557bb0     LIBCMTD:dbgheap.obj
 0003:00018c10       ??_C@_0KI@JGFOHMEB@HEAP?5CORRUPTION?5DETECTED?3?5before@ 00557c10     LIBCMTD:dbgheap.obj
 0003:00018ce0       ??_C@_0IK@PJCGLBOB@HEAP?5CORRUPTION?5DETECTED?3?5before@ 00557ce0     LIBCMTD:dbgheap.obj
 0003:00018d88       ??_C@_0KE@MBMNHHHN@HEAP?5CORRUPTION?5DETECTED?3?5after?5@ 00557d88     LIBCMTD:dbgheap.obj
 0003:00018e50       ??_C@_0IG@LEMBDCJK@HEAP?5CORRUPTION?5DETECTED?3?5after?5@ 00557e50     LIBCMTD:dbgheap.obj
 0003:00018ef0       ??_C@_1HK@HPCBMDFG@?$AAp?$AAH?$AAe?$AAa?$AAd?$AA?9?$AA?$DO?$AAn?$AAL?$AAi?$AAn?$AAe?$AA?5?$AA?$DN?$AA?$DN?$AA?5?$AAI?$AAG?$AAN?$AAO?$AAR?$AAE?$AA_?$AAL?$AAI?$AAN?$AAE?$AA?5?$AA?$CG?$AA?$CG?$AA?5?$AAp@ 00557ef0     LIBCMTD:dbgheap.obj
 0003:00018f84       ??_C@_1DM@ODCJIDCP@?$AAp?$AAH?$AAe?$AAa?$AAd?$AA?9?$AA?$DO?$AAn?$AAB?$AAl?$AAo?$AAc?$AAk?$AAU?$AAs?$AAe?$AA?5?$AA?$DN?$AA?$DN?$AA?5?$AAn?$AAB?$AAl?$AAo?$AAc?$AAk?$AAU?$AAs?$AAe?$AA?$AA@ 00557f84     LIBCMTD:dbgheap.obj
 0003:00018fcc       ??_C@_1CK@DMAGEMBG@?$AA_?$AAp?$AAL?$AAa?$AAs?$AAt?$AAB?$AAl?$AAo?$AAc?$AAk?$AA?5?$AA?$DN?$AA?$DN?$AA?5?$AAp?$AAH?$AAe?$AAa?$AAd?$AA?$AA@ 00557fcc     LIBCMTD:dbgheap.obj
 0003:00019000       ??_C@_1CM@MMAADDMD@?$AA_?$AAp?$AAF?$AAi?$AAr?$AAs?$AAt?$AAB?$AAl?$AAo?$AAc?$AAk?$AA?5?$AA?$DN?$AA?$DN?$AA?5?$AAp?$AAH?$AAe?$AAa?$AAd?$AA?$AA@ 00558000     LIBCMTD:dbgheap.obj
 0003:00019034       ??_C@_1BG@MBKOGDLD@?$AA_?$AAm?$AAs?$AAi?$AAz?$AAe?$AA_?$AAd?$AAb?$AAg?$AA?$AA@ 00558034     LIBCMTD:dbgheap.obj
 0003:00019050       ??_C@_0CE@MKKHMBMK@_heapchk?5fails?5with?5_HEAPBADBEGI@ 00558050     LIBCMTD:dbgheap.obj
 0003:0001907c       ??_C@_0CD@CPKEAPBD@_heapchk?5fails?5with?5_HEAPBADNODE@ 0055807c     LIBCMTD:dbgheap.obj
 0003:000190a8       ??_C@_0CC@MJGLGBDG@_heapchk?5fails?5with?5_HEAPBADEND?4@ 005580a8     LIBCMTD:dbgheap.obj
 0003:000190d0       ??_C@_0CC@MFFCHFHO@_heapchk?5fails?5with?5_HEAPBADPTR?4@ 005580d0     LIBCMTD:dbgheap.obj
 0003:000190f8       ??_C@_0CL@HNNNMKMJ@_heapchk?5fails?5with?5unknown?5retu@ 005580f8     LIBCMTD:dbgheap.obj
 0003:0001912c       ??_C@_07OHKEFPKJ@DAMAGED?$AA@ 0055812c     LIBCMTD:dbgheap.obj
 0003:00019138       ??_C@_0KA@IHNJJKPL@HEAP?5CORRUPTION?5DETECTED?3?5on?5top@ 00558138     LIBCMTD:dbgheap.obj
 0003:000191f8       ??_C@_0IC@BBJIOOJH@HEAP?5CORRUPTION?5DETECTED?3?5on?5top@ 005581f8     LIBCMTD:dbgheap.obj
 0003:00019298       ??_C@_0EG@DGJMPDBH@?$CFhs?5located?5at?50x?$CFp?5is?5?$CFIu?5bytes@ 00558298     LIBCMTD:dbgheap.obj
 0003:000192ec       ??_C@_0CI@JMLBEDHJ@?$CFhs?5located?5at?50x?$CFp?5is?5?$CFIu?5bytes@ 005582ec     LIBCMTD:dbgheap.obj
 0003:00019320       ??_C@_1BHO@NNANJNF@?$AA?$CI?$AAf?$AAN?$AAe?$AAw?$AAB?$AAi?$AAt?$AAs?$AA?$DN?$AA?$DN?$AA_?$AAC?$AAR?$AAT?$AAD?$AAB?$AAG?$AA_?$AAR?$AAE?$AAP?$AAO?$AAR?$AAT?$AA_?$AAF?$AAL?$AAA?$AAG?$AA?$CJ?$AA?5@ 00558320     LIBCMTD:dbgheap.obj
 0003:000194ec       ??_C@_1BO@GJFDNMNF@?$AA_?$AAC?$AAr?$AAt?$AAS?$AAe?$AAt?$AAD?$AAb?$AAg?$AAF?$AAl?$AAa?$AAg?$AA?$AA@ 005584ec     LIBCMTD:dbgheap.obj
 0003:00019510       ??_C@_1BI@CJGCEEDL@?$AAp?$AAf?$AAn?$AA?5?$AA?$CB?$AA?$DN?$AA?5?$AAN?$AAU?$AAL?$AAL?$AA?$AA@ 00558510     LIBCMTD:dbgheap.obj
 0003:0001952c       ??_C@_1DE@GJCKCKEC@?$AA_?$AAC?$AAr?$AAt?$AAD?$AAo?$AAF?$AAo?$AAr?$AAA?$AAl?$AAl?$AAC?$AAl?$AAi?$AAe?$AAn?$AAt?$AAO?$AAb?$AAj?$AAe?$AAc?$AAt?$AAs?$AA?$AA@ 0055852c     LIBCMTD:dbgheap.obj
 0003:0001956c       ??_C@_1BM@MIMANDHC@?$AAs?$AAt?$AAa?$AAt?$AAe?$AA?5?$AA?$CB?$AA?$DN?$AA?5?$AAN?$AAU?$AAL?$AAL?$AA?$AA@ 0055856c     LIBCMTD:dbgheap.obj
 0003:00019590       ??_C@_1CE@NJJKELF@?$AA_?$AAC?$AAr?$AAt?$AAM?$AAe?$AAm?$AAC?$AAh?$AAe?$AAc?$AAk?$AAp?$AAo?$AAi?$AAn?$AAt?$AA?$AA@ 00558590     LIBCMTD:dbgheap.obj
 0003:000195bc       ??_C@_0DP@LEFMFBOD@Bad?5memory?5block?5found?5at?50x?$CFp?4?6@ 005585bc     LIBCMTD:dbgheap.obj
 0003:00019608       ??_C@_0CB@EAAIGELO@Bad?5memory?5block?5found?5at?50x?$CFp?4?6@ 00558608     LIBCMTD:dbgheap.obj
 0003:00019630       ??_C@_1CE@PDIENACM@?$AA_?$AAC?$AAr?$AAt?$AAM?$AAe?$AAm?$AAD?$AAi?$AAf?$AAf?$AAe?$AAr?$AAe?$AAn?$AAc?$AAe?$AA?$AA@ 00558630     LIBCMTD:dbgheap.obj
 0003:0001965c       ??_C@_1CC@DHPFEMMN@?$AAo?$AAl?$AAd?$AAS?$AAt?$AAa?$AAt?$AAe?$AA?5?$AA?$CB?$AA?$DN?$AA?5?$AAN?$AAU?$AAL?$AAL?$AA?$AA@ 0055865c     LIBCMTD:dbgheap.obj
 0003:00019684       ??_C@_1CC@DFPEDFBP@?$AAn?$AAe?$AAw?$AAS?$AAt?$AAa?$AAt?$AAe?$AA?5?$AA?$CB?$AA?$DN?$AA?5?$AAN?$AAU?$AAL?$AAL?$AA?$AA@ 00558684     LIBCMTD:dbgheap.obj
 0003:000196ac       ??_C@_05MKKEDADM@?$CF?42X?5?$AA@ 005586ac     LIBCMTD:dbgheap.obj
 0003:000196b4       ??_C@_1CG@LPFIACGM@?$AA_?$AAp?$AAr?$AAi?$AAn?$AAt?$AAM?$AAe?$AAm?$AAB?$AAl?$AAo?$AAc?$AAk?$AAD?$AAa?$AAt?$AAa?$AA?$AA@ 005586b4     LIBCMTD:dbgheap.obj
 0003:000196e4       ??_C@_1BI@KALLJECN@?$AA?$CI?$AA?$CK?$AA_?$AAe?$AAr?$AAr?$AAn?$AAo?$AA?$CI?$AA?$CJ?$AA?$CJ?$AA?$AA@ 005586e4     LIBCMTD:dbgheap.obj
 0003:00019700       ??_C@_0BA@HJBKCELP@?5Data?3?5?$DM?$CFs?$DO?5?$CFs?6?$AA@ 00558700     LIBCMTD:dbgheap.obj
 0003:00019714       ??_C@_0BE@KCIPKCIA@Dumping?5objects?5?9?$DO?6?$AA@ 00558714     LIBCMTD:dbgheap.obj
 0003:0001972c       ??_C@_0BE@OIEFNFL@?$CDFile?5Error?$CD?$CI?$CFd?$CJ?5?3?5?$AA@ 0055872c     LIBCMTD:dbgheap.obj
 0003:00019744       ??_C@_0L@JMEFFCCJ@?$CFhs?$CI?$CFd?$CJ?5?3?5?$AA@ 00558744     LIBCMTD:dbgheap.obj
 0003:00019754       ??_C@_06PKLGBFGM@?$HL?$CFld?$HN?5?$AA@ 00558754     LIBCMTD:dbgheap.obj
 0003:0001975c       ??_C@_0DD@GHNAAKBB@client?5block?5at?50x?$CFp?0?5subtype?5?$CFx@ 0055875c     LIBCMTD:dbgheap.obj
 0003:0001979c       ??_C@_0CH@FAGDDGPN@normal?5block?5at?50x?$CFp?0?5?$CFIu?5bytes?5@ 0055879c     LIBCMTD:dbgheap.obj
 0003:000197cc       ??_C@_0DA@MDLBNIBM@crt?5block?5at?50x?$CFp?0?5subtype?5?$CFx?0?5?$CF@ 005587cc     LIBCMTD:dbgheap.obj
 0003:00019808       ??_C@_0BH@GFGKJDCO@Object?5dump?5complete?4?6?$AA@ 00558808     LIBCMTD:dbgheap.obj
 0003:00019824       ??_C@_0BI@JBFPOEJA@Detected?5memory?5leaks?$CB?6?$AA@ 00558824     LIBCMTD:dbgheap.obj
 0003:00019840       ??_C@_1CM@MPNIBKGK@?$AA_?$AAC?$AAr?$AAt?$AAM?$AAe?$AAm?$AAD?$AAu?$AAm?$AAp?$AAS?$AAt?$AAa?$AAt?$AAi?$AAs?$AAt?$AAi?$AAc?$AAs?$AA?$AA@ 00558840     LIBCMTD:dbgheap.obj
 0003:00019874       ??_C@_0BO@DACNIABB@?$CFId?5bytes?5in?5?$CFId?5?$CFhs?5Blocks?4?6?$AA@ 00558874     LIBCMTD:dbgheap.obj
 0003:00019898       ??_C@_0CB@BLHDAFNE@Largest?5number?5used?3?5?$CFId?5bytes?4?6@ 00558898     LIBCMTD:dbgheap.obj
 0003:000198c0       ??_C@_0BP@DEDHGGGI@Total?5allocations?3?5?$CFId?5bytes?4?6?$AA@ 005588c0     LIBCMTD:dbgheap.obj
 0003:000198e8       ??_C@_1CE@NPMGPNNP@?$AAI?$AAS?$AA_?$AA2?$AA_?$AAP?$AAO?$AAW?$AA_?$AAN?$AA?$CI?$AAa?$AAl?$AAi?$AAg?$AAn?$AA?$CJ?$AA?$AA@ 005588e8     LIBCMTD:dbgheap.obj
 0003:00019914       ??_C@_1DG@DONCJBBJ@?$AA_?$AAa?$AAl?$AAi?$AAg?$AAn?$AAe?$AAd?$AA_?$AAo?$AAf?$AAf?$AAs?$AAe?$AAt?$AA_?$AAm?$AAa?$AAl?$AAl?$AAo?$AAc?$AA_?$AAd?$AAb?$AAg?$AA?$AA@ 00558914     LIBCMTD:dbgheap.obj
 0003:00019954       ??_C@_1DK@LFLKFPDA@?$AAo?$AAf?$AAf?$AAs?$AAe?$AAt?$AA?5?$AA?$DN?$AA?$DN?$AA?5?$AA0?$AA?5?$AA?$HM?$AA?$HM?$AA?5?$AAo?$AAf?$AAf?$AAs?$AAe?$AAt?$AA?5?$AA?$DM?$AA?5?$AAs?$AAi?$AAz?$AAe?$AA?$AA@ 00558954     LIBCMTD:dbgheap.obj
 0003:000199a0       ??_C@_0EI@NDNJMAJK@The?5block?5at?50x?$CFp?5was?5not?5alloca@ 005589a0     LIBCMTD:dbgheap.obj
 0003:000199f8       ??_C@_0DL@PGHMMKNE@Damage?5before?50x?$CFp?5which?5was?5all@ 005589f8     LIBCMTD:dbgheap.obj
 0003:00019a40       ??_C@_1DI@NINIKFFK@?$AA_?$AAa?$AAl?$AAi?$AAg?$AAn?$AAe?$AAd?$AA_?$AAo?$AAf?$AAf?$AAs?$AAe?$AAt?$AA_?$AAr?$AAe?$AAa?$AAl?$AAl?$AAo?$AAc?$AA_?$AAd?$AAb?$AAg?$AA?$AA@ 00558a40     LIBCMTD:dbgheap.obj
 0003:00019a88       ??_C@_0EF@PGELACII@The?5block?5at?50x?$CFp?5was?5not?5alloca@ 00558a88     LIBCMTD:dbgheap.obj
 0003:00019adc       ??_C@_1CC@MOBIKHH@?$AAm?$AAe?$AAm?$AAb?$AAl?$AAo?$AAc?$AAk?$AA?5?$AA?$CB?$AA?$DN?$AA?5?$AAN?$AAU?$AAL?$AAL?$AA?$AA@ 00558adc     LIBCMTD:dbgheap.obj
 0003:00019b04       ??_C@_1CG@CEGMHIMN@?$AA_?$AAa?$AAl?$AAi?$AAg?$AAn?$AAe?$AAd?$AA_?$AAm?$AAs?$AAi?$AAz?$AAe?$AA_?$AAd?$AAb?$AAg?$AA?$AA@ 00558b04     LIBCMTD:dbgheap.obj
 0003:00019b34       ??_C@_1BI@BGOHAHKC@?$AAm?$AAs?$AAc?$AAo?$AAr?$AAe?$AAe?$AA?4?$AAd?$AAl?$AAl?$AA?$AA@ 00558b34     LIBCMTD:crt0dat.obj
 0003:00019b50       ??_C@_0P@MIGLKIOC@CorExitProcess?$AA@ 00558b50     LIBCMTD:crt0dat.obj
 0003:00019b64       ??_C@_1BO@LKEBEKJP@?$AAp?$AAV?$AAa?$AAl?$AAu?$AAe?$AA?5?$AA?$CB?$AA?$DN?$AA?5?$AAN?$AAU?$AAL?$AAL?$AA?$AA@ 00558b64     LIBCMTD:crt0dat.obj
 0003:00019b88       ??_C@_1FG@MHCBBJEK@?$AAf?$AA?3?$AA?2?$AAd?$AAd?$AA?2?$AAv?$AAc?$AAt?$AAo?$AAo?$AAl?$AAs?$AA?2?$AAc?$AAr?$AAt?$AA?2?$AAc?$AAr?$AAt?$AAw?$AA3?$AA2?$AA?2?$AAs?$AAt?$AAa?$AAr?$AAt?$AAu?$AAp@ 00558b88     LIBCMTD:crt0dat.obj
 0003:00019bf0       ??_C@_1BK@PNLDCCDP@?$AA_?$AAg?$AAe?$AAt?$AA_?$AAw?$AAp?$AAg?$AAm?$AAp?$AAt?$AAr?$AA?$AA@ 00558bf0     LIBCMTD:crt0dat.obj
 0003:00019c10       ??_C@_1CC@CDIPMFPD@?$AA_?$AAw?$AAp?$AAg?$AAm?$AAp?$AAt?$AAr?$AA?5?$AA?$CB?$AA?$DN?$AA?5?$AAN?$AAU?$AAL?$AAL?$AA?$AA@ 00558c10     LIBCMTD:crt0dat.obj
 0003:00019c38       ??_C@_1BI@COAAPHJK@?$AA_?$AAg?$AAe?$AAt?$AA_?$AAp?$AAg?$AAm?$AAp?$AAt?$AAr?$AA?$AA@ 00558c38     LIBCMTD:crt0dat.obj
 0003:00019c54       ??_C@_1CA@BBNAFCKO@?$AA_?$AAp?$AAg?$AAm?$AAp?$AAt?$AAr?$AA?5?$AA?$CB?$AA?$DN?$AA?5?$AAN?$AAU?$AAL?$AAL?$AA?$AA@ 00558c54     LIBCMTD:crt0dat.obj
 0003:00019c7c       ??_C@_1BK@DJNILIMN@?$AAp?$AAa?$AAt?$AAh?$AA?5?$AA?$CB?$AA?$DN?$AA?5?$AAN?$AAU?$AAL?$AAL?$AA?$AA@ 00558c7c     LIBCMTD:crt0dat.obj
 0003:00019c9c       ??_C@_1DG@KANBJOCK@?$AA_?$AA_?$AAc?$AAo?$AAp?$AAy?$AA_?$AAp?$AAa?$AAt?$AAh?$AA_?$AAt?$AAo?$AA_?$AAw?$AAi?$AAd?$AAe?$AA_?$AAs?$AAt?$AAr?$AAi?$AAn?$AAg?$AA?$AA@ 00558c9c     LIBCMTD:crt0dat.obj
 0003:00019cdc       ??_C@_1CA@BGODLPHH@?$AAo?$AAu?$AAt?$AAP?$AAa?$AAt?$AAh?$AA?5?$AA?$CB?$AA?$DN?$AA?5?$AAN?$AAU?$AAL?$AAL?$AA?$AA@ 00558cdc     LIBCMTD:crt0dat.obj
 0003:00019d04       ??_C@_0CL@LMMOJFEN@f?3?2dd?2vctools?2crt?2crtw32?2startup@ 00558d04     LIBCMTD:crt0dat.obj
 0003:00019d38       ??_C@_1CC@NLGECIOD@?$AAi?$AAn?$AAS?$AAt?$AAr?$AAi?$AAn?$AAg?$AA?5?$AA?$CB?$AA?$DN?$AA?5?$AAN?$AAU?$AAL?$AAL?$AA?$AA@ 00558d38     LIBCMTD:crt0dat.obj
 0003:00019d60       ??_C@_1BO@PNPLHAEP@?$AA_?$AA_?$AAc?$AAo?$AAp?$AAy?$AA_?$AAt?$AAo?$AA_?$AAc?$AAh?$AAa?$AAr?$AA?$AA@ 00558d60     LIBCMTD:crt0dat.obj
 0003:00019d84       ??_C@_1CE@HIPDKGHC@?$AAo?$AAu?$AAt?$AAS?$AAt?$AAr?$AAi?$AAn?$AAg?$AA?5?$AA?$CB?$AA?$DN?$AA?5?$AAN?$AAU?$AAL?$AAL?$AA?$AA@ 00558d84     LIBCMTD:crt0dat.obj
 0003:00019db0       ??_C@_1BI@MFCLPIBM@?$AAs?$AAt?$AAr?$AA?5?$AA?$CB?$AA?$DN?$AA?5?$AAN?$AAU?$AAL?$AAL?$AA?$AA@ 00558db0     LIBCMTD:_filbuf.obj
 0003:00019dd0       ??_C@_1FC@KLDIFLFI@?$AAf?$AA?3?$AA?2?$AAd?$AAd?$AA?2?$AAv?$AAc?$AAt?$AAo?$AAo?$AAl?$AAs?$AA?2?$AAc?$AAr?$AAt?$AA?2?$AAc?$AAr?$AAt?$AAw?$AA3?$AA2?$AA?2?$AAs?$AAt?$AAd?$AAi?$AAo?$AA?2?$AA_@ 00558dd0     LIBCMTD:_filbuf.obj
 0003:00019e34       ??_C@_1BA@IIKEPOGH@?$AA_?$AAf?$AAi?$AAl?$AAb?$AAu?$AAf?$AA?$AA@ 00558e34     LIBCMTD:_filbuf.obj
 0003:00019e48       ??_C@_1CC@FADMNIL@?$AA?$CI?$AAs?$AAt?$AAr?$AAe?$AAa?$AAm?$AA?5?$AA?$CB?$AA?$DN?$AA?5?$AAN?$AAU?$AAL?$AAL?$AA?$CJ?$AA?$AA@ 00558e48     LIBCMTD:fileno.obj
 0003:00019e70       ??_C@_1FA@CKEACION@?$AAf?$AA?3?$AA?2?$AAd?$AAd?$AA?2?$AAv?$AAc?$AAt?$AAo?$AAo?$AAl?$AAs?$AA?2?$AAc?$AAr?$AAt?$AA?2?$AAc?$AAr?$AAt?$AAw?$AA3?$AA2?$AA?2?$AAs?$AAt?$AAd?$AAi?$AAo?$AA?2?$AAf@ 00558e70     LIBCMTD:fileno.obj
 0003:00019ed0       ??_C@_1BA@JGHIEKKM@?$AA_?$AAf?$AAi?$AAl?$AAe?$AAn?$AAo?$AA?$AA@ 00558ed0     LIBCMTD:fileno.obj
 0003:00019ef4       ??_C@_1BA@GLMCNLEM@?$AAW?$AAa?$AAr?$AAn?$AAi?$AAn?$AAg?$AA?$AA@ 00558ef4     LIBCMTD:dbgrptw.obj
 0003:00019f08       ??_C@_1M@ILHOPKA@?$AAE?$AAr?$AAr?$AAo?$AAr?$AA?$AA@ 00558f08     LIBCMTD:dbgrptw.obj
 0003:00019f18       ??_C@_1CC@CGHMNGDG@?$AAA?$AAs?$AAs?$AAe?$AAr?$AAt?$AAi?$AAo?$AAn?$AA?5?$AAF?$AAa?$AAi?$AAl?$AAe?$AAd?$AA?$AA@ 00558f18     LIBCMTD:dbgrptw.obj
 0003:00019f40       ??_C@_1HI@OFEHGPPC@?$AAm?$AAo?$AAd?$AAe?$AA?5?$AA?$DN?$AA?$DN?$AA?5?$AA_?$AAC?$AAR?$AAT?$AA_?$AAR?$AAP?$AAT?$AAH?$AAO?$AAO?$AAK?$AA_?$AAI?$AAN?$AAS?$AAT?$AAA?$AAL?$AAL?$AA?5?$AA?$HM?$AA?$HM?$AA?5@ 00558f40     LIBCMTD:dbgrptw.obj
 0003:00019fd0       ??_C@_1EO@JACJHHCK@?$AAf?$AA?3?$AA?2?$AAd?$AAd?$AA?2?$AAv?$AAc?$AAt?$AAo?$AAo?$AAl?$AAs?$AA?2?$AAc?$AAr?$AAt?$AA?2?$AAc?$AAr?$AAt?$AAw?$AA3?$AA2?$AA?2?$AAm?$AAi?$AAs?$AAc?$AA?2?$AAd?$AAb@ 00558fd0     LIBCMTD:dbgrptw.obj
 0003:0001a030       ??_C@_1CI@IIHEAKEI@?$AA_?$AAC?$AAr?$AAt?$AAS?$AAe?$AAt?$AAR?$AAe?$AAp?$AAo?$AAr?$AAt?$AAH?$AAo?$AAo?$AAk?$AAW?$AA2?$AA?$AA@ 00559030     LIBCMTD:dbgrptw.obj
 0003:0001a060       ??_C@_1CG@JBJEFOCM@?$AAp?$AAf?$AAn?$AAN?$AAe?$AAw?$AAH?$AAo?$AAo?$AAk?$AA?5?$AA?$CB?$AA?$DN?$AA?5?$AAN?$AAU?$AAL?$AAL?$AA?$AA@ 00559060     LIBCMTD:dbgrptw.obj
 0003:0001a090       ??_C@_1FI@PHIAFFHM@?$AA?$CI?$AA?$CC?$AAT?$AAh?$AAe?$AA?5?$AAh?$AAo?$AAo?$AAk?$AA?5?$AAf?$AAu?$AAn?$AAc?$AAt?$AAi?$AAo?$AAn?$AA?5?$AAi?$AAs?$AA?5?$AAn?$AAo?$AAt?$AA?5?$AAi?$AAn?$AA?5?$AAt?$AAh@ 00559090     LIBCMTD:dbgrptw.obj
 0003:0001a0fc       ??_C@_0CH@BBGAHGHC@f?3?2dd?2vctools?2crt?2crtw32?2misc?2db@ 005590fc     LIBCMTD:dbgrptw.obj
 0003:0001a12c       ??_C@_1CI@PGJIFDEK@?$AA_?$AA_?$AAc?$AAr?$AAt?$AAM?$AAe?$AAs?$AAs?$AAa?$AAg?$AAe?$AAW?$AAi?$AAn?$AAd?$AAo?$AAw?$AAW?$AA?$AA@ 0055912c     LIBCMTD:dbgrptw.obj
 0003:0001a160       ??_C@_1GI@DEDNNLCI@?$AAw?$AAc?$AAs?$AAc?$AAp?$AAy?$AA_?$AAs?$AA?$CI?$AAs?$AAz?$AAE?$AAx?$AAe?$AAN?$AAa?$AAm?$AAe?$AA?0?$AA?5?$AA2?$AA6?$AA0?$AA?0?$AA?5?$AAL?$AA?$CC?$AA?$DM?$AAp?$AAr?$AAo?$AAg@ 00559160     LIBCMTD:dbgrptw.obj
 0003:0001a1e0       ??_C@_1NO@LECLLHOL@?$AAm?$AAe?$AAm?$AAc?$AAp?$AAy?$AA_?$AAs?$AA?$CI?$AAs?$AAz?$AAS?$AAh?$AAo?$AAr?$AAt?$AAP?$AAr?$AAo?$AAg?$AAN?$AAa?$AAm?$AAe?$AA?0?$AA?5?$AAs?$AAi?$AAz?$AAe?$AAo?$AAf@ 005591e0     LIBCMTD:dbgrptw.obj
 0003:0001a2f0       ??_C@_1OG@PMPPFHAF@?$AA?6?$AA?6?$AAF?$AAo?$AAr?$AA?5?$AAi?$AAn?$AAf?$AAo?$AAr?$AAm?$AAa?$AAt?$AAi?$AAo?$AAn?$AA?5?$AAo?$AAn?$AA?5?$AAh?$AAo?$AAw?$AA?5?$AAy?$AAo?$AAu?$AAr?$AA?5?$AAp?$AAr@ 005592f0     LIBCMTD:dbgrptw.obj
 0003:0001a404       ??_C@_11LOCGONAA@?$AA?$AA@ 00559404     LIBCMTD:dbgrptw.obj
 0003:0001a408       ??_C@_1BA@GLLGCPCK@?$AA?6?$AAL?$AAi?$AAn?$AAe?$AA?3?$AA?5?$AA?$AA@ 00559408     LIBCMTD:dbgrptw.obj
 0003:0001a41c       ??_C@_1BA@LNHECFIM@?$AA?6?$AAF?$AAi?$AAl?$AAe?$AA?3?$AA?5?$AA?$AA@ 0055941c     LIBCMTD:dbgrptw.obj
 0003:0001a430       ??_C@_1BE@CGCJKGHI@?$AA?6?$AAM?$AAo?$AAd?$AAu?$AAl?$AAe?$AA?3?$AA?5?$AA?$AA@ 00559430     LIBCMTD:dbgrptw.obj
 0003:0001a448       ??_C@_1KM@HNMIBKJH@?$AAD?$AAe?$AAb?$AAu?$AAg?$AA?5?$AA?$CF?$AAs?$AA?$CB?$AA?6?$AA?6?$AAP?$AAr?$AAo?$AAg?$AAr?$AAa?$AAm?$AA?3?$AA?5?$AA?$CF?$AAs?$AA?$CF?$AAs?$AA?$CF?$AAs?$AA?$CF?$AAs?$AA?$CF?$AAs?$AA?$CF?$AAs@ 00559448     LIBCMTD:dbgrptw.obj
 0003:0001a518       ??_C@_1JI@EACPGHID@?$AAw?$AAc?$AAs?$AAc?$AAp?$AAy?$AA_?$AAs?$AA?$CI?$AAs?$AAz?$AAO?$AAu?$AAt?$AAM?$AAe?$AAs?$AAs?$AAa?$AAg?$AAe?$AA?0?$AA?5?$AA4?$AA0?$AA9?$AA6?$AA?0?$AA?5?$AAL?$AA?$CC?$AA_@ 00559518     LIBCMTD:dbgrptw.obj
 0003:0001a5d0       ??_C@_1FG@BBOLDHGF@?$AA_?$AAC?$AAr?$AAt?$AAD?$AAb?$AAg?$AAR?$AAe?$AAp?$AAo?$AAr?$AAt?$AA?3?$AA?5?$AAS?$AAt?$AAr?$AAi?$AAn?$AAg?$AA?5?$AAt?$AAo?$AAo?$AA?5?$AAl?$AAo?$AAn?$AAg?$AA?5?$AAo@ 005595d0     LIBCMTD:dbgrptw.obj
 0003:0001a638       ??_C@_1EM@IOHICOCC@?$AAf?$AA?3?$AA?2?$AAd?$AAd?$AA?2?$AAv?$AAc?$AAt?$AAo?$AAo?$AAl?$AAs?$AA?2?$AAc?$AAr?$AAt?$AA?2?$AAc?$AAr?$AAt?$AAw?$AA3?$AA2?$AA?2?$AAd?$AAo?$AAs?$AA?2?$AAd?$AAo?$AAs@ 00559638     LIBCMTD:dosmap.obj
 0003:0001a694       ??_C@_1BG@KCMPBBDK@?$AA_?$AAg?$AAe?$AAt?$AA_?$AAe?$AAr?$AAr?$AAn?$AAo?$AA?$AA@ 00559694     LIBCMTD:dosmap.obj
 0003:0001a6b0       ??_C@_1BM@INIPHHDD@?$AA_?$AAg?$AAe?$AAt?$AA_?$AAd?$AAo?$AAs?$AAe?$AAr?$AAr?$AAn?$AAo?$AA?$AA@ 005596b0     LIBCMTD:dosmap.obj
 0003:0001a6d4       ??_C@_0CI@BIOGDJKL@f?3?2dd?2vctools?2crt?2crtw32?2lowio?2i@ 005596d4     LIBCMTD:ioinit.obj
 0003:0001a708       ??_C@_1FC@LLDAFLML@?$AAf?$AA?3?$AA?2?$AAd?$AAd?$AA?2?$AAv?$AAc?$AAt?$AAo?$AAo?$AAl?$AAs?$AA?2?$AAc?$AAr?$AAt?$AA?2?$AAc?$AAr?$AAt?$AAw?$AA3?$AA2?$AA?2?$AAs?$AAt?$AAd?$AAi?$AAo?$AA?2?$AAv@ 00559708     LIBCMTD:vprintf.obj
 0003:0001a76c       ??_C@_1BO@JGFPDJCP@?$AAv?$AAp?$AAr?$AAi?$AAn?$AAt?$AAf?$AA_?$AAh?$AAe?$AAl?$AAp?$AAe?$AAr?$AA?$AA@ 0055976c     LIBCMTD:vprintf.obj
 0003:0001a790       ??_C@_1FC@LKGACDMH@?$AAf?$AA?3?$AA?2?$AAd?$AAd?$AA?2?$AAv?$AAc?$AAt?$AAo?$AAo?$AAl?$AAs?$AA?2?$AAc?$AAr?$AAt?$AA?2?$AAc?$AAr?$AAt?$AAw?$AA3?$AA2?$AA?2?$AAs?$AAt?$AAd?$AAi?$AAo?$AA?2?$AA_@ 00559790     LIBCMTD:_sftbuf.obj
 0003:0001a7f4       ??_C@_0CJ@KDJGPIJL@f?3?2dd?2vctools?2crt?2crtw32?2stdio?2_@ 005597f4     LIBCMTD:_sftbuf.obj
 0003:0001a828       ??_C@_1CO@KCKAACMI@?$AAf?$AAl?$AAa?$AAg?$AA?5?$AA?$DN?$AA?$DN?$AA?5?$AA0?$AA?5?$AA?$HM?$AA?$HM?$AA?5?$AAf?$AAl?$AAa?$AAg?$AA?5?$AA?$DN?$AA?$DN?$AA?5?$AA1?$AA?$AA@ 00559828     LIBCMTD:_sftbuf.obj
 0003:0001a860       ??_C@_06OJHGLDPL@?$CInull?$CJ?$AA@ 00559860     LIBCMTD:output.obj
 0003:0001a868       ??_C@_1O@CEDCILHN@?$AA?$CI?$AAn?$AAu?$AAl?$AAl?$AA?$CJ?$AA?$AA@ 00559868     LIBCMTD:output.obj
 0003:0001a878       ___lookuptable             00559878     LIBCMTD:output.obj
 0003:0001a8e8       ??_C@_1FA@KMIJDCIC@?$AAf?$AA?3?$AA?2?$AAd?$AAd?$AA?2?$AAv?$AAc?$AAt?$AAo?$AAo?$AAl?$AAs?$AA?2?$AAc?$AAr?$AAt?$AA?2?$AAc?$AAr?$AAt?$AAw?$AA3?$AA2?$AA?2?$AAs?$AAt?$AAd?$AAi?$AAo?$AA?2?$AAo@ 005598e8     LIBCMTD:output.obj
 0003:0001a948       ??_C@_1BE@IONLIDNC@?$AA_?$AAo?$AAu?$AAt?$AAp?$AAu?$AAt?$AA_?$AAl?$AA?$AA@ 00559948     LIBCMTD:output.obj
 0003:0001a960       ??_C@_1CC@IFFHEMNF@?$AA?$CI?$AAc?$AAh?$AA?5?$AA?$CB?$AA?$DN?$AA?5?$AA_?$AAT?$AA?$CI?$AA?8?$AA?2?$AA0?$AA?8?$AA?$CJ?$AA?$CJ?$AA?$AA@ 00559960     LIBCMTD:output.obj
 0003:0001a988       ??_C@_1EK@PNGFDECN@?$AA?$CI?$AA?$CC?$AA?8?$AAn?$AA?8?$AA?5?$AAf?$AAo?$AAr?$AAm?$AAa?$AAt?$AA?5?$AAs?$AAp?$AAe?$AAc?$AAi?$AAf?$AAi?$AAe?$AAr?$AA?5?$AAd?$AAi?$AAs?$AAa?$AAb?$AAl?$AAe?$AAd?$AA?$CC@ 00559988     LIBCMTD:output.obj
 0003:0001a9e0       ??_C@_0CI@CMOPBIOD@f?3?2dd?2vctools?2crt?2crtw32?2stdio?2o@ 005599e0     LIBCMTD:output.obj
 0003:0001aa10       ??_C@_1FC@OBEHAONE@?$AAf?$AA?3?$AA?2?$AAd?$AAd?$AA?2?$AAv?$AAc?$AAt?$AAo?$AAo?$AAl?$AAs?$AA?2?$AAc?$AAr?$AAt?$AA?2?$AAc?$AAr?$AAt?$AAw?$AA3?$AA2?$AA?2?$AAs?$AAt?$AAd?$AAi?$AAo?$AA?2?$AA_@ 00559a10     LIBCMTD:_flsbuf.obj
 0003:0001aa78       ??_C@_1HO@MLMGPAFH@?$AA?$CI?$AA?$CC?$AAi?$AAn?$AAc?$AAo?$AAn?$AAs?$AAi?$AAs?$AAt?$AAe?$AAn?$AAt?$AA?5?$AAI?$AAO?$AAB?$AA?5?$AAf?$AAi?$AAe?$AAl?$AAd?$AAs?$AA?$CC?$AA?0?$AA?5?$AAs?$AAt?$AAr?$AAe@ 00559a78     LIBCMTD:_flsbuf.obj
 0003:0001ab10       ??_C@_1FA@OFIKMJFM@?$AAf?$AA?3?$AA?2?$AAd?$AAd?$AA?2?$AAv?$AAc?$AAt?$AAo?$AAo?$AAl?$AAs?$AA?2?$AAc?$AAr?$AAt?$AA?2?$AAc?$AAr?$AAt?$AAw?$AA3?$AA2?$AA?2?$AAs?$AAt?$AAd?$AAi?$AAo?$AA?2?$AAf@ 00559b10     LIBCMTD:fwrite.obj
 0003:0001ab70       ??_C@_1O@KLNKIMAP@?$AAf?$AAw?$AAr?$AAi?$AAt?$AAe?$AA?$AA@ 00559b70     LIBCMTD:fwrite.obj
 0003:0001ab80       ??_C@_1BO@JGPKCBCE@?$AA_?$AAf?$AAw?$AAr?$AAi?$AAt?$AAe?$AA_?$AAn?$AAo?$AAl?$AAo?$AAc?$AAk?$AA?$AA@ 00559b80     LIBCMTD:fwrite.obj
 0003:0001aba4       ??_C@_1CC@CGFEEBMC@?$AA?$CI?$AAb?$AAu?$AAf?$AAf?$AAe?$AAr?$AA?5?$AA?$CB?$AA?$DN?$AA?5?$AAN?$AAU?$AAL?$AAL?$AA?$CJ?$AA?$AA@ 00559ba4     LIBCMTD:fwrite.obj
 0003:0001abcc       ??_C@_1DC@FHEPNAPF@?$AAn?$AAu?$AAm?$AA?5?$AA?$DM?$AA?$DN?$AA?5?$AA?$CI?$AAS?$AAI?$AAZ?$AAE?$AA_?$AAM?$AAA?$AAX?$AA?5?$AA?1?$AA?5?$AAs?$AAi?$AAz?$AAe?$AA?$CJ?$AA?$AA@ 00559bcc     LIBCMTD:fwrite.obj
 0003:0001ac08       ??_C@_1LG@DCNDJCHK@?$AA?$CI?$AA?$CC?$AAI?$AAn?$AAc?$AAo?$AAn?$AAs?$AAi?$AAs?$AAt?$AAe?$AAn?$AAt?$AA?5?$AAS?$AAt?$AAr?$AAe?$AAa?$AAm?$AA?5?$AAC?$AAo?$AAu?$AAn?$AAt?$AA?4?$AA?5?$AAF?$AAl?$AAu@ 00559c08     LIBCMTD:fwrite.obj
 0003:0001ace4       ??_C@_1BI@IGILPKD@?$AA_?$AAv?$AAs?$AAp?$AAr?$AAi?$AAn?$AAt?$AAf?$AA_?$AAl?$AA?$AA@ 00559ce4     LIBCMTD:vsprintf.obj
 0003:0001ad00       ??_C@_1CE@HMKDJHB@?$AA_?$AAv?$AAs?$AAc?$AAp?$AAr?$AAi?$AAn?$AAt?$AAf?$AA_?$AAh?$AAe?$AAl?$AAp?$AAe?$AAr?$AA?$AA@ 00559d00     LIBCMTD:vsprintf.obj
 0003:0001ad2c       ??_C@_1CE@PCFPEIFI@?$AA_?$AAv?$AAs?$AAn?$AAp?$AAr?$AAi?$AAn?$AAt?$AAf?$AA_?$AAh?$AAe?$AAl?$AAp?$AAe?$AAr?$AA?$AA@ 00559d2c     LIBCMTD:vsnprnc.obj
 0003:0001ad58       ??_C@_1BO@MLMCMBKN@?$AAf?$AAo?$AAr?$AAm?$AAa?$AAt?$AA?5?$AA?$CB?$AA?$DN?$AA?5?$AAN?$AAU?$AAL?$AAL?$AA?$AA@ 00559d58     LIBCMTD:vsnprnc.obj
 0003:0001ad7c       ??_C@_1BM@BLJALHEF@?$AA_?$AAv?$AAs?$AAp?$AAr?$AAi?$AAn?$AAt?$AAf?$AA_?$AAs?$AA_?$AAl?$AA?$AA@ 00559d7c     LIBCMTD:vsnprnc.obj
 0003:0001ada0       ??_C@_1EE@OKCKIGFK@?$AAs?$AAt?$AAr?$AAi?$AAn?$AAg?$AA?5?$AA?$CB?$AA?$DN?$AA?5?$AAN?$AAU?$AAL?$AAL?$AA?5?$AA?$CG?$AA?$CG?$AA?5?$AAs?$AAi?$AAz?$AAe?$AAI?$AAn?$AAB?$AAy?$AAt?$AAe?$AAs?$AA?5?$AA?$DO?$AA?5@ 00559da0     LIBCMTD:vsnprnc.obj
 0003:0001adf4       ??_C@_1DA@HPBFKMEB@?$AA?$CI?$AA?$CC?$AAB?$AAu?$AAf?$AAf?$AAe?$AAr?$AA?5?$AAt?$AAo?$AAo?$AA?5?$AAs?$AAm?$AAa?$AAl?$AAl?$AA?$CC?$AA?0?$AA?5?$AA0?$AA?$CJ?$AA?$AA@ 00559df4     LIBCMTD:vsnprnc.obj
 0003:0001ae30       ??_C@_1BO@MMPELNIM@?$AA_?$AAv?$AAs?$AAn?$AAp?$AAr?$AAi?$AAn?$AAt?$AAf?$AA_?$AAs?$AA_?$AAl?$AA?$AA@ 00559e30     LIBCMTD:vsnprnc.obj
 0003:0001ae58       ??_C@_1FE@JDMNKKN@?$AAf?$AA?3?$AA?2?$AAd?$AAd?$AA?2?$AAv?$AAc?$AAt?$AAo?$AAo?$AAl?$AAs?$AA?2?$AAc?$AAr?$AAt?$AA?2?$AAc?$AAr?$AAt?$AAw?$AA3?$AA2?$AA?2?$AAc?$AAo?$AAn?$AAv?$AAe?$AAr?$AAt@ 00559e58     LIBCMTD:strtoq.obj
 0003:0001aebc       ??_C@_1BA@BMMDEPNE@?$AAs?$AAt?$AAr?$AAt?$AAo?$AAx?$AAq?$AA?$AA@ 00559ebc     LIBCMTD:strtoq.obj
 0003:0001aed0       ??_C@_1BJK@FEBNHLFF@?$AA?$CI?$AA?$CI?$AAp?$AAt?$AAl?$AAo?$AAc?$AAi?$AA?9?$AA?$DO?$AAl?$AAc?$AA_?$AAc?$AAa?$AAt?$AAe?$AAg?$AAo?$AAr?$AAy?$AA?$FL?$AAc?$AAa?$AAt?$AAe?$AAg?$AAo?$AAr?$AAy?$AA?$FN?$AA?4@ 00559ed0     LIBCMTD:localref.obj
 0003:0001b0c0       ??_C@_1FC@HINIIGNO@?$AAf?$AA?3?$AA?2?$AAd?$AAd?$AA?2?$AAv?$AAc?$AAt?$AAo?$AAo?$AAl?$AAs?$AA?2?$AAc?$AAr?$AAt?$AA?2?$AAc?$AAr?$AAt?$AAw?$AA3?$AA2?$AA?2?$AAm?$AAi?$AAs?$AAc?$AA?2?$AAl?$AAo@ 0055a0c0     LIBCMTD:localref.obj
 0003:0001b138       ??_C@_1M@HPNHIDJI@?$AAj?$AAa?$AA?9?$AAJ?$AAP?$AA?$AA@ 0055a138     LIBCMTD:mbctype.obj
 0003:0001b148       ??_C@_1M@BIBDDEMK@?$AAz?$AAh?$AA?9?$AAC?$AAN?$AA?$AA@ 0055a148     LIBCMTD:mbctype.obj
 0003:0001b158       ??_C@_1M@JLOOOEGK@?$AAk?$AAo?$AA?9?$AAK?$AAR?$AA?$AA@ 0055a158     LIBCMTD:mbctype.obj
 0003:0001b168       ??_C@_1M@CLNBBOPM@?$AAz?$AAh?$AA?9?$AAT?$AAW?$AA?$AA@ 0055a168     LIBCMTD:mbctype.obj
 0003:0001b178       ??_C@_0CM@BEDCPGGG@f?3?2dd?2vctools?2crt?2crtw32?2mbstrin@ 0055a178     LIBCMTD:mbctype.obj
 0003:0001b1ac       ??_C@_1CI@JELMFMDH@?$AAc?$AA?5?$AA?$DO?$AA?$DN?$AA?5?$AA?9?$AA1?$AA?5?$AA?$CG?$AA?$CG?$AA?5?$AAc?$AA?5?$AA?$DM?$AA?$DN?$AA?5?$AA2?$AA5?$AA5?$AA?$AA@ 0055a1ac     LIBCMTD:isctype.obj
 0003:0001b1e0       ??_C@_1FG@IBFIOCOE@?$AAf?$AA?3?$AA?2?$AAd?$AAd?$AA?2?$AAv?$AAc?$AAt?$AAo?$AAo?$AAl?$AAs?$AA?2?$AAc?$AAr?$AAt?$AA?2?$AAc?$AAr?$AAt?$AAw?$AA3?$AA2?$AA?2?$AAc?$AAo?$AAn?$AAv?$AAe?$AAr?$AAt@ 0055a1e0     LIBCMTD:isctype.obj
 0003:0001b248       ??_C@_0CM@KPPOKOAI@f?3?2dd?2vctools?2crt?2crtw32?2startup@ 0055a248     LIBCMTD:tidtable.obj
 0003:0001b27c       ??_C@_06OOPIFAJ@Sunday?$AA@ 0055a27c     LIBCMTD:nlsdata.obj
 0003:0001b284       ??_C@_06JLEDEDGH@Monday?$AA@ 0055a284     LIBCMTD:nlsdata.obj
 0003:0001b28c       ??_C@_07BAAGCFCM@Tuesday?$AA@ 0055a28c     LIBCMTD:nlsdata.obj
 0003:0001b298       ??_C@_09DLIGFAKA@Wednesday?$AA@ 0055a298     LIBCMTD:nlsdata.obj
 0003:0001b2a4       ??_C@_08HACCIKIA@Thursday?$AA@ 0055a2a4     LIBCMTD:nlsdata.obj
 0003:0001b2b0       ??_C@_06JECMNKMI@Friday?$AA@ 0055a2b0     LIBCMTD:nlsdata.obj
 0003:0001b2b8       ??_C@_08INBOOONO@Saturday?$AA@ 0055a2b8     LIBCMTD:nlsdata.obj
 0003:0001b2c4       ??_C@_03JIHJHPIE@Jan?$AA@  0055a2c4     LIBCMTD:nlsdata.obj
 0003:0001b2c8       ??_C@_03HJBDCHOM@Feb?$AA@  0055a2c8     LIBCMTD:nlsdata.obj
 0003:0001b2cc       ??_C@_03ODNJBKGA@Mar?$AA@  0055a2cc     LIBCMTD:nlsdata.obj
 0003:0001b2d0       ??_C@_03LEOLGMJP@Apr?$AA@  0055a2d0     LIBCMTD:nlsdata.obj
 0003:0001b2d4       ??_C@_03CNMDKL@May?$AA@    0055a2d4     LIBCMTD:nlsdata.obj
 0003:0001b2d8       ??_C@_03IDFGHECI@Jun?$AA@  0055a2d8     LIBCMTD:nlsdata.obj
 0003:0001b2dc       ??_C@_03LBGABGKK@Jul?$AA@  0055a2dc     LIBCMTD:nlsdata.obj
 0003:0001b2e0       ??_C@_03IFJFEIGA@Aug?$AA@  0055a2e0     LIBCMTD:nlsdata.obj
 0003:0001b2e4       ??_C@_03GGCAPAJC@Sep?$AA@  0055a2e4     LIBCMTD:nlsdata.obj
 0003:0001b2e8       ??_C@_03BMAOKBAD@Oct?$AA@  0055a2e8     LIBCMTD:nlsdata.obj
 0003:0001b2ec       ??_C@_03JPJOFNIA@Nov?$AA@  0055a2ec     LIBCMTD:nlsdata.obj
 0003:0001b2f0       ??_C@_03MKABNOCG@Dec?$AA@  0055a2f0     LIBCMTD:nlsdata.obj
 0003:0001b2f4       ??_C@_07CGJPFGJA@January?$AA@ 0055a2f4     LIBCMTD:nlsdata.obj
 0003:0001b300       ??_C@_08GNJGEPFN@February?$AA@ 0055a300     LIBCMTD:nlsdata.obj
 0003:0001b30c       ??_C@_05HPCKOFNC@March?$AA@ 0055a30c     LIBCMTD:nlsdata.obj
 0003:0001b314       ??_C@_05DMJDNLEJ@April?$AA@ 0055a314     LIBCMTD:nlsdata.obj
 0003:0001b31c       ??_C@_04CNLMGBGM@June?$AA@ 0055a31c     LIBCMTD:nlsdata.obj
 0003:0001b324       ??_C@_04MIEPOIFP@July?$AA@ 0055a324     LIBCMTD:nlsdata.obj
 0003:0001b32c       ??_C@_06LBBHFDDG@August?$AA@ 0055a32c     LIBCMTD:nlsdata.obj
 0003:0001b334       ??_C@_09BHHEALKD@September?$AA@ 0055a334     LIBCMTD:nlsdata.obj
 0003:0001b340       ??_C@_07JJNFCEND@October?$AA@ 0055a340     LIBCMTD:nlsdata.obj
 0003:0001b34c       ??_C@_08HCHEGEOA@November?$AA@ 0055a34c     LIBCMTD:nlsdata.obj
 0003:0001b358       ??_C@_08EDHMEBNP@December?$AA@ 0055a358     LIBCMTD:nlsdata.obj
 0003:0001b364       ??_C@_02DEDBPAFC@AM?$AA@   0055a364     LIBCMTD:nlsdata.obj
 0003:0001b368       ??_C@_02CJNFDJBF@PM?$AA@   0055a368     LIBCMTD:nlsdata.obj
 0003:0001b36c       ??_C@_08BPBNCDIB@MM?1dd?1yy?$AA@ 0055a36c     LIBCMTD:nlsdata.obj
 0003:0001b378       ??_C@_0BE@CKGJFCPC@dddd?0?5MMMM?5dd?0?5yyyy?$AA@ 0055a378     LIBCMTD:nlsdata.obj
 0003:0001b390       ??_C@_08JCCMCCIL@HH?3mm?3ss?$AA@ 0055a390     LIBCMTD:nlsdata.obj
 0003:0001b39c       ??_C@_17MBGCMIPB@?$AAS?$AAu?$AAn?$AA?$AA@ 0055a39c     LIBCMTD:nlsdata.obj
 0003:0001b3a8       ??_C@_17KBOMKBF@?$AAM?$AAo?$AAn?$AA?$AA@ 0055a3a8     LIBCMTD:nlsdata.obj
 0003:0001b3b4       ??_C@_17BMKGEGOJ@?$AAT?$AAu?$AAe?$AA?$AA@ 0055a3b4     LIBCMTD:nlsdata.obj
 0003:0001b3c0       ??_C@_17CJEDCEPE@?$AAW?$AAe?$AAd?$AA?$AA@ 0055a3c0     LIBCMTD:nlsdata.obj
 0003:0001b3cc       ??_C@_17PDPHAADD@?$AAT?$AAh?$AAu?$AA?$AA@ 0055a3cc     LIBCMTD:nlsdata.obj
 0003:0001b3d8       ??_C@_17HFOLPPLP@?$AAF?$AAr?$AAi?$AA?$AA@ 0055a3d8     LIBCMTD:nlsdata.obj
 0003:0001b3e4       ??_C@_17GGIBDPIH@?$AAS?$AAa?$AAt?$AA?$AA@ 0055a3e4     LIBCMTD:nlsdata.obj
 0003:0001b3f0       ??_C@_1O@IHNHDHPB@?$AAS?$AAu?$AAn?$AAd?$AAa?$AAy?$AA?$AA@ 0055a3f0     LIBCMTD:nlsdata.obj
 0003:0001b400       ??_C@_1O@MMNBFLIA@?$AAM?$AAo?$AAn?$AAd?$AAa?$AAy?$AA?$AA@ 0055a400     LIBCMTD:nlsdata.obj
 0003:0001b410       ??_C@_1BA@ENFBFFEK@?$AAT?$AAu?$AAe?$AAs?$AAd?$AAa?$AAy?$AA?$AA@ 0055a410     LIBCMTD:nlsdata.obj
 0003:0001b424       ??_C@_1BE@EBOGMDOH@?$AAW?$AAe?$AAd?$AAn?$AAe?$AAs?$AAd?$AAa?$AAy?$AA?$AA@ 0055a424     LIBCMTD:nlsdata.obj
 0003:0001b43c       ??_C@_1BC@HHMNLIHE@?$AAT?$AAh?$AAu?$AAr?$AAs?$AAd?$AAa?$AAy?$AA?$AA@ 0055a43c     LIBCMTD:nlsdata.obj
 0003:0001b454       ??_C@_1O@PDICJHAG@?$AAF?$AAr?$AAi?$AAd?$AAa?$AAy?$AA?$AA@ 0055a454     LIBCMTD:nlsdata.obj
 0003:0001b464       ??_C@_1BC@ENMNNPAJ@?$AAS?$AAa?$AAt?$AAu?$AAr?$AAd?$AAa?$AAy?$AA?$AA@ 0055a464     LIBCMTD:nlsdata.obj
 0003:0001b47c       ??_C@_17DKNBKCHM@?$AAJ?$AAa?$AAn?$AA?$AA@ 0055a47c     LIBCMTD:nlsdata.obj
 0003:0001b488       ??_C@_17LMDJEKJN@?$AAF?$AAe?$AAb?$AA?$AA@ 0055a488     LIBCMTD:nlsdata.obj
 0003:0001b494       ??_C@_17CKNLEDEC@?$AAM?$AAa?$AAr?$AA?$AA@ 0055a494     LIBCMTD:nlsdata.obj
 0003:0001b4a0       ??_C@_17LFPOIHDD@?$AAA?$AAp?$AAr?$AA?$AA@ 0055a4a0     LIBCMTD:nlsdata.obj
 0003:0001b4ac       ??_C@_17PNNKMEED@?$AAM?$AAa?$AAy?$AA?$AA@ 0055a4ac     LIBCMTD:nlsdata.obj
 0003:0001b4b8       ??_C@_17KCJGOCPB@?$AAJ?$AAu?$AAn?$AA?$AA@ 0055a4b8     LIBCMTD:nlsdata.obj
 0003:0001b4c4       ??_C@_17IJPCKHK@?$AAJ?$AAu?$AAl?$AA?$AA@ 0055a4c4     LIBCMTD:nlsdata.obj
 0003:0001b4d0       ??_C@_17ICPELBCN@?$AAA?$AAu?$AAg?$AA?$AA@ 0055a4d0     LIBCMTD:nlsdata.obj
 0003:0001b4dc       ??_C@_17HCHCOKMG@?$AAS?$AAe?$AAp?$AA?$AA@ 0055a4dc     LIBCMTD:nlsdata.obj
 0003:0001b4e8       ??_C@_17FNLKOI@?$AAO?$AAc?$AAt?$AA?$AA@ 0055a4e8     LIBCMTD:nlsdata.obj
 0003:0001b4f4       ??_C@_17BBDMLCIG@?$AAN?$AAo?$AAv?$AA?$AA@ 0055a4f4     LIBCMTD:nlsdata.obj
 0003:0001b500       ??_C@_17EGKACKIF@?$AAD?$AAe?$AAc?$AA?$AA@ 0055a500     LIBCMTD:nlsdata.obj
 0003:0001b50c       ??_C@_1BA@EFMEIEBA@?$AAJ?$AAa?$AAn?$AAu?$AAa?$AAr?$AAy?$AA?$AA@ 0055a50c     LIBCMTD:nlsdata.obj
 0003:0001b520       ??_C@_1BC@JGDDFFAM@?$AAF?$AAe?$AAb?$AAr?$AAu?$AAa?$AAr?$AAy?$AA?$AA@ 0055a520     LIBCMTD:nlsdata.obj
 0003:0001b538       ??_C@_1M@IKEENEDF@?$AAM?$AAa?$AAr?$AAc?$AAh?$AA?$AA@ 0055a538     LIBCMTD:nlsdata.obj
 0003:0001b548       ??_C@_1M@GJNLMHFD@?$AAA?$AAp?$AAr?$AAi?$AAl?$AA?$AA@ 0055a548     LIBCMTD:nlsdata.obj
 0003:0001b558       ??_C@_19EPFLPGAP@?$AAJ?$AAu?$AAn?$AAe?$AA?$AA@ 0055a558     LIBCMTD:nlsdata.obj
 0003:0001b564       ??_C@_19BIFMLPCD@?$AAJ?$AAu?$AAl?$AAy?$AA?$AA@ 0055a564     LIBCMTD:nlsdata.obj
 0003:0001b570       ??_C@_1O@PAHLKOAC@?$AAA?$AAu?$AAg?$AAu?$AAs?$AAt?$AA?$AA@ 0055a570     LIBCMTD:nlsdata.obj
 0003:0001b580       ??_C@_1BE@DKAAMBJL@?$AAS?$AAe?$AAp?$AAt?$AAe?$AAm?$AAb?$AAe?$AAr?$AA?$AA@ 0055a580     LIBCMTD:nlsdata.obj
 0003:0001b598       ??_C@_1BA@EPANDLNG@?$AAO?$AAc?$AAt?$AAo?$AAb?$AAe?$AAr?$AA?$AA@ 0055a598     LIBCMTD:nlsdata.obj
 0003:0001b5ac       ??_C@_1BC@BGLIFPF@?$AAN?$AAo?$AAv?$AAe?$AAm?$AAb?$AAe?$AAr?$AA?$AA@ 0055a5ac     LIBCMTD:nlsdata.obj
 0003:0001b5c4       ??_C@_1BC@FEMKIFH@?$AAD?$AAe?$AAc?$AAe?$AAm?$AAb?$AAe?$AAr?$AA?$AA@ 0055a5c4     LIBCMTD:nlsdata.obj
 0003:0001b5dc       ??_C@_15ODEHAHHF@?$AAA?$AAM?$AA?$AA@ 0055a5dc     LIBCMTD:nlsdata.obj
 0003:0001b5e4       ??_C@_15CLMNNGEL@?$AAP?$AAM?$AA?$AA@ 0055a5e4     LIBCMTD:nlsdata.obj
 0003:0001b5ec       ??_C@_1BC@IEBCMHCM@?$AAM?$AAM?$AA?1?$AAd?$AAd?$AA?1?$AAy?$AAy?$AA?$AA@ 0055a5ec     LIBCMTD:nlsdata.obj
 0003:0001b604       ??_C@_1CI@KNAKOEBC@?$AAd?$AAd?$AAd?$AAd?$AA?0?$AA?5?$AAM?$AAM?$AAM?$AAM?$AA?5?$AAd?$AAd?$AA?0?$AA?5?$AAy?$AAy?$AAy?$AAy?$AA?$AA@ 0055a604     LIBCMTD:nlsdata.obj
 0003:0001b634       ??_C@_1BC@GDGBMEMK@?$AAH?$AAH?$AA?3?$AAm?$AAm?$AA?3?$AAs?$AAs?$AA?$AA@ 0055a634     LIBCMTD:nlsdata.obj
 0003:0001b64c       ??_C@_1M@BMHNFIME@?$AAe?$AAn?$AA?9?$AAU?$AAS?$AA?$AA@ 0055a64c     LIBCMTD:nlsdata.obj
 0003:0001b660       ___lc_category             0055a660     LIBCMTD:wsetloca.obj
 0003:0001b6b8       ??_C@_1O@GIFLHMA@?$AAL?$AAC?$AA_?$AAA?$AAL?$AAL?$AA?$AA@ 0055a6b8     LIBCMTD:wsetloca.obj
 0003:0001b6c8       ??_C@_1BG@PPOMIBNJ@?$AAL?$AAC?$AA_?$AAC?$AAO?$AAL?$AAL?$AAA?$AAT?$AAE?$AA?$AA@ 0055a6c8     LIBCMTD:wsetloca.obj
 0003:0001b6e4       ??_C@_1BC@FFJGAPJM@?$AAL?$AAC?$AA_?$AAC?$AAT?$AAY?$AAP?$AAE?$AA?$AA@ 0055a6e4     LIBCMTD:wsetloca.obj
 0003:0001b6fc       ??_C@_1BI@PCKFNJFB@?$AAL?$AAC?$AA_?$AAM?$AAO?$AAN?$AAE?$AAT?$AAA?$AAR?$AAY?$AA?$AA@ 0055a6fc     LIBCMTD:wsetloca.obj
 0003:0001b718       ??_C@_1BG@ENIEDKID@?$AAL?$AAC?$AA_?$AAN?$AAU?$AAM?$AAE?$AAR?$AAI?$AAC?$AA?$AA@ 0055a718     LIBCMTD:wsetloca.obj
 0003:0001b734       ??_C@_1BA@HAAOMIIG@?$AAL?$AAC?$AA_?$AAT?$AAI?$AAM?$AAE?$AA?$AA@ 0055a734     LIBCMTD:wsetloca.obj
 0003:0001b7e0       ??_C@_1GA@LDEGDKD@?$AA?$CI?$AA?$CC?$AAI?$AAn?$AAv?$AAa?$AAl?$AAi?$AAd?$AA?5?$AAp?$AAa?$AAr?$AAa?$AAm?$AAe?$AAt?$AAe?$AAr?$AA?5?$AAf?$AAo?$AAr?$AA?5?$AA_?$AAc?$AAo?$AAn?$AAf?$AAi?$AAg?$AAt@ 0055a7e0     LIBCMTD:wsetloca.obj
 0003:0001b858       ??_C@_1FC@GFIKBLFA@?$AAf?$AA?3?$AA?2?$AAd?$AAd?$AA?2?$AAv?$AAc?$AAt?$AAo?$AAo?$AAl?$AAs?$AA?2?$AAc?$AAr?$AAt?$AA?2?$AAc?$AAr?$AAt?$AAw?$AA3?$AA2?$AA?2?$AAm?$AAi?$AAs?$AAc?$AA?2?$AAw?$AAs@ 0055a858     LIBCMTD:wsetloca.obj
 0003:0001b8bc       ??_C@_1CI@FGIONOJM@?$AA_?$AAc?$AAo?$AAn?$AAf?$AAi?$AAg?$AAt?$AAh?$AAr?$AAe?$AAa?$AAd?$AAl?$AAo?$AAc?$AAa?$AAl?$AAe?$AA?$AA@ 0055a8bc     LIBCMTD:wsetloca.obj
 0003:0001b8ec       ??_C@_0CJ@MIILEBP@f?3?2dd?2vctools?2crt?2crtw32?2misc?2ws@ 0055a8ec     LIBCMTD:wsetloca.obj
 0003:0001b920       ??_C@_1FG@OHLFEKMC@?$AAL?$AAC?$AA_?$AAM?$AAI?$AAN?$AA?5?$AA?$DM?$AA?$DN?$AA?5?$AA_?$AAc?$AAa?$AAt?$AAe?$AAg?$AAo?$AAr?$AAy?$AA?5?$AA?$CG?$AA?$CG?$AA?5?$AA_?$AAc?$AAa?$AAt?$AAe?$AAg?$AAo?$AAr?$AAy@ 0055a920     LIBCMTD:wsetloca.obj
 0003:0001b988       ??_C@_1BI@KJNPAEHL@?$AA_?$AAw?$AAs?$AAe?$AAt?$AAl?$AAo?$AAc?$AAa?$AAl?$AAe?$AA?$AA@ 0055a988     LIBCMTD:wsetloca.obj
 0003:0001b9a4       ??_C@_15NBPDDFIP@?$AA?$DN?$AA?$DL?$AA?$AA@ 0055a9a4     LIBCMTD:wsetloca.obj
 0003:0001b9ac       ??_C@_13PJJBFPED@?$AA?$DL?$AA?$AA@ 0055a9ac     LIBCMTD:wsetloca.obj
 0003:0001b9b0       ??_C@_1CG@DKJCBBPP@?$AA_?$AAw?$AAs?$AAe?$AAt?$AAl?$AAo?$AAc?$AAa?$AAl?$AAe?$AA_?$AAn?$AAo?$AAl?$AAo?$AAc?$AAk?$AA?$AA@ 0055a9b0     LIBCMTD:wsetloca.obj
 0003:0001b9e0       ??_C@_1IA@DGCOPCLP@?$AAw?$AAc?$AAs?$AAn?$AAc?$AAp?$AAy?$AA_?$AAs?$AA?$CI?$AAl?$AAc?$AAt?$AAe?$AAm?$AAp?$AA?0?$AA?5?$AA?$CI?$AAs?$AAi?$AAz?$AAe?$AAo?$AAf?$AA?$CI?$AAl?$AAc?$AAt?$AAe?$AAm?$AAp@ 0055a9e0     LIBCMTD:wsetloca.obj
 0003:0001ba7c       ??_C@_1CI@ODOPEMNJ@?$AA_?$AAw?$AAs?$AAe?$AAt?$AAl?$AAo?$AAc?$AAa?$AAl?$AAe?$AA_?$AAs?$AAe?$AAt?$AA_?$AAc?$AAa?$AAt?$AA?$AA@ 0055aa7c     LIBCMTD:wsetloca.obj
 0003:0001bab0       ??_C@_1EM@MHOCNIAA@?$AAw?$AAc?$AAs?$AAc?$AAp?$AAy?$AA_?$AAs?$AA?$CI?$AAp?$AAc?$AAh?$AA_?$AAc?$AAa?$AAt?$AA_?$AAl?$AAo?$AAc?$AAa?$AAl?$AAe?$AA?0?$AA?5?$AAc?$AAc?$AAh?$AA?0?$AA?5?$AAl?$AAc@ 0055aab0     LIBCMTD:wsetloca.obj
 0003:0001bb0c       ??_C@_13NMPKAAJP@?$AA?$DN?$AA?$AA@ 0055ab0c     LIBCMTD:wsetloca.obj
 0003:0001bb10       ??_C@_1CI@LKOPFFBD@?$AA_?$AAw?$AAs?$AAe?$AAt?$AAl?$AAo?$AAc?$AAa?$AAl?$AAe?$AA_?$AAg?$AAe?$AAt?$AA_?$AAa?$AAl?$AAl?$AA?$AA@ 0055ab10     LIBCMTD:wsetloca.obj
 0003:0001bb40       ??_C@_1DC@HMLJMODP@?$AAw?$AAc?$AAs?$AAc?$AAa?$AAt?$AA_?$AAs?$AA?$CI?$AAp?$AAc?$AAh?$AA?0?$AA?5?$AAc?$AAc?$AAh?$AA?0?$AA?5?$AAL?$AA?$CC?$AA?$DL?$AA?$CC?$AA?$CJ?$AA?$AA@ 0055ab40     LIBCMTD:wsetloca.obj
 0003:0001bb7c       ??_C@_1BM@OIIBLEFG@?$AA_?$AAe?$AAx?$AAp?$AAa?$AAn?$AAd?$AAl?$AAo?$AAc?$AAa?$AAl?$AAe?$AA?$AA@ 0055ab7c     LIBCMTD:wsetloca.obj
 0003:0001bba0       ??_C@_1BFG@FHLOBJGM@?$AAw?$AAc?$AAs?$AAn?$AAc?$AAp?$AAy?$AA_?$AAs?$AA?$CI?$AAl?$AAo?$AAc?$AAa?$AAl?$AAe?$AAN?$AAa?$AAm?$AAe?$AAO?$AAu?$AAt?$AAp?$AAu?$AAt?$AA?0?$AA?5?$AAl?$AAo?$AAc?$AAa@ 0055aba0     LIBCMTD:wsetloca.obj
 0003:0001bd40       ??_C@_1EI@OCINLCHN@?$AAw?$AAc?$AAs?$AAc?$AAp?$AAy?$AA_?$AAs?$AA?$CI?$AAo?$AAu?$AAt?$AAp?$AAu?$AAt?$AA?0?$AA?5?$AAs?$AAi?$AAz?$AAe?$AAI?$AAn?$AAC?$AAh?$AAa?$AAr?$AAs?$AA?0?$AA?5?$AAL?$AA?$CC@ 0055ad40     LIBCMTD:wsetloca.obj
 0003:0001bd98       ??_C@_13FHBKNHDA@?$AAC?$AA?$AA@ 0055ad98     LIBCMTD:wsetloca.obj
 0003:0001bda0       ??_C@_1MO@NNCNEOAP@?$AAw?$AAc?$AAs?$AAn?$AAc?$AAp?$AAy?$AA_?$AAs?$AA?$CI?$AAl?$AAo?$AAc?$AAa?$AAl?$AAe?$AAN?$AAa?$AAm?$AAe?$AAO?$AAu?$AAt?$AAp?$AAu?$AAt?$AA?0?$AA?5?$AAl?$AAo?$AAc?$AAa@ 0055ada0     LIBCMTD:wsetloca.obj
 0003:0001be98       ??_C@_1IG@MKDIEKFD@?$AAw?$AAc?$AAs?$AAn?$AAc?$AAp?$AAy?$AA_?$AAs?$AA?$CI?$AAc?$AAa?$AAc?$AAh?$AAe?$AAo?$AAu?$AAt?$AA?0?$AA?5?$AAc?$AAa?$AAc?$AAh?$AAe?$AAo?$AAu?$AAt?$AAL?$AAe?$AAn?$AA?0@ 0055ae98     LIBCMTD:wsetloca.obj
 0003:0001bf38       ??_C@_1KK@KMIFPBBC@?$AAw?$AAc?$AAs?$AAn?$AAc?$AAp?$AAy?$AA_?$AAs?$AA?$CI?$AAl?$AAo?$AAc?$AAa?$AAl?$AAe?$AAN?$AAa?$AAm?$AAe?$AAO?$AAu?$AAt?$AAp?$AAu?$AAt?$AA?0?$AA?5?$AAl?$AAo?$AAc?$AAa@ 0055af38     LIBCMTD:wsetloca.obj
 0003:0001c008       ??_C@_1BEK@OJDMMIMP@?$AAw?$AAc?$AAs?$AAn?$AAc?$AAp?$AAy?$AA_?$AAs?$AA?$CI?$AA_?$AAp?$AAs?$AAe?$AAt?$AAl?$AAo?$AAc?$AA_?$AAd?$AAa?$AAt?$AAa?$AA?9?$AA?$DO?$AA_?$AAc?$AAa?$AAc?$AAh?$AAe?$AAL@ 0055b008     LIBCMTD:wsetloca.obj
 0003:0001c198       ??_C@_1BGG@FCLLNAOE@?$AAw?$AAc?$AAs?$AAn?$AAc?$AAp?$AAy?$AA_?$AAs?$AA?$CI?$AA_?$AAp?$AAs?$AAe?$AAt?$AAl?$AAo?$AAc?$AA_?$AAd?$AAa?$AAt?$AAa?$AA?9?$AA?$DO?$AA_?$AAc?$AAa?$AAc?$AAh?$AAe?$AAL@ 0055b198     LIBCMTD:wsetloca.obj
 0003:0001c348       ??_C@_1IC@FCCDBGLL@?$AAw?$AAc?$AAs?$AAn?$AAc?$AAp?$AAy?$AA_?$AAs?$AA?$CI?$AAc?$AAa?$AAc?$AAh?$AAe?$AAi?$AAn?$AA?0?$AA?5?$AAc?$AAa?$AAc?$AAh?$AAe?$AAi?$AAn?$AAL?$AAe?$AAn?$AA?0?$AA?5?$AAe@ 0055b348     LIBCMTD:wsetloca.obj
 0003:0001c3e8       ??_C@_1FA@HOOAAHFF@?$AAw?$AAc?$AAs?$AAc?$AAp?$AAy?$AA_?$AAs?$AA?$CI?$AAo?$AAu?$AAt?$AAp?$AAu?$AAt?$AA?0?$AA?5?$AAs?$AAi?$AAz?$AAe?$AAI?$AAn?$AAC?$AAh?$AAa?$AAr?$AAs?$AA?0?$AA?5?$AAc?$AAa@ 0055b3e8     LIBCMTD:wsetloca.obj
 0003:0001c448       ??_C@_1BC@LEOKFFML@?$AA_?$AAw?$AAc?$AAs?$AAc?$AAa?$AAt?$AAs?$AA?$AA@ 0055b448     LIBCMTD:wsetloca.obj
 0003:0001c460       ??_C@_1BII@IONPPCCF@?$AAw?$AAc?$AAs?$AAc?$AAa?$AAt?$AA_?$AAs?$AA?$CI?$AAo?$AAu?$AAt?$AAs?$AAt?$AAr?$AA?0?$AA?5?$AAn?$AAu?$AAm?$AAb?$AAe?$AAr?$AAO?$AAf?$AAE?$AAl?$AAe?$AAm?$AAe?$AAn?$AAt@ 0055b460     LIBCMTD:wsetloca.obj
 0003:0001c638       ??_C@_1BK@GNCHCGCN@?$AA_?$AA_?$AAl?$AAc?$AA_?$AAw?$AAc?$AAs?$AAt?$AAo?$AAl?$AAc?$AA?$AA@ 0055b638     LIBCMTD:wsetloca.obj
 0003:0001c658       ??_C@_1NI@NELJHJBO@?$AAw?$AAc?$AAs?$AAn?$AAc?$AAp?$AAy?$AA_?$AAs?$AA?$CI?$AAn?$AAa?$AAm?$AAe?$AAs?$AA?9?$AA?$DO?$AAs?$AAz?$AAC?$AAo?$AAd?$AAe?$AAP?$AAa?$AAg?$AAe?$AA?0?$AA?5?$AA?$CI?$AAs?$AAi@ 0055b658     LIBCMTD:wsetloca.obj
 0003:0001c75c       ??_C@_17MBJJLFDM@?$AA_?$AA?4?$AA?0?$AA?$AA@ 0055b75c     LIBCMTD:wsetloca.obj
 0003:0001c768       ??_C@_1MO@PBGOIBFL@?$AAw?$AAc?$AAs?$AAn?$AAc?$AAp?$AAy?$AA_?$AAs?$AA?$CI?$AAn?$AAa?$AAm?$AAe?$AAs?$AA?9?$AA?$DO?$AAs?$AAz?$AAL?$AAa?$AAn?$AAg?$AAu?$AAa?$AAg?$AAe?$AA?0?$AA?5?$AA?$CI?$AAs?$AAi@ 0055b768     LIBCMTD:wsetloca.obj
 0003:0001c860       ??_C@_1MI@CLMFNAAJ@?$AAw?$AAc?$AAs?$AAn?$AAc?$AAp?$AAy?$AA_?$AAs?$AA?$CI?$AAn?$AAa?$AAm?$AAe?$AAs?$AA?9?$AA?$DO?$AAs?$AAz?$AAC?$AAo?$AAu?$AAn?$AAt?$AAr?$AAy?$AA?0?$AA?5?$AA?$CI?$AAs?$AAi?$AAz@ 0055b860     LIBCMTD:wsetloca.obj
 0003:0001c950       ??_C@_1MO@NBFBMKCB@?$AAw?$AAc?$AAs?$AAn?$AAc?$AAp?$AAy?$AA_?$AAs?$AA?$CI?$AAn?$AAa?$AAm?$AAe?$AAs?$AA?9?$AA?$DO?$AAs?$AAz?$AAC?$AAo?$AAd?$AAe?$AAP?$AAa?$AAg?$AAe?$AA?0?$AA?5?$AA?$CI?$AAs?$AAi@ 0055b950     LIBCMTD:wsetloca.obj
 0003:0001ca48       ??_C@_1BK@HEBMGPEK@?$AA_?$AA_?$AAl?$AAc?$AA_?$AAl?$AAc?$AAt?$AAo?$AAw?$AAc?$AAs?$AA?$AA@ 0055ba48     LIBCMTD:wsetloca.obj
 0003:0001ca68       ??_C@_1GM@FOFMGOEK@?$AAw?$AAc?$AAs?$AAc?$AAp?$AAy?$AA_?$AAs?$AA?$CI?$AAl?$AAo?$AAc?$AAa?$AAl?$AAe?$AA?0?$AA?5?$AAn?$AAu?$AAm?$AAb?$AAe?$AAr?$AAO?$AAf?$AAE?$AAl?$AAe?$AAm?$AAe?$AAn?$AAt@ 0055ba68     LIBCMTD:wsetloca.obj
 0003:0001caec       ??_C@_13ENNFDPBH@?$AA_?$AA?$AA@ 0055baec     LIBCMTD:wsetloca.obj
 0003:0001caf0       ??_C@_13JOFGPIOO@?$AA?4?$AA?$AA@ 0055baf0     LIBCMTD:wsetloca.obj
 0003:0001caf4       ??_C@_1CG@HCGEAFEA@?$AA_?$AA_?$AAc?$AAo?$AAp?$AAy?$AA_?$AAl?$AAo?$AAc?$AAa?$AAl?$AAe?$AA_?$AAn?$AAa?$AAm?$AAe?$AA?$AA@ 0055baf4     LIBCMTD:wsetloca.obj
 0003:0001cb28       ??_C@_1GI@HBNMCKGD@?$AAw?$AAc?$AAs?$AAn?$AAc?$AAp?$AAy?$AA_?$AAs?$AA?$CI?$AAl?$AAo?$AAc?$AAa?$AAl?$AAe?$AAN?$AAa?$AAm?$AAe?$AAC?$AAo?$AAp?$AAy?$AA?0?$AA?5?$AAc?$AAc?$AAh?$AA?$CL?$AA1?$AA?0@ 0055bb28     LIBCMTD:wsetloca.obj
 0003:0001cba8       __XcptActTab               0055bba8     LIBCMTD:winxfltr.obj
 0003:0001cc38       __XcptActTabCount          0055bc38     LIBCMTD:winxfltr.obj
 0003:0001cc3c       __XcptActTabSize           0055bc3c     LIBCMTD:winxfltr.obj
 0003:0001cc40       __First_FPE_Indx           0055bc40     LIBCMTD:winxfltr.obj
 0003:0001cc44       __Num_FPE                  0055bc44     LIBCMTD:winxfltr.obj
 0003:0001cc68       ??_C@_1BC@DENNNKIM@?$AA_?$AAc?$AAr?$AAt?$AAh?$AAe?$AAa?$AAp?$AA?$AA@ 0055bc68     LIBCMTD:heapinit.obj
 0003:0001cc80       ??_C@_1FC@JOHAHJGP@?$AAf?$AA?3?$AA?2?$AAd?$AAd?$AA?2?$AAv?$AAc?$AAt?$AAo?$AAo?$AAl?$AAs?$AA?2?$AAc?$AAr?$AAt?$AA?2?$AAc?$AAr?$AAt?$AAw?$AA3?$AA2?$AA?2?$AAh?$AAe?$AAa?$AAp?$AA?2?$AAh?$AAe@ 0055bc80     LIBCMTD:heapinit.obj
 0003:0001cce4       ??_C@_0CL@OBKFGCKK@f?3?2dd?2vctools?2crt?2crtw32?2startup@ 0055bce4     LIBCMTD:stdargv.obj
 0003:0001cd18       ??_C@_0CL@BJBFGFLH@f?3?2dd?2vctools?2crt?2crtw32?2startup@ 0055bd18     LIBCMTD:stdenvp.obj
 0003:0001cd50       ??_C@_1FG@MHBLOJIO@?$AAf?$AA?3?$AA?2?$AAd?$AAd?$AA?2?$AAv?$AAc?$AAt?$AAo?$AAo?$AAl?$AAs?$AA?2?$AAc?$AAr?$AAt?$AA?2?$AAc?$AAr?$AAt?$AAw?$AA3?$AA2?$AA?2?$AAs?$AAt?$AAa?$AAr?$AAt?$AAu?$AAp@ 0055bd50     LIBCMTD:stdenvp.obj
 0003:0001cdb8       ??_C@_1BC@GHMCNHHL@?$AA_?$AAs?$AAe?$AAt?$AAe?$AAn?$AAv?$AAp?$AA?$AA@ 0055bdb8     LIBCMTD:stdenvp.obj
 0003:0001cdd0       ??_C@_1DE@MMOGFGHF@?$AAs?$AAt?$AAr?$AAc?$AAp?$AAy?$AA_?$AAs?$AA?$CI?$AA?$CK?$AAe?$AAn?$AAv?$AA?0?$AA?5?$AAc?$AAc?$AAh?$AAa?$AAr?$AAs?$AA?0?$AA?5?$AAp?$AA?$CJ?$AA?$AA@ 0055bdd0     LIBCMTD:stdenvp.obj
 0003:0001cef0       ??_C@_1FK@PGACCAFB@?$AAR?$AA6?$AA0?$AA0?$AA2?$AA?$AN?$AA?6?$AA?9?$AA?5?$AAf?$AAl?$AAo?$AAa?$AAt?$AAi?$AAn?$AAg?$AA?5?$AAp?$AAo?$AAi?$AAn?$AAt?$AA?5?$AAs?$AAu?$AAp?$AAp?$AAo?$AAr?$AAt?$AA?5@ 0055bef0     LIBCMTD:crt0msg.obj
 0003:0001cf60       ??_C@_1FE@LLNEDJMD@?$AAR?$AA6?$AA0?$AA0?$AA8?$AA?$AN?$AA?6?$AA?9?$AA?5?$AAn?$AAo?$AAt?$AA?5?$AAe?$AAn?$AAo?$AAu?$AAg?$AAh?$AA?5?$AAs?$AAp?$AAa?$AAc?$AAe?$AA?5?$AAf?$AAo?$AAr?$AA?5?$AAa?$AAr@ 0055bf60     LIBCMTD:crt0msg.obj
 0003:0001cfc8       ??_C@_1FI@HONFMGBI@?$AAR?$AA6?$AA0?$AA0?$AA9?$AA?$AN?$AA?6?$AA?9?$AA?5?$AAn?$AAo?$AAt?$AA?5?$AAe?$AAn?$AAo?$AAu?$AAg?$AAh?$AA?5?$AAs?$AAp?$AAa?$AAc?$AAe?$AA?5?$AAf?$AAo?$AAr?$AA?5?$AAe?$AAn@ 0055bfc8     LIBCMTD:crt0msg.obj
 0003:0001d038       ??_C@_1EG@BEHAGFJD@?$AAR?$AA6?$AA0?$AA1?$AA0?$AA?$AN?$AA?6?$AA?9?$AA?5?$AAa?$AAb?$AAo?$AAr?$AAt?$AA?$CI?$AA?$CJ?$AA?5?$AAh?$AAa?$AAs?$AA?5?$AAb?$AAe?$AAe?$AAn?$AA?5?$AAc?$AAa?$AAl?$AAl?$AAe?$AAd@ 0055c038     LIBCMTD:crt0msg.obj
 0003:0001d090       ??_C@_1FI@LOGNIKDM@?$AAR?$AA6?$AA0?$AA1?$AA6?$AA?$AN?$AA?6?$AA?9?$AA?5?$AAn?$AAo?$AAt?$AA?5?$AAe?$AAn?$AAo?$AAu?$AAg?$AAh?$AA?5?$AAs?$AAp?$AAa?$AAc?$AAe?$AA?5?$AAf?$AAo?$AAr?$AA?5?$AAt?$AAh@ 0055c090     LIBCMTD:crt0msg.obj
 0003:0001d100       ??_C@_1FK@BEOGODMC@?$AAR?$AA6?$AA0?$AA1?$AA7?$AA?$AN?$AA?6?$AA?9?$AA?5?$AAu?$AAn?$AAe?$AAx?$AAp?$AAe?$AAc?$AAt?$AAe?$AAd?$AA?5?$AAm?$AAu?$AAl?$AAt?$AAi?$AAt?$AAh?$AAr?$AAe?$AAa?$AAd?$AA?5@ 0055c100     LIBCMTD:crt0msg.obj
 0003:0001d170       ??_C@_1EC@JIBHAOPH@?$AAR?$AA6?$AA0?$AA1?$AA8?$AA?$AN?$AA?6?$AA?9?$AA?5?$AAu?$AAn?$AAe?$AAx?$AAp?$AAe?$AAc?$AAt?$AAe?$AAd?$AA?5?$AAh?$AAe?$AAa?$AAp?$AA?5?$AAe?$AAr?$AAr?$AAo?$AAr?$AA?$AN?$AA?6@ 0055c170     LIBCMTD:crt0msg.obj
 0003:0001d1c0       ??_C@_1FC@ECHBIFBC@?$AAR?$AA6?$AA0?$AA1?$AA9?$AA?$AN?$AA?6?$AA?9?$AA?5?$AAu?$AAn?$AAa?$AAb?$AAl?$AAe?$AA?5?$AAt?$AAo?$AA?5?$AAo?$AAp?$AAe?$AAn?$AA?5?$AAc?$AAo?$AAn?$AAs?$AAo?$AAl?$AAe?$AA?5@ 0055c1c0     LIBCMTD:crt0msg.obj
 0003:0001d228       ??_C@_1GK@FHCKBEFA@?$AAR?$AA6?$AA0?$AA2?$AA4?$AA?$AN?$AA?6?$AA?9?$AA?5?$AAn?$AAo?$AAt?$AA?5?$AAe?$AAn?$AAo?$AAu?$AAg?$AAh?$AA?5?$AAs?$AAp?$AAa?$AAc?$AAe?$AA?5?$AAf?$AAo?$AAr?$AA?5?$AA_?$AAo@ 0055c228     LIBCMTD:crt0msg.obj
 0003:0001d2a8       ??_C@_1EM@MAADIHMB@?$AAR?$AA6?$AA0?$AA2?$AA5?$AA?$AN?$AA?6?$AA?9?$AA?5?$AAp?$AAu?$AAr?$AAe?$AA?5?$AAv?$AAi?$AAr?$AAt?$AAu?$AAa?$AAl?$AA?5?$AAf?$AAu?$AAn?$AAc?$AAt?$AAi?$AAo?$AAn?$AA?5?$AAc@ 0055c2a8     LIBCMTD:crt0msg.obj
 0003:0001d308       ??_C@_1GK@MCAAGJMO@?$AAR?$AA6?$AA0?$AA2?$AA6?$AA?$AN?$AA?6?$AA?9?$AA?5?$AAn?$AAo?$AAt?$AA?5?$AAe?$AAn?$AAo?$AAu?$AAg?$AAh?$AA?5?$AAs?$AAp?$AAa?$AAc?$AAe?$AA?5?$AAf?$AAo?$AAr?$AA?5?$AAs?$AAt@ 0055c308     LIBCMTD:crt0msg.obj
 0003:0001d388       ??_C@_1GK@MFGOKLAG@?$AAR?$AA6?$AA0?$AA2?$AA7?$AA?$AN?$AA?6?$AA?9?$AA?5?$AAn?$AAo?$AAt?$AA?5?$AAe?$AAn?$AAo?$AAu?$AAg?$AAh?$AA?5?$AAs?$AAp?$AAa?$AAc?$AAe?$AA?5?$AAf?$AAo?$AAr?$AA?5?$AAl?$AAo@ 0055c388     LIBCMTD:crt0msg.obj
 0003:0001d408       ??_C@_1EK@HHFLMAOL@?$AAR?$AA6?$AA0?$AA2?$AA8?$AA?$AN?$AA?6?$AA?9?$AA?5?$AAu?$AAn?$AAa?$AAb?$AAl?$AAe?$AA?5?$AAt?$AAo?$AA?5?$AAi?$AAn?$AAi?$AAt?$AAi?$AAa?$AAl?$AAi?$AAz?$AAe?$AA?5?$AAh?$AAe@ 0055c408     LIBCMTD:crt0msg.obj
 0003:0001d460       ??_C@_1DO@BMFCDCD@?$AAR?$AA6?$AA0?$AA3?$AA0?$AA?$AN?$AA?6?$AA?9?$AA?5?$AAC?$AAR?$AAT?$AA?5?$AAn?$AAo?$AAt?$AA?5?$AAi?$AAn?$AAi?$AAt?$AAi?$AAa?$AAl?$AAi?$AAz?$AAe?$AAd?$AA?$AN?$AA?6?$AA?$AA@ 0055c460     LIBCMTD:crt0msg.obj
 0003:0001d4b0       ??_C@_1MG@ENCOOIDF@?$AAR?$AA6?$AA0?$AA3?$AA1?$AA?$AN?$AA?6?$AA?9?$AA?5?$AAA?$AAt?$AAt?$AAe?$AAm?$AAp?$AAt?$AA?5?$AAt?$AAo?$AA?5?$AAi?$AAn?$AAi?$AAt?$AAi?$AAa?$AAl?$AAi?$AAz?$AAe?$AA?5?$AAt@ 0055c4b0     LIBCMTD:crt0msg.obj
 0003:0001d5a0       ??_C@_1GG@GOPILAJP@?$AAR?$AA6?$AA0?$AA3?$AA2?$AA?$AN?$AA?6?$AA?9?$AA?5?$AAn?$AAo?$AAt?$AA?5?$AAe?$AAn?$AAo?$AAu?$AAg?$AAh?$AA?5?$AAs?$AAp?$AAa?$AAc?$AAe?$AA?5?$AAf?$AAo?$AAr?$AA?5?$AAl?$AAo@ 0055c5a0     LIBCMTD:crt0msg.obj
 0003:0001d620       ??_C@_1BOO@KGEDBGAJ@?$AAR?$AA6?$AA0?$AA3?$AA3?$AA?$AN?$AA?6?$AA?9?$AA?5?$AAA?$AAt?$AAt?$AAe?$AAm?$AAp?$AAt?$AA?5?$AAt?$AAo?$AA?5?$AAu?$AAs?$AAe?$AA?5?$AAM?$AAS?$AAI?$AAL?$AA?5?$AAc?$AAo?$AAd@ 0055c620     LIBCMTD:crt0msg.obj
 0003:0001d870       ??_C@_1GG@MKFPEKFO@?$AAR?$AA6?$AA0?$AA3?$AA4?$AA?$AN?$AA?6?$AA?9?$AA?5?$AAi?$AAn?$AAc?$AAo?$AAn?$AAs?$AAi?$AAs?$AAt?$AAe?$AAn?$AAt?$AA?5?$AAo?$AAn?$AAe?$AAx?$AAi?$AAt?$AA?5?$AAb?$AAe?$AAg@ 0055c870     LIBCMTD:crt0msg.obj
 0003:0001d8ec       ??_C@_1BO@BFCDCGC@?$AAD?$AAO?$AAM?$AAA?$AAI?$AAN?$AA?5?$AAe?$AAr?$AAr?$AAo?$AAr?$AA?$AN?$AA?6?$AA?$AA@ 0055c8ec     LIBCMTD:crt0msg.obj
 0003:0001d910       ??_C@_1BK@KMOMNAAI@?$AAS?$AAI?$AAN?$AAG?$AA?5?$AAe?$AAr?$AAr?$AAo?$AAr?$AA?$AN?$AA?6?$AA?$AA@ 0055c910     LIBCMTD:crt0msg.obj
 0003:0001d930       ??_C@_1BM@JBBEPPHI@?$AAT?$AAL?$AAO?$AAS?$AAS?$AA?5?$AAe?$AAr?$AAr?$AAo?$AAr?$AA?$AN?$AA?6?$AA?$AA@ 0055c930     LIBCMTD:crt0msg.obj
 0003:0001d954       ??_C@_15JNBOKNOG@?$AA?$AN?$AA?6?$AA?$AA@ 0055c954     LIBCMTD:crt0msg.obj
 0003:0001d95c       ??_C@_1BO@BKOMIGKJ@?$AAr?$AAu?$AAn?$AAt?$AAi?$AAm?$AAe?$AA?5?$AAe?$AAr?$AAr?$AAo?$AAr?$AA?5?$AA?$AA@ 0055c95c     LIBCMTD:crt0msg.obj
 0003:0001d980       ??_C@_1FG@ILOHEEMG@?$AAf?$AA?3?$AA?2?$AAd?$AAd?$AA?2?$AAv?$AAc?$AAt?$AAo?$AAo?$AAl?$AAs?$AA?2?$AAc?$AAr?$AAt?$AA?2?$AAc?$AAr?$AAt?$AAw?$AA3?$AA2?$AA?2?$AAs?$AAt?$AAa?$AAr?$AAt?$AAu?$AAp@ 0055c980     LIBCMTD:crt0msg.obj
 0003:0001d9e8       ??_C@_1BI@EAHMBMEC@?$AA_?$AAN?$AAM?$AAS?$AAG?$AA_?$AAW?$AAR?$AAI?$AAT?$AAE?$AA?$AA@ 0055c9e8     LIBCMTD:crt0msg.obj
 0003:0001da08       ??_C@_1KO@BKLCKNFL@?$AAw?$AAc?$AAs?$AAc?$AAp?$AAy?$AA_?$AAs?$AA?$CI?$AAo?$AAu?$AAt?$AAm?$AAs?$AAg?$AA?0?$AA?5?$AA?$CI?$AAs?$AAi?$AAz?$AAe?$AAo?$AAf?$AA?$CI?$AAo?$AAu?$AAt?$AAm?$AAs?$AAg?$AA?$CJ@ 0055ca08     LIBCMTD:crt0msg.obj
 0003:0001dad8       ??_C@_1DE@JNGNBFGO@?$AAR?$AAu?$AAn?$AAt?$AAi?$AAm?$AAe?$AA?5?$AAE?$AAr?$AAr?$AAo?$AAr?$AA?$CB?$AA?6?$AA?6?$AAP?$AAr?$AAo?$AAg?$AAr?$AAa?$AAm?$AA?3?$AA?5?$AA?$AA@ 0055cad8     LIBCMTD:crt0msg.obj
 0003:0001db18       ??_C@_1HK@FJJNAABO@?$AAw?$AAc?$AAs?$AAc?$AAp?$AAy?$AA_?$AAs?$AA?$CI?$AAp?$AAr?$AAo?$AAg?$AAn?$AAa?$AAm?$AAe?$AA?0?$AA?5?$AAp?$AAr?$AAo?$AAg?$AAn?$AAa?$AAm?$AAe?$AA_?$AAs?$AAi?$AAz?$AAe@ 0055cb18     LIBCMTD:crt0msg.obj
 0003:0001dbb0       ??_C@_1HI@FLHKGEBE@?$AAw?$AAc?$AAs?$AAn?$AAc?$AAp?$AAy?$AA_?$AAs?$AA?$CI?$AAp?$AAc?$AAh?$AA?0?$AA?5?$AAp?$AAr?$AAo?$AAg?$AAn?$AAa?$AAm?$AAe?$AA_?$AAs?$AAi?$AAz?$AAe?$AA?5?$AA?9?$AA?5?$AA?$CI@ 0055cbb0     LIBCMTD:crt0msg.obj
 0003:0001dc40       ??_C@_1IA@DCJGKHFO@?$AAw?$AAc?$AAs?$AAc?$AAa?$AAt?$AA_?$AAs?$AA?$CI?$AAo?$AAu?$AAt?$AAm?$AAs?$AAg?$AA?0?$AA?5?$AA?$CI?$AAs?$AAi?$AAz?$AAe?$AAo?$AAf?$AA?$CI?$AAo?$AAu?$AAt?$AAm?$AAs?$AAg?$AA?$CJ@ 0055cc40     LIBCMTD:crt0msg.obj
 0003:0001dce0       ??_C@_1IG@NMONDPP@?$AAw?$AAc?$AAs?$AAc?$AAa?$AAt?$AA_?$AAs?$AA?$CI?$AAo?$AAu?$AAt?$AAm?$AAs?$AAg?$AA?0?$AA?5?$AA?$CI?$AAs?$AAi?$AAz?$AAe?$AAo?$AAf?$AA?$CI?$AAo?$AAu?$AAt?$AAm?$AAs?$AAg?$AA?$CJ@ 0055cce0     LIBCMTD:crt0msg.obj
 0003:0001dd80       ??_C@_1DE@BCNCAIK@?$AA?$CI?$AA?$CC?$AAI?$AAn?$AAv?$AAa?$AAl?$AAi?$AAd?$AA?5?$AAe?$AAr?$AAr?$AAo?$AAr?$AA_?$AAm?$AAo?$AAd?$AAe?$AA?$CC?$AA?0?$AA?5?$AA0?$AA?$CJ?$AA?$AA@ 0055cd80     LIBCMTD:errmode.obj
 0003:0001ddc0       ??_C@_1FA@PBBGNIFD@?$AAf?$AA?3?$AA?2?$AAd?$AAd?$AA?2?$AAv?$AAc?$AAt?$AAo?$AAo?$AAl?$AAs?$AA?2?$AAc?$AAr?$AAt?$AA?2?$AAc?$AAr?$AAt?$AAw?$AA3?$AA2?$AA?2?$AAm?$AAi?$AAs?$AAc?$AA?2?$AAe?$AAr@ 0055cdc0     LIBCMTD:errmode.obj
 0003:0001de20       ??_C@_1CA@LFDHAMEM@?$AA_?$AAs?$AAe?$AAt?$AA_?$AAe?$AAr?$AAr?$AAo?$AAr?$AA_?$AAm?$AAo?$AAd?$AAe?$AA?$AA@ 0055ce20     LIBCMTD:errmode.obj
 0003:0001de48       ??_C@_0CG@NNNNMKLF@f?3?2dd?2vctools?2crt?2crtw32?2misc?2a_@ 0055ce48     LIBCMTD:a_env.obj
 0003:0001de78       ??_C@_1FG@COJCEIPE@?$AAf?$AA?3?$AA?2?$AAd?$AAd?$AA?2?$AAv?$AAc?$AAt?$AAo?$AAo?$AAl?$AAs?$AA?2?$AAc?$AAr?$AAt?$AA?2?$AAc?$AAr?$AAt?$AAw?$AA3?$AA2?$AA?2?$AAs?$AAt?$AAr?$AAi?$AAn?$AAg?$AA?2@ 0055ce78     LIBCMTD:memcpy_s.obj
 0003:0001dee0       ??_C@_1BC@GKHDJMGB@?$AAm?$AAe?$AAm?$AAc?$AAp?$AAy?$AA_?$AAs?$AA?$AA@ 0055cee0     LIBCMTD:memcpy_s.obj
 0003:0001def8       ??_C@_1CK@DDKKOLAN@?$AAs?$AAi?$AAz?$AAe?$AAI?$AAn?$AAB?$AAy?$AAt?$AAe?$AAs?$AA?5?$AA?$DO?$AA?$DN?$AA?5?$AAc?$AAo?$AAu?$AAn?$AAt?$AA?$AA@ 0055cef8     LIBCMTD:memcpy_s.obj
 0003:0001df30       ??_C@_1FC@PFMLEHKI@?$AA?$CI?$AA?$CI?$AA_?$AAD?$AAs?$AAt?$AA?$CJ?$AA?$CJ?$AA?5?$AA?$CB?$AA?$DN?$AA?5?$AAN?$AAU?$AAL?$AAL?$AA?5?$AA?$CG?$AA?$CG?$AA?5?$AA?$CI?$AA?$CI?$AA_?$AAS?$AAi?$AAz?$AAe?$AAI?$AAn?$AAW?$AAo?$AAr@ 0055cf30     LIBCMTD:wcscat_s.obj
 0003:0001df98       ??_C@_1FA@EDIAPAPE@?$AAf?$AA?3?$AA?2?$AAd?$AAd?$AA?2?$AAv?$AAc?$AAt?$AAo?$AAo?$AAl?$AAs?$AA?2?$AAc?$AAr?$AAt?$AA?2?$AAc?$AAr?$AAt?$AAw?$AA3?$AA2?$AA?2?$AAh?$AA?2?$AAt?$AAc?$AAs?$AAc?$AAa@ 0055cf98     LIBCMTD:wcscat_s.obj
 0003:0001dff8       ??_C@_1BC@PLIEPKPJ@?$AAw?$AAc?$AAs?$AAc?$AAa?$AAt?$AA_?$AAs?$AA?$AA@ 0055cff8     LIBCMTD:wcscat_s.obj
 0003:0001e010       ??_C@_1CG@OFBJMIGJ@?$AA?$CI?$AA?$CI?$AA?$CI?$AA_?$AAS?$AAr?$AAc?$AA?$CJ?$AA?$CJ?$AA?$CJ?$AA?5?$AA?$CB?$AA?$DN?$AA?5?$AAN?$AAU?$AAL?$AAL?$AA?$AA@ 0055d010     LIBCMTD:wcscat_s.obj
 0003:0001e040       ??_C@_1DM@FHLMIEG@?$AAS?$AAt?$AAr?$AAi?$AAn?$AAg?$AA?5?$AAi?$AAs?$AA?5?$AAn?$AAo?$AAt?$AA?5?$AAn?$AAu?$AAl?$AAl?$AA?5?$AAt?$AAe?$AAr?$AAm?$AAi?$AAn?$AAa?$AAt?$AAe?$AAd?$AA?$AA@ 0055d040     LIBCMTD:wcscat_s.obj
 0003:0001e088       ??_C@_1FA@MJKDNFFB@?$AA?$CI?$AAL?$AA?$CC?$AAS?$AAt?$AAr?$AAi?$AAn?$AAg?$AA?5?$AAi?$AAs?$AA?5?$AAn?$AAo?$AAt?$AA?5?$AAn?$AAu?$AAl?$AAl?$AA?5?$AAt?$AAe?$AAr?$AAm?$AAi?$AAn?$AAa?$AAt?$AAe?$AAd@ 0055d088     LIBCMTD:wcscat_s.obj
 0003:0001e0e8       ??_C@_1CI@HCPHDDLE@?$AAB?$AAu?$AAf?$AAf?$AAe?$AAr?$AA?5?$AAi?$AAs?$AA?5?$AAt?$AAo?$AAo?$AA?5?$AAs?$AAm?$AAa?$AAl?$AAl?$AA?$AA@ 0055d0e8     LIBCMTD:wcscat_s.obj
 0003:0001e118       ??_C@_1DM@MADKGDLO@?$AA?$CI?$AAL?$AA?$CC?$AAB?$AAu?$AAf?$AAf?$AAe?$AAr?$AA?5?$AAi?$AAs?$AA?5?$AAt?$AAo?$AAo?$AA?5?$AAs?$AAm?$AAa?$AAl?$AAl?$AA?$CC?$AA?5?$AA?$CG?$AA?$CG?$AA?5?$AA0?$AA?$CJ?$AA?$AA@ 0055d118     LIBCMTD:wcscat_s.obj
 0003:0001e160       ??_C@_1FA@ILDLFIFE@?$AAf?$AA?3?$AA?2?$AAd?$AAd?$AA?2?$AAv?$AAc?$AAt?$AAo?$AAo?$AAl?$AAs?$AA?2?$AAc?$AAr?$AAt?$AA?2?$AAc?$AAr?$AAt?$AAw?$AA3?$AA2?$AA?2?$AAh?$AA?2?$AAt?$AAc?$AAs?$AAc?$AAp@ 0055d160     LIBCMTD:wcscpy_s.obj
 0003:0001e1c0       ??_C@_1BC@KIONAFPO@?$AAw?$AAc?$AAs?$AAc?$AAp?$AAy?$AA_?$AAs?$AA?$AA@ 0055d1c0     LIBCMTD:wcscpy_s.obj
 0003:0001e1d8       ??_C@_1FC@HNAKBBDB@?$AAf?$AA?3?$AA?2?$AAd?$AAd?$AA?2?$AAv?$AAc?$AAt?$AAo?$AAo?$AAl?$AAs?$AA?2?$AAc?$AAr?$AAt?$AA?2?$AAc?$AAr?$AAt?$AAw?$AA3?$AA2?$AA?2?$AAh?$AA?2?$AAt?$AAc?$AAs?$AAn?$AAc@ 0055d1d8     LIBCMTD:wcsncat_s.obj
 0003:0001e23c       ??_C@_1BE@KPKIKKCF@?$AAw?$AAc?$AAs?$AAn?$AAc?$AAa?$AAt?$AA_?$AAs?$AA?$AA@ 0055d23c     LIBCMTD:wcsncat_s.obj
 0003:0001e254       ??_C@_1BI@ICGGMGLK@?$AAb?$AAu?$AAf?$AA?5?$AA?$CB?$AA?$DN?$AA?5?$AAN?$AAU?$AAL?$AAL?$AA?$AA@ 0055d254     LIBCMTD:xtows.obj
 0003:0001e270       ??_C@_1FA@LEFFAILN@?$AAf?$AA?3?$AA?2?$AAd?$AAd?$AA?2?$AAv?$AAc?$AAt?$AAo?$AAo?$AAl?$AAs?$AA?2?$AAc?$AAr?$AAt?$AA?2?$AAc?$AAr?$AAt?$AAw?$AA3?$AA2?$AA?2?$AAc?$AAo?$AAn?$AAv?$AAe?$AAr?$AAt@ 0055d270     LIBCMTD:xtows.obj
 0003:0001e2d0       ??_C@_1O@NCBFODOE@?$AAx?$AAt?$AAo?$AAw?$AA_?$AAs?$AA?$AA@ 0055d2d0     LIBCMTD:xtows.obj
 0003:0001e2e0       ??_C@_1CC@JNJFIMGE@?$AAs?$AAi?$AAz?$AAe?$AAI?$AAn?$AAT?$AAC?$AAh?$AAa?$AAr?$AAs?$AA?5?$AA?$DO?$AA?5?$AA0?$AA?$AA@ 0055d2e0     LIBCMTD:xtows.obj
 0003:0001e308       ??_C@_1FA@MKGGAGEI@?$AAs?$AAi?$AAz?$AAe?$AAI?$AAn?$AAT?$AAC?$AAh?$AAa?$AAr?$AAs?$AA?5?$AA?$DO?$AA?5?$AA?$CI?$AAs?$AAi?$AAz?$AAe?$AA_?$AAt?$AA?$CJ?$AA?$CI?$AAi?$AAs?$AA_?$AAn?$AAe?$AAg?$AA?5?$AA?$DP@ 0055d308     LIBCMTD:xtows.obj
 0003:0001e368       ??_C@_1DE@PCJGDBBD@?$AA2?$AA?5?$AA?$DM?$AA?$DN?$AA?5?$AAr?$AAa?$AAd?$AAi?$AAx?$AA?5?$AA?$CG?$AA?$CG?$AA?5?$AAr?$AAa?$AAd?$AAi?$AAx?$AA?5?$AA?$DM?$AA?$DN?$AA?5?$AA3?$AA6?$AA?$AA@ 0055d368     LIBCMTD:xtows.obj
 0003:0001e3a8       ??_C@_1CM@HABGDNLJ@?$AAl?$AAe?$AAn?$AAg?$AAt?$AAh?$AA?5?$AA?$DM?$AA?5?$AAs?$AAi?$AAz?$AAe?$AAI?$AAn?$AAT?$AAC?$AAh?$AAa?$AAr?$AAs?$AA?$AA@ 0055d3a8     LIBCMTD:xtows.obj
 0003:0001e3dc       ??_C@_1BC@HDEJCFPB@?$AAx?$AA6?$AA4?$AAt?$AAo?$AAw?$AA_?$AAs?$AA?$AA@ 0055d3dc     LIBCMTD:xtows.obj
 0003:0001e3f4       ??_C@_1BM@JMKHIAHP@?$AA?$CI?$AAs?$AAt?$AAr?$AA?5?$AA?$CB?$AA?$DN?$AA?5?$AAN?$AAU?$AAL?$AAL?$AA?$CJ?$AA?$AA@ 0055d3f4     LIBCMTD:setvbuf.obj
 0003:0001e418       ??_C@_1FC@NDJMHBOK@?$AAf?$AA?3?$AA?2?$AAd?$AAd?$AA?2?$AAv?$AAc?$AAt?$AAo?$AAo?$AAl?$AAs?$AA?2?$AAc?$AAr?$AAt?$AA?2?$AAc?$AAr?$AAt?$AAw?$AA3?$AA2?$AA?2?$AAs?$AAt?$AAd?$AAi?$AAo?$AA?2?$AAs@ 0055d418     LIBCMTD:setvbuf.obj
 0003:0001e47c       ??_C@_1BA@OGODIODK@?$AAs?$AAe?$AAt?$AAv?$AAb?$AAu?$AAf?$AA?$AA@ 0055d47c     LIBCMTD:setvbuf.obj
 0003:0001e490       ??_C@_1HC@CBFEDAGG@?$AA?$CI?$AAt?$AAy?$AAp?$AAe?$AA?5?$AA?$DN?$AA?$DN?$AA?5?$AA_?$AAI?$AAO?$AAN?$AAB?$AAF?$AA?$CJ?$AA?5?$AA?$HM?$AA?$HM?$AA?5?$AA?$CI?$AAt?$AAy?$AAp?$AAe?$AA?5?$AA?$DN?$AA?$DN?$AA?5?$AA_?$AAI?$AAO@ 0055d490     LIBCMTD:setvbuf.obj
 0003:0001e518       ??_C@_1EG@IJNJIDNB@?$AA?$CI?$AA?$CI?$AA2?$AA?5?$AA?$DM?$AA?$DN?$AA?5?$AAs?$AAi?$AAz?$AAe?$AA?$CJ?$AA?5?$AA?$CG?$AA?$CG?$AA?5?$AA?$CI?$AAs?$AAi?$AAz?$AAe?$AA?5?$AA?$DM?$AA?$DN?$AA?5?$AAI?$AAN?$AAT?$AA_?$AAM?$AAA?$AAX@ 0055d518     LIBCMTD:setvbuf.obj
 0003:0001e56c       ??_C@_0CJ@IACMAHEB@f?3?2dd?2vctools?2crt?2crtw32?2stdio?2s@ 0055d56c     LIBCMTD:setvbuf.obj
 0003:0001e5a0       ??_C@_1FE@OFLIMJDE@?$AAf?$AA?3?$AA?2?$AAd?$AAd?$AA?2?$AAv?$AAc?$AAt?$AAo?$AAo?$AAl?$AAs?$AA?2?$AAc?$AAr?$AAt?$AA?2?$AAc?$AAr?$AAt?$AAw?$AA3?$AA2?$AA?2?$AAs?$AAt?$AAd?$AAi?$AAo?$AA?2?$AAf@ 0055d5a0     LIBCMTD:fwprintf.obj
 0003:0001e604       ??_C@_1BC@BHLPNJBO@?$AAf?$AAw?$AAp?$AAr?$AAi?$AAn?$AAt?$AAf?$AA?$AA@ 0055d604     LIBCMTD:fwprintf.obj
 0003:0001e620       ??_C@_1FE@DHCMIOFC@?$AAf?$AA?3?$AA?2?$AAd?$AAd?$AA?2?$AAv?$AAc?$AAt?$AAo?$AAo?$AAl?$AAs?$AA?2?$AAc?$AAr?$AAt?$AA?2?$AAc?$AAr?$AAt?$AAw?$AA3?$AA2?$AA?2?$AAs?$AAt?$AAd?$AAi?$AAo?$AA?2?$AAv@ 0055d620     LIBCMTD:vswprnc.obj
 0003:0001e684       ??_C@_1CE@IGKFIJFD@?$AA_?$AAv?$AAs?$AAw?$AAp?$AAr?$AAi?$AAn?$AAt?$AAf?$AA_?$AAh?$AAe?$AAl?$AAp?$AAe?$AAr?$AA?$AA@ 0055d684     LIBCMTD:vswprnc.obj
 0003:0001e6b0       ??_C@_1BO@OALHJLCI@?$AA_?$AAv?$AAs?$AAw?$AAp?$AAr?$AAi?$AAn?$AAt?$AAf?$AA_?$AAs?$AA_?$AAl?$AA?$AA@ 0055d6b0     LIBCMTD:vswprnc.obj
 0003:0001e6d8       ??_C@_1EE@MPCHJFGP@?$AAs?$AAt?$AAr?$AAi?$AAn?$AAg?$AA?5?$AA?$CB?$AA?$DN?$AA?5?$AAN?$AAU?$AAL?$AAL?$AA?5?$AA?$CG?$AA?$CG?$AA?5?$AAs?$AAi?$AAz?$AAe?$AAI?$AAn?$AAW?$AAo?$AAr?$AAd?$AAs?$AA?5?$AA?$DO?$AA?5@ 0055d6d8     LIBCMTD:vswprnc.obj
 0003:0001e72c       ??_C@_1CA@BKFKMJFF@?$AA_?$AAv?$AAs?$AAn?$AAw?$AAp?$AAr?$AAi?$AAn?$AAt?$AAf?$AA_?$AAs?$AA_?$AAl?$AA?$AA@ 0055d72c     LIBCMTD:vswprnc.obj
 0003:0001e754       ??_C@_0CH@KINPIPGE@f?3?2dd?2vctools?2crt?2crtw32?2misc?2wi@ 0055d754     LIBCMTD:winsig.obj
 0003:0001e784       ??_C@_1DO@MLNEDKGB@?$AA?$CI?$AA?$CC?$AAI?$AAn?$AAv?$AAa?$AAl?$AAi?$AAd?$AA?5?$AAs?$AAi?$AAg?$AAn?$AAa?$AAl?$AA?5?$AAo?$AAr?$AA?5?$AAe?$AAr?$AAr?$AAo?$AAr?$AA?$CC?$AA?0?$AA?5?$AA0?$AA?$CJ?$AA?$AA@ 0055d784     LIBCMTD:winsig.obj
 0003:0001e7d0       ??_C@_1EO@BCKLPCCI@?$AAf?$AA?3?$AA?2?$AAd?$AAd?$AA?2?$AAv?$AAc?$AAt?$AAo?$AAo?$AAl?$AAs?$AA?2?$AAc?$AAr?$AAt?$AA?2?$AAc?$AAr?$AAt?$AAw?$AA3?$AA2?$AA?2?$AAm?$AAi?$AAs?$AAc?$AA?2?$AAw?$AAi@ 0055d7d0     LIBCMTD:winsig.obj
 0003:0001e830       ??_C@_1O@EJLDHPPL@?$AAs?$AAi?$AAg?$AAn?$AAa?$AAl?$AA?$AA@ 0055d830     LIBCMTD:winsig.obj
 0003:0001e840       ??_C@_1M@DMJEIKHL@?$AAr?$AAa?$AAi?$AAs?$AAe?$AA?$AA@ 0055d840     LIBCMTD:winsig.obj
 0003:0001e850       ??_C@_1BG@GOEBHBDC@?$AAU?$AAS?$AAE?$AAR?$AA3?$AA2?$AA?4?$AAD?$AAL?$AAL?$AA?$AA@ 0055d850     LIBCMTD:crtmboxw.obj
 0003:0001e86c       ??_C@_0M@DLDCCGNP@MessageBoxW?$AA@ 0055d86c     LIBCMTD:crtmboxw.obj
 0003:0001e87c       ??_C@_0BA@HNOPNCHB@GetActiveWindow?$AA@ 0055d87c     LIBCMTD:crtmboxw.obj
 0003:0001e890       ??_C@_0BD@HHGDFDBJ@GetLastActivePopup?$AA@ 0055d890     LIBCMTD:crtmboxw.obj
 0003:0001e8a8       ??_C@_0BK@DEKFELLI@GetUserObjectInformationW?$AA@ 0055d8a8     LIBCMTD:crtmboxw.obj
 0003:0001e8c8       ??_C@_0BI@DFKBFLJE@GetProcessWindowStation?$AA@ 0055d8c8     LIBCMTD:crtmboxw.obj
 0003:0001e8e8       ??_C@_1FE@KNPCCODH@?$AA?$CI?$AA?$CC?$AAC?$AAo?$AAr?$AAr?$AAu?$AAp?$AAt?$AAe?$AAd?$AA?5?$AAp?$AAo?$AAi?$AAn?$AAt?$AAe?$AAr?$AA?5?$AAp?$AAa?$AAs?$AAs?$AAe?$AAd?$AA?5?$AAt?$AAo?$AA?5?$AA_?$AAf@ 0055d8e8     LIBCMTD:a_map.obj
 0003:0001e950       ??_C@_1EI@DKDOCKPJ@?$AAf?$AA?3?$AA?2?$AAd?$AAd?$AA?2?$AAv?$AAc?$AAt?$AAo?$AAo?$AAl?$AAs?$AA?2?$AAc?$AAr?$AAt?$AA?2?$AAc?$AAr?$AAt?$AAw?$AA3?$AA2?$AA?2?$AAh?$AA?2?$AAm?$AAa?$AAl?$AAl?$AAo@ 0055d950     LIBCMTD:a_map.obj
 0003:0001e9a8       ??_C@_1BK@MGMFAEKH@?$AAk?$AAe?$AAr?$AAn?$AAe?$AAl?$AA3?$AA2?$AA?4?$AAd?$AAl?$AAl?$AA?$AA@ 0055d9a8     LIBCMTD:winapisupp.obj
 0003:0001e9c8       ??_C@_08KNHFBNJ@FlsAlloc?$AA@ 0055d9c8     LIBCMTD:winapisupp.obj
 0003:0001e9d4       ??_C@_07PEJMOBNF@FlsFree?$AA@ 0055d9d4     LIBCMTD:winapisupp.obj
 0003:0001e9e0       ??_C@_0M@GDNOONDI@FlsGetValue?$AA@ 0055d9e0     LIBCMTD:winapisupp.obj
 0003:0001e9f0       ??_C@_0M@JCPCPOEF@FlsSetValue?$AA@ 0055d9f0     LIBCMTD:winapisupp.obj
 0003:0001ea00       ??_C@_0BM@HCFOFFN@InitializeCriticalSectionEx?$AA@ 0055da00     LIBCMTD:winapisupp.obj
 0003:0001ea24       ??_C@_0P@DLHPPCNH@CreateEventExW?$AA@ 0055da24     LIBCMTD:winapisupp.obj
 0003:0001ea38       ??_C@_0BD@KIEEOEEH@CreateSemaphoreExW?$AA@ 0055da38     LIBCMTD:winapisupp.obj
 0003:0001ea50       ??_C@_0BI@BKLFFAPO@SetThreadStackGuarantee?$AA@ 0055da50     LIBCMTD:winapisupp.obj
 0003:0001ea6c       ??_C@_0BG@OGFAJCKC@CreateThreadpoolTimer?$AA@ 0055da6c     LIBCMTD:winapisupp.obj
 0003:0001ea88       ??_C@_0BD@LPLEMMDI@SetThreadpoolTimer?$AA@ 0055da88     LIBCMTD:winapisupp.obj
 0003:0001eaa0       ??_C@_0CA@FMNJENH@WaitForThreadpoolTimerCallbacks?$AA@ 0055daa0     LIBCMTD:winapisupp.obj
 0003:0001eac8       ??_C@_0BF@DCFCCNOC@CloseThreadpoolTimer?$AA@ 0055dac8     LIBCMTD:winapisupp.obj
 0003:0001eae4       ??_C@_0BF@FLABGKKM@CreateThreadpoolWait?$AA@ 0055dae4     LIBCMTD:winapisupp.obj
 0003:0001eb00       ??_C@_0BC@MGCOHNA@SetThreadpoolWait?$AA@ 0055db00     LIBCMTD:winapisupp.obj
 0003:0001eb18       ??_C@_0BE@OCIOMIMP@CloseThreadpoolWait?$AA@ 0055db18     LIBCMTD:winapisupp.obj
 0003:0001eb30       ??_C@_0BJ@LKGHFHBO@FlushProcessWriteBuffers?$AA@ 0055db30     LIBCMTD:winapisupp.obj
 0003:0001eb50       ??_C@_0BP@KALKKPMO@FreeLibraryWhenCallbackReturns?$AA@ 0055db50     LIBCMTD:winapisupp.obj
 0003:0001eb78       ??_C@_0BK@DFNBACLA@GetCurrentProcessorNumber?$AA@ 0055db78     LIBCMTD:winapisupp.obj
 0003:0001eb98       ??_C@_0BP@KHGALBC@GetLogicalProcessorInformation?$AA@ 0055db98     LIBCMTD:winapisupp.obj
 0003:0001ebc0       ??_C@_0BE@FKKLLFLM@CreateSymbolicLinkW?$AA@ 0055dbc0     LIBCMTD:winapisupp.obj
 0003:0001ebd8       ??_C@_0BJ@OHNKDLIJ@SetDefaultDllDirectories?$AA@ 0055dbd8     LIBCMTD:winapisupp.obj
 0003:0001ebf8       ??_C@_0BE@LJANKFHF@EnumSystemLocalesEx?$AA@ 0055dbf8     LIBCMTD:winapisupp.obj
 0003:0001ec10       ??_C@_0BA@IHGNDAEB@CompareStringEx?$AA@ 0055dc10     LIBCMTD:winapisupp.obj
 0003:0001ec24       ??_C@_0BA@EPCJIIPD@GetDateFormatEx?$AA@ 0055dc24     LIBCMTD:winapisupp.obj
 0003:0001ec38       ??_C@_0BA@ONOKGCMP@GetLocaleInfoEx?$AA@ 0055dc38     LIBCMTD:winapisupp.obj
 0003:0001ec4c       ??_C@_0BA@CIJJKCJJ@GetTimeFormatEx?$AA@ 0055dc4c     LIBCMTD:winapisupp.obj
 0003:0001ec60       ??_C@_0BJ@PBCCBIPI@GetUserDefaultLocaleName?$AA@ 0055dc60     LIBCMTD:winapisupp.obj
 0003:0001ec80       ??_C@_0BC@CELBKLLA@IsValidLocaleName?$AA@ 0055dc80     LIBCMTD:winapisupp.obj
 0003:0001ec98       ??_C@_0O@KKBNKAPF@LCMapStringEx?$AA@ 0055dc98     LIBCMTD:winapisupp.obj
 0003:0001eca8       ??_C@_0BE@JOGNEJCI@GetCurrentPackageId?$AA@ 0055dca8     LIBCMTD:winapisupp.obj
 0003:0001ecc0       ??_C@_0P@CDHHOHKP@GetTickCount64?$AA@ 0055dcc0     LIBCMTD:winapisupp.obj
 0003:0001ecd4       ??_C@_0BO@KPCLFDJJ@GetFileInformationByHandleExW?$AA@ 0055dcd4     LIBCMTD:winapisupp.obj
 0003:0001ecf8       ??_C@_0BM@MHIDLABK@SetFileInformationByHandleW?$AA@ 0055dcf8     LIBCMTD:winapisupp.obj
 0003:0001ed20       ??_C@_1EG@OHONNKNN@?$AAf?$AA?3?$AA?2?$AAd?$AAd?$AA?2?$AAv?$AAc?$AAt?$AAo?$AAo?$AAl?$AAs?$AA?2?$AAc?$AAr?$AAt?$AA?2?$AAf?$AAp?$AAw?$AA3?$AA2?$AA?2?$AAc?$AAo?$AAn?$AAv?$AA?2?$AAc?$AAv?$AAt@ 0055dd20     LIBCMTD:cvt.obj
 0003:0001ed74       ??_C@_1BE@OLBNEILL@?$AA_?$AAc?$AAf?$AAt?$AAo?$AAe?$AA2?$AA_?$AAl?$AA?$AA@ 0055dd74     LIBCMTD:cvt.obj
 0003:0001ed8c       ??_C@_1CA@CBMNPEO@?$AAs?$AAi?$AAz?$AAe?$AAI?$AAn?$AAB?$AAy?$AAt?$AAe?$AAs?$AA?5?$AA?$DO?$AA?5?$AA0?$AA?$AA@ 0055dd8c     LIBCMTD:cvt.obj
 0003:0001edb8       ??_C@_1HE@NACBNDPP@?$AAs?$AAi?$AAz?$AAe?$AAI?$AAn?$AAB?$AAy?$AAt?$AAe?$AAs?$AA?5?$AA?$DO?$AA?5?$AA?$CI?$AAs?$AAi?$AAz?$AAe?$AA_?$AAt?$AA?$CJ?$AA?$CI?$AA3?$AA?5?$AA?$CL?$AA?5?$AA?$CI?$AAn?$AAd?$AAe?$AAc@ 0055ddb8     LIBCMTD:cvt.obj
 0003:0001ee48       ??_C@_1LE@EOIFGNCJ@?$AAs?$AAt?$AAr?$AAc?$AAp?$AAy?$AA_?$AAs?$AA?$CI?$AAp?$AA?0?$AA?5?$AA?$CI?$AAs?$AAi?$AAz?$AAe?$AAI?$AAn?$AAB?$AAy?$AAt?$AAe?$AAs?$AA?5?$AA?$DN?$AA?$DN?$AA?5?$AA?$CI?$AAs?$AAi?$AAz@ 0055de48     LIBCMTD:cvt.obj
 0003:0001ef20       ??_C@_05KLBDPFGC@e?$CL000?$AA@ 0055df20     LIBCMTD:cvt.obj
 0003:0001ef28       ??_C@_1BC@INKAPMHI@?$AA_?$AAc?$AAf?$AAt?$AAo?$AAe?$AA_?$AAl?$AA?$AA@ 0055df28     LIBCMTD:cvt.obj
 0003:0001ef40       ??_C@_1BC@JOKPCIC@?$AA_?$AAc?$AAf?$AAt?$AAo?$AAa?$AA_?$AAl?$AA?$AA@ 0055df40     LIBCMTD:cvt.obj
 0003:0001ef58       ??_C@_1FC@IKIMAMJB@?$AAs?$AAi?$AAz?$AAe?$AAI?$AAn?$AAB?$AAy?$AAt?$AAe?$AAs?$AA?5?$AA?$DO?$AA?5?$AA?$CI?$AAs?$AAi?$AAz?$AAe?$AA_?$AAt?$AA?$CJ?$AA?$CI?$AA1?$AA?5?$AA?$CL?$AA?5?$AA4?$AA?5?$AA?$CL?$AA?5?$AAn@ 0055df58     LIBCMTD:cvt.obj
 0003:0001efbc       ??_C@_1BE@CKPDLI@?$AA_?$AAc?$AAf?$AAt?$AAo?$AAf?$AA2?$AA_?$AAl?$AA?$AA@ 0055dfbc     LIBCMTD:cvt.obj
 0003:0001efd4       ??_C@_1BC@DCPPLJL@?$AA_?$AAc?$AAf?$AAt?$AAo?$AAf?$AA_?$AAl?$AA?$AA@ 0055dfd4     LIBCMTD:cvt.obj
 0003:0001efec       ??_C@_1BC@MPIFPLAF@?$AA_?$AAc?$AAf?$AAt?$AAo?$AAg?$AA_?$AAl?$AA?$AA@ 0055dfec     LIBCMTD:cvt.obj
 0003:0001f008       ??_C@_1FI@JJOJLGLE@?$AAf?$AA?3?$AA?2?$AAd?$AAd?$AA?2?$AAv?$AAc?$AAt?$AAo?$AAo?$AAl?$AAs?$AA?2?$AAc?$AAr?$AAt?$AA?2?$AAc?$AAr?$AAt?$AAw?$AA3?$AA2?$AA?2?$AAs?$AAt?$AAa?$AAr?$AAt?$AAu?$AAp@ 0055e008     LIBCMTD:fp8.obj
 0003:0001f074       ??_C@_1CK@JMKHCBEI@?$AA_?$AAs?$AAe?$AAt?$AAd?$AAe?$AAf?$AAa?$AAu?$AAl?$AAt?$AAp?$AAr?$AAe?$AAc?$AAi?$AAs?$AAi?$AAo?$AAn?$AA?$AA@ 0055e074     LIBCMTD:fp8.obj
 0003:0001f0a8       ??_C@_1GE@KOCFNGPB@?$AA_?$AAc?$AAo?$AAn?$AAt?$AAr?$AAo?$AAl?$AAf?$AAp?$AA_?$AAs?$AA?$CI?$AA?$CI?$AA?$CI?$AAv?$AAo?$AAi?$AAd?$AA?5?$AA?$CK?$AA?$CJ?$AA0?$AA?$CJ?$AA?0?$AA?5?$AA0?$AAx?$AA0?$AA0?$AA0?$AA1@ 0055e0a8     LIBCMTD:fp8.obj
 0003:0001f160       __indefinite               0055e160     LIBCMTD:87disp.obj
 0003:0001f16a       __piby2                    0055e16a     LIBCMTD:87disp.obj
 0003:0001f194       ??_C@_03KHJOGHMM@exp?$AA@  0055e194     LIBCMTD:fpexcept.obj
 0003:0001f198       ??_C@_03JGHBODFD@pow?$AA@  0055e198     LIBCMTD:fpexcept.obj
 0003:0001f19c       ??_C@_03MGHMBJCF@log?$AA@  0055e19c     LIBCMTD:fpexcept.obj
 0003:0001f1a0       ??_C@_05HGHHAHAP@log10?$AA@ 0055e1a0     LIBCMTD:fpexcept.obj
 0003:0001f1a8       ??_C@_04COOMCNPB@sinh?$AA@ 0055e1a8     LIBCMTD:fpexcept.obj
 0003:0001f1b0       ??_C@_04HPJJNFIM@cosh?$AA@ 0055e1b0     LIBCMTD:fpexcept.obj
 0003:0001f1b8       ??_C@_04FJHINJAO@tanh?$AA@ 0055e1b8     LIBCMTD:fpexcept.obj
 0003:0001f1c0       ??_C@_04FIHNOPOL@asin?$AA@ 0055e1c0     LIBCMTD:fpexcept.obj
 0003:0001f1c8       ??_C@_04PDIFKINK@acos?$AA@ 0055e1c8     LIBCMTD:fpexcept.obj
 0003:0001f1d0       ??_C@_04MLLJIGOK@atan?$AA@ 0055e1d0     LIBCMTD:fpexcept.obj
 0003:0001f1d8       ??_C@_05KNGEOGJB@atan2?$AA@ 0055e1d8     LIBCMTD:fpexcept.obj
 0003:0001f1e0       ??_C@_04EIAKFFMI@sqrt?$AA@ 0055e1e0     LIBCMTD:fpexcept.obj
 0003:0001f1e8       ??_C@_03BLEJJJBH@sin?$AA@  0055e1e8     LIBCMTD:fpexcept.obj
 0003:0001f1ec       ??_C@_03LALBNOCG@cos?$AA@  0055e1ec     LIBCMTD:fpexcept.obj
 0003:0001f1f0       ??_C@_03IIINPABG@tan?$AA@  0055e1f0     LIBCMTD:fpexcept.obj
 0003:0001f1f4       ??_C@_04GFPJNGEK@ceil?$AA@ 0055e1f4     LIBCMTD:fpexcept.obj
 0003:0001f1fc       ??_C@_05PBJFFIGL@floor?$AA@ 0055e1fc     LIBCMTD:fpexcept.obj
 0003:0001f204       ??_C@_04ODHECPBC@fabs?$AA@ 0055e204     LIBCMTD:fpexcept.obj
 0003:0001f20c       ??_C@_04EHEDPDJG@modf?$AA@ 0055e20c     LIBCMTD:fpexcept.obj
 0003:0001f214       ??_C@_05CEJMAHNP@ldexp?$AA@ 0055e214     LIBCMTD:fpexcept.obj
 0003:0001f21c       ??_C@_05KBKMEMPO@_cabs?$AA@ 0055e21c     LIBCMTD:fpexcept.obj
 0003:0001f224       ??_C@_06MEIMCGCF@_hypot?$AA@ 0055e224     LIBCMTD:fpexcept.obj
 0003:0001f22c       ??_C@_04KEPJIHGP@fmod?$AA@ 0055e22c     LIBCMTD:fpexcept.obj
 0003:0001f234       ??_C@_05GKKHEGJL@frexp?$AA@ 0055e234     LIBCMTD:fpexcept.obj
 0003:0001f23c       ??_C@_03MJLDFKDL@_y0?$AA@  0055e23c     LIBCMTD:fpexcept.obj
 0003:0001f240       ??_C@_03NAKIGLHK@_y1?$AA@  0055e240     LIBCMTD:fpexcept.obj
 0003:0001f244       ??_C@_03ONILCKOB@_yn?$AA@  0055e244     LIBCMTD:fpexcept.obj
 0003:0001f248       ??_C@_05JGDBENOH@_logb?$AA@ 0055e248     LIBCMTD:fpexcept.obj
 0003:0001f250       ??_C@_0L@KDOEJCKC@_nextafter?$AA@ 0055e250     LIBCMTD:fpexcept.obj
 0003:0001f260       ??_C@_1FA@HHFEGMDA@?$AAf?$AA?3?$AA?2?$AAd?$AAd?$AA?2?$AAv?$AAc?$AAt?$AAo?$AAo?$AAl?$AAs?$AA?2?$AAc?$AAr?$AAt?$AA?2?$AAc?$AAr?$AAt?$AAw?$AA3?$AA2?$AA?2?$AAs?$AAt?$AAd?$AAi?$AAo?$AA?2?$AAf@ 0055e260     LIBCMTD:fclose.obj
 0003:0001f2c0       ??_C@_1O@EGMJNCOI@?$AAf?$AAc?$AAl?$AAo?$AAs?$AAe?$AA?$AA@ 0055e2c0     LIBCMTD:fclose.obj
 0003:0001f2d0       ??_C@_1BO@JINCABEC@?$AA_?$AAf?$AAc?$AAl?$AAo?$AAs?$AAe?$AA_?$AAn?$AAo?$AAl?$AAo?$AAc?$AAk?$AA?$AA@ 0055e2d0     LIBCMTD:fclose.obj
 0003:0001f2f8       ??_C@_1HC@KFLBHHBC@?$AA?$CI?$AAf?$AAi?$AAl?$AAe?$AAd?$AAe?$AAs?$AA?5?$AA?$DO?$AA?$DN?$AA?5?$AA0?$AA?5?$AA?$CG?$AA?$CG?$AA?5?$AA?$CI?$AAu?$AAn?$AAs?$AAi?$AAg?$AAn?$AAe?$AAd?$AA?$CJ?$AAf?$AAi?$AAl?$AAe?$AAd@ 0055e2f8     LIBCMTD:commit.obj
 0003:0001f380       ??_C@_1FA@HELGICMG@?$AAf?$AA?3?$AA?2?$AAd?$AAd?$AA?2?$AAv?$AAc?$AAt?$AAo?$AAo?$AAl?$AAs?$AA?2?$AAc?$AAr?$AAt?$AA?2?$AAc?$AAr?$AAt?$AAw?$AA3?$AA2?$AA?2?$AAl?$AAo?$AAw?$AAi?$AAo?$AA?2?$AAc@ 0055e380     LIBCMTD:commit.obj
 0003:0001f3e0       ??_C@_1BA@FLNMBBIM@?$AA_?$AAc?$AAo?$AAm?$AAm?$AAi?$AAt?$AA?$AA@ 0055e3e0     LIBCMTD:commit.obj
 0003:0001f3f4       ??_C@_1DG@LNNHNFHJ@?$AA?$CI?$AA_?$AAo?$AAs?$AAf?$AAi?$AAl?$AAe?$AA?$CI?$AAf?$AAi?$AAl?$AAe?$AAd?$AAe?$AAs?$AA?$CJ?$AA?5?$AA?$CG?$AA?5?$AAF?$AAO?$AAP?$AAE?$AAN?$AA?$CJ?$AA?$AA@ 0055e3f4     LIBCMTD:commit.obj
 0003:0001f438       ??_C@_1JE@ECKHFIFP@?$AA?$CI?$AA?$CC?$AAI?$AAn?$AAv?$AAa?$AAl?$AAi?$AAd?$AA?5?$AAf?$AAi?$AAl?$AAe?$AA?5?$AAd?$AAe?$AAs?$AAc?$AAr?$AAi?$AAp?$AAt?$AAo?$AAr?$AA?4?$AA?5?$AAF?$AAi?$AAl?$AAe?$AA?5@ 0055e438     LIBCMTD:commit.obj
 0003:0001f4f0       ??_C@_1FO@LPCLHKGE@?$AA?$CI?$AAf?$AAh?$AA?5?$AA?$DO?$AA?$DN?$AA?5?$AA0?$AA?5?$AA?$CG?$AA?$CG?$AA?5?$AA?$CI?$AAu?$AAn?$AAs?$AAi?$AAg?$AAn?$AAe?$AAd?$AA?$CJ?$AAf?$AAh?$AA?5?$AA?$DM?$AA?5?$AA?$CI?$AAu?$AAn?$AAs?$AAi@ 0055e4f0     LIBCMTD:write.obj
 0003:0001f560       ??_C@_1EO@NLGPLDCN@?$AAf?$AA?3?$AA?2?$AAd?$AAd?$AA?2?$AAv?$AAc?$AAt?$AAo?$AAo?$AAl?$AAs?$AA?2?$AAc?$AAr?$AAt?$AA?2?$AAc?$AAr?$AAt?$AAw?$AA3?$AA2?$AA?2?$AAl?$AAo?$AAw?$AAi?$AAo?$AA?2?$AAw@ 0055e560     LIBCMTD:write.obj
 0003:0001f5c0       ??_C@_1O@KOFKDHPL@?$AA_?$AAw?$AAr?$AAi?$AAt?$AAe?$AA?$AA@ 0055e5c0     LIBCMTD:write.obj
 0003:0001f5d0       ??_C@_1CM@OKGMMMDH@?$AA?$CI?$AA_?$AAo?$AAs?$AAf?$AAi?$AAl?$AAe?$AA?$CI?$AAf?$AAh?$AA?$CJ?$AA?5?$AA?$CG?$AA?5?$AAF?$AAO?$AAP?$AAE?$AAN?$AA?$CJ?$AA?$AA@ 0055e5d0     LIBCMTD:write.obj
 0003:0001f604       ??_C@_1BM@KFJLMBPG@?$AA?$CI?$AAb?$AAu?$AAf?$AA?5?$AA?$CB?$AA?$DN?$AA?5?$AAN?$AAU?$AAL?$AAL?$AA?$CJ?$AA?$AA@ 0055e604     LIBCMTD:write.obj
 0003:0001f628       ??_C@_1BM@NCANHCIP@?$AA_?$AAw?$AAr?$AAi?$AAt?$AAe?$AA_?$AAn?$AAo?$AAl?$AAo?$AAc?$AAk?$AA?$AA@ 0055e628     LIBCMTD:write.obj
 0003:0001f64c       ??_C@_1CC@EEOLPHGO@?$AA?$CI?$AA?$CI?$AAc?$AAn?$AAt?$AA?5?$AA?$CG?$AA?5?$AA1?$AA?$CJ?$AA?5?$AA?$DN?$AA?$DN?$AA?5?$AA0?$AA?$CJ?$AA?$AA@ 0055e64c     LIBCMTD:write.obj
 0003:0001f674       ??_C@_1DI@CNMHHHLG@?$AAi?$AAs?$AAl?$AAe?$AAa?$AAd?$AAb?$AAy?$AAt?$AAe?$AA?$CI?$AA_?$AAd?$AAb?$AAc?$AAs?$AAB?$AAu?$AAf?$AAf?$AAe?$AAr?$AA?$CI?$AAf?$AAh?$AA?$CJ?$AA?$CJ?$AA?$AA@ 0055e674     LIBCMTD:write.obj
 0003:0001f6b8       ??_C@_1BO@KFIJIAEA@?$AAp?$AAB?$AAl?$AAo?$AAc?$AAk?$AA?5?$AA?$CB?$AA?$DN?$AA?5?$AAN?$AAU?$AAL?$AAL?$AA?$AA@ 0055e6b8     LIBCMTD:expand.obj
 0003:0001f6e0       ??_C@_1EO@BOMKIKJB@?$AAf?$AA?3?$AA?2?$AAd?$AAd?$AA?2?$AAv?$AAc?$AAt?$AAo?$AAo?$AAl?$AAs?$AA?2?$AAc?$AAr?$AAt?$AA?2?$AAc?$AAr?$AAt?$AAw?$AA3?$AA2?$AA?2?$AAh?$AAe?$AAa?$AAp?$AA?2?$AAe?$AAx@ 0055e6e0     LIBCMTD:expand.obj
 0003:0001f740       ??_C@_1BK@JMCGJOCC@?$AA_?$AAe?$AAx?$AAp?$AAa?$AAn?$AAd?$AA_?$AAb?$AAa?$AAs?$AAe?$AA?$AA@ 0055e740     LIBCMTD:expand.obj
 0003:0001f770       ??_C@_03KHICJKCI@?4?4?4?$AA@ 0055e770     LIBCMTD:dbgrpt.obj
 0003:0001f774       ??_C@_1CG@GNMJDMIO@?$AA_?$AAC?$AAr?$AAt?$AAS?$AAe?$AAt?$AAR?$AAe?$AAp?$AAo?$AAr?$AAt?$AAH?$AAo?$AAo?$AAk?$AA2?$AA?$AA@ 0055e774     LIBCMTD:dbgrpt.obj
 0003:0001f7a4       ??_C@_1CI@IDOKFLAJ@?$AA_?$AA_?$AAc?$AAr?$AAt?$AAM?$AAe?$AAs?$AAs?$AAa?$AAg?$AAe?$AAW?$AAi?$AAn?$AAd?$AAo?$AAw?$AAA?$AA?$AA@ 0055e7a4     LIBCMTD:dbgrpt.obj
 0003:0001f7d8       ??_C@_1GG@DLDHOIGE@?$AAs?$AAt?$AAr?$AAc?$AAp?$AAy?$AA_?$AAs?$AA?$CI?$AAs?$AAz?$AAE?$AAx?$AAe?$AAN?$AAa?$AAm?$AAe?$AA?0?$AA?5?$AA2?$AA6?$AA0?$AA?0?$AA?5?$AA?$CC?$AA?$DM?$AAp?$AAr?$AAo?$AAg?$AAr@ 0055e7d8     LIBCMTD:dbgrpt.obj
 0003:0001f854       ??_C@_0BH@DNAGHKFM@?$DMprogram?5name?5unknown?$DO?$AA@ 0055e854     LIBCMTD:dbgrpt.obj
 0003:0001f870       ??_C@_1LG@BEHAHJLI@?$AAD?$AAe?$AAb?$AAu?$AAg?$AA?5?$AA?$CF?$AAs?$AA?$CB?$AA?6?$AA?6?$AAP?$AAr?$AAo?$AAg?$AAr?$AAa?$AAm?$AA?3?$AA?5?$AA?$CF?$AAh?$AAs?$AA?$CF?$AAs?$AA?$CF?$AAs?$AA?$CF?$AAh?$AAs?$AA?$CF?$AAs@ 0055e870     LIBCMTD:dbgrpt.obj
 0003:0001f94c       ??_C@_1BC@JLLICHIC@?$AAp?$AAn?$AAh?$AA?5?$AA?$DN?$AA?$DN?$AA?5?$AA0?$AA?$AA@ 0055e94c     LIBCMTD:handler.obj
 0003:0001f968       ??_C@_1FE@HELBPGKC@?$AAf?$AA?3?$AA?2?$AAd?$AAd?$AA?2?$AAv?$AAc?$AAt?$AAo?$AAo?$AAl?$AAs?$AA?2?$AAc?$AAr?$AAt?$AA?2?$AAc?$AAr?$AAt?$AAw?$AA3?$AA2?$AA?2?$AAh?$AAe?$AAa?$AAp?$AA?2?$AAh?$AAa@ 0055e968     LIBCMTD:handler.obj
 0003:0001f9cc       ??_C@_0CH@JPGODKFM@f?3?2dd?2vctools?2crt?2crtw32?2misc?2on@ 0055e9cc     LIBCMTD:onexit.obj
 0003:0001f9fc       ??_C@_0CJ@PLENACMA@f?3?2dd?2vctools?2crt?2crtw32?2misc?2in@ 0055e9fc     LIBCMTD:inithelp.obj
 0003:0001fa30       ??_C@_1FC@PPCAPEFB@?$AAf?$AA?3?$AA?2?$AAd?$AAd?$AA?2?$AAv?$AAc?$AAt?$AAo?$AAo?$AAl?$AAs?$AA?2?$AAc?$AAr?$AAt?$AA?2?$AAc?$AAr?$AAt?$AAw?$AA3?$AA2?$AA?2?$AAm?$AAi?$AAs?$AAc?$AA?2?$AAi?$AAn@ 0055ea30     LIBCMTD:inithelp.obj
 0003:0001fa94       ??_C@_1CA@KHHCPEI@?$AA_?$AA_?$AAg?$AAe?$AAt?$AAl?$AAo?$AAc?$AAa?$AAl?$AAe?$AAi?$AAn?$AAf?$AAo?$AA?$AA@ 0055ea94     LIBCMTD:inithelp.obj
 0003:0001fac0       ??_C@_1GO@NGIGJNHH@?$AAs?$AAt?$AAr?$AAn?$AAc?$AAp?$AAy?$AA_?$AAs?$AA?$CI?$AA?$CK?$AAs?$AAt?$AAr?$AAa?$AAd?$AAd?$AAr?$AAe?$AAs?$AAs?$AA?0?$AA?5?$AAo?$AAu?$AAt?$AAs?$AAi?$AAz?$AAe?$AA?0?$AA?5@ 0055eac0     LIBCMTD:inithelp.obj
 0003:0001fb44       ??_C@_1CK@GFDNDKK@?$AA_?$AAR?$AAa?$AAn?$AAd?$AAo?$AAm?$AAV?$AAa?$AAl?$AAu?$AAe?$AA?5?$AA?$CB?$AA?$DN?$AA?5?$AAN?$AAU?$AAL?$AAL?$AA?$AA@ 0055eb44     LIBCMTD:rand_s.obj
 0003:0001fb78       ??_C@_1EO@GANOMFFN@?$AAf?$AA?3?$AA?2?$AAd?$AAd?$AA?2?$AAv?$AAc?$AAt?$AAo?$AAo?$AAl?$AAs?$AA?2?$AAc?$AAr?$AAt?$AA?2?$AAc?$AAr?$AAt?$AAw?$AA3?$AA2?$AA?2?$AAm?$AAi?$AAs?$AAc?$AA?2?$AAr?$AAa@ 0055eb78     LIBCMTD:rand_s.obj
 0003:0001fbd8       ??_C@_1O@IJGPPOGF@?$AAr?$AAa?$AAn?$AAd?$AA_?$AAs?$AA?$AA@ 0055ebd8     LIBCMTD:rand_s.obj
 0003:0001fbe8       ??_C@_1BK@GAEMIDIL@?$AAA?$AAD?$AAV?$AAA?$AAP?$AAI?$AA3?$AA2?$AA?4?$AAD?$AAL?$AAL?$AA?$AA@ 0055ebe8     LIBCMTD:rand_s.obj
 0003:0001fc08       ??_C@_1GA@EBEDGGGB@?$AA?$CI?$AA?$CC?$AAr?$AAa?$AAn?$AAd?$AA_?$AAs?$AA?5?$AAi?$AAs?$AA?5?$AAn?$AAo?$AAt?$AA?5?$AAa?$AAv?$AAa?$AAi?$AAl?$AAa?$AAb?$AAl?$AAe?$AA?5?$AAo?$AAn?$AA?5?$AAt?$AAh?$AAi@ 0055ec08     LIBCMTD:rand_s.obj
 0003:0001fc7c       ??_C@_0BC@JEAENNKH@SystemFunction036?$AA@ 0055ec7c     LIBCMTD:rand_s.obj
 0003:0001fc98       ??_C@_1EM@BALFJBIJ@?$AAf?$AA?3?$AA?2?$AAd?$AAd?$AA?2?$AAv?$AAc?$AAt?$AAo?$AAo?$AAl?$AAs?$AA?2?$AAc?$AAr?$AAt?$AA?2?$AAc?$AAr?$AAt?$AAw?$AA3?$AA2?$AA?2?$AAl?$AAo?$AAw?$AAi?$AAo?$AA?2?$AAr@ 0055ec98     LIBCMTD:read.obj
 0003:0001fcf4       ??_C@_1M@NHJOLLDM@?$AA_?$AAr?$AAe?$AAa?$AAd?$AA?$AA@ 0055ecf4     LIBCMTD:read.obj
 0003:0001fd04       ??_C@_1CC@HBLPFNKH@?$AA?$CI?$AAc?$AAn?$AAt?$AA?5?$AA?$DM?$AA?$DN?$AA?5?$AAI?$AAN?$AAT?$AA_?$AAM?$AAA?$AAX?$AA?$CJ?$AA?$AA@ 0055ed04     LIBCMTD:read.obj
 0003:0001fd2c       ??_C@_1BK@JJBHNDKJ@?$AA_?$AAr?$AAe?$AAa?$AAd?$AA_?$AAn?$AAo?$AAl?$AAo?$AAc?$AAk?$AA?$AA@ 0055ed2c     LIBCMTD:read.obj
 0003:0001fd4c       ??_C@_1CG@OHLJHGGK@?$AA?$CI?$AAi?$AAn?$AAp?$AAu?$AAt?$AAb?$AAu?$AAf?$AA?5?$AA?$CB?$AA?$DN?$AA?5?$AAN?$AAU?$AAL?$AAL?$AA?$CJ?$AA?$AA@ 0055ed4c     LIBCMTD:read.obj
 0003:0001fd7c       ??_C@_0CG@JHNDLPLJ@f?3?2dd?2vctools?2crt?2crtw32?2lowio?2r@ 0055ed7c     LIBCMTD:read.obj
 0003:0001fdb0       ??_C@_1FC@LGKDBMCL@?$AAf?$AA?3?$AA?2?$AAd?$AAd?$AA?2?$AAv?$AAc?$AAt?$AAo?$AAo?$AAl?$AAs?$AA?2?$AAc?$AAr?$AAt?$AA?2?$AAc?$AAr?$AAt?$AAw?$AA3?$AA2?$AA?2?$AAs?$AAt?$AAd?$AAi?$AAo?$AA?2?$AA_@ 0055edb0     LIBCMTD:_getbuf.obj
 0003:0001fe14       ??_C@_0CJ@NMDFOMAF@f?3?2dd?2vctools?2crt?2crtw32?2stdio?2_@ 0055ee14     LIBCMTD:_getbuf.obj
 0003:0001fe48       ??_C@_1FE@HMGHELF@?$AAf?$AA?3?$AA?2?$AAd?$AAd?$AA?2?$AAv?$AAc?$AAt?$AAo?$AAo?$AAl?$AAs?$AA?2?$AAc?$AAr?$AAt?$AA?2?$AAc?$AAr?$AAt?$AAw?$AA3?$AA2?$AA?2?$AAs?$AAt?$AAd?$AAi?$AAo?$AA?2?$AAs@ 0055ee48     LIBCMTD:swprintf.obj
 0003:0001feac       ??_C@_1BE@BMIJMLDD@?$AA_?$AAs?$AAw?$AAp?$AAr?$AAi?$AAn?$AAt?$AAf?$AA?$AA@ 0055eeac     LIBCMTD:swprintf.obj
 0003:0001fec8       ??_C@_1FA@IFFFOLDJ@?$AAn?$AAR?$AAp?$AAt?$AAT?$AAy?$AAp?$AAe?$AA?5?$AA?$DO?$AA?$DN?$AA?5?$AA0?$AA?5?$AA?$CG?$AA?$CG?$AA?5?$AAn?$AAR?$AAp?$AAt?$AAT?$AAy?$AAp?$AAe?$AA?5?$AA?$DM?$AA?5?$AA_?$AAC?$AAR?$AAT@ 0055eec8     LIBCMTD:dbgrptt.obj
 0003:0001ff28       ??_C@_1FA@PPLJBGMP@?$AAf?$AA?3?$AA?2?$AAd?$AAd?$AA?2?$AAv?$AAc?$AAt?$AAo?$AAo?$AAl?$AAs?$AA?2?$AAc?$AAr?$AAt?$AA?2?$AAc?$AAr?$AAt?$AAw?$AA3?$AA2?$AA?2?$AAm?$AAi?$AAs?$AAc?$AA?2?$AAd?$AAb@ 0055ef28     LIBCMTD:dbgrptt.obj
 0003:0001ff88       ??_C@_1CE@FIHIECNJ@?$AA_?$AAC?$AAr?$AAt?$AAS?$AAe?$AAt?$AAR?$AAe?$AAp?$AAo?$AAr?$AAt?$AAM?$AAo?$AAd?$AAe?$AA?$AA@ 0055ef88     LIBCMTD:dbgrptt.obj
 0003:0001ffb8       ??_C@_1NK@LOFHIHFC@?$AAf?$AAM?$AAo?$AAd?$AAe?$AA?5?$AA?$DN?$AA?$DN?$AA?5?$AA_?$AAC?$AAR?$AAT?$AAD?$AAB?$AAG?$AA_?$AAR?$AAE?$AAP?$AAO?$AAR?$AAT?$AA_?$AAM?$AAO?$AAD?$AAE?$AA?5?$AA?$HM?$AA?$HM?$AA?5@ 0055efb8     LIBCMTD:dbgrptt.obj
 0003:000200c0       ??_C@_1CE@IKKEDCME@?$AA_?$AAC?$AAr?$AAt?$AAS?$AAe?$AAt?$AAR?$AAe?$AAp?$AAo?$AAr?$AAt?$AAF?$AAi?$AAl?$AAe?$AA?$AA@ 0055f0c0     LIBCMTD:dbgrptt.obj
 0003:000200ec       ??_C@_1CA@KHJHLKA@?$AA_?$AAV?$AAC?$AAr?$AAt?$AAD?$AAb?$AAg?$AAR?$AAe?$AAp?$AAo?$AAr?$AAt?$AAA?$AA?$AA@ 0055f0ec     LIBCMTD:dbgrptt.obj
 0003:00020118       ??_C@_1FA@JPHJBHEM@?$AA_?$AAi?$AAt?$AAo?$AAa?$AA_?$AAs?$AA?$CI?$AAn?$AAL?$AAi?$AAn?$AAe?$AA?0?$AA?5?$AAs?$AAz?$AAL?$AAi?$AAn?$AAe?$AAM?$AAe?$AAs?$AAs?$AAa?$AAg?$AAe?$AA?0?$AA?5?$AA4?$AA0@ 0055f118     LIBCMTD:dbgrptt.obj
 0003:00020178       ??_C@_0CG@BNGLOCEO@Second?5Chance?5Assertion?5Failed?3?5@ 0055f178     LIBCMTD:dbgrptt.obj
 0003:000201a8       ??_C@_0P@DFJNDPOP@?$DMfile?5unknown?$DO?$AA@ 0055f1a8     LIBCMTD:dbgrptt.obj
 0003:000201bc       ??_C@_07BHGABMGB@?0?5Line?5?$AA@ 0055f1bc     LIBCMTD:dbgrptt.obj
 0003:000201c8       ??_C@_01EEMJAFIK@?6?$AA@   0055f1c8     LIBCMTD:dbgrptt.obj
 0003:000201d0       ??_C@_1JI@GAALPGBM@?$AAs?$AAt?$AAr?$AAc?$AAp?$AAy?$AA_?$AAs?$AA?$CI?$AAs?$AAz?$AAU?$AAs?$AAe?$AAr?$AAM?$AAe?$AAs?$AAs?$AAa?$AAg?$AAe?$AA?0?$AA?5?$AA4?$AA0?$AA9?$AA6?$AA?0?$AA?5?$AA?$CC?$AA_@ 0055f1d0     LIBCMTD:dbgrptt.obj
 0003:00020288       ??_C@_0CL@EACFGMNB@_CrtDbgReport?3?5String?5too?5long?5o@ 0055f288     LIBCMTD:dbgrptt.obj
 0003:000202c0       ??_C@_1KK@GIGAEDMO@?$AAs?$AAt?$AAr?$AAc?$AAp?$AAy?$AA_?$AAs?$AA?$CI?$AAs?$AAz?$AAL?$AAi?$AAn?$AAe?$AAM?$AAe?$AAs?$AAs?$AAa?$AAg?$AAe?$AA?0?$AA?5?$AA4?$AA0?$AA9?$AA6?$AA?0?$AA?5?$AAs?$AAz@ 0055f2c0     LIBCMTD:dbgrptt.obj
 0003:0002038c       ??_C@_0BD@CAENFOHP@Assertion?5failed?3?5?$AA@ 0055f38c     LIBCMTD:dbgrptt.obj
 0003:000203a4       ??_C@_0BC@LAIDCHCH@Assertion?5failed?$CB?$AA@ 0055f3a4     LIBCMTD:dbgrptt.obj
 0003:000203c0       ??_C@_1FK@NPGBPOFO@?$AAs?$AAt?$AAr?$AAc?$AAa?$AAt?$AA_?$AAs?$AA?$CI?$AAs?$AAz?$AAL?$AAi?$AAn?$AAe?$AAM?$AAe?$AAs?$AAs?$AAa?$AAg?$AAe?$AA?0?$AA?5?$AA4?$AA0?$AA9?$AA6?$AA?0?$AA?5?$AAs?$AAz@ 0055f3c0     LIBCMTD:dbgrptt.obj
 0003:00020430       ??_C@_1EI@CACDLAFK@?$AAs?$AAt?$AAr?$AAc?$AAa?$AAt?$AA_?$AAs?$AA?$CI?$AAs?$AAz?$AAL?$AAi?$AAn?$AAe?$AAM?$AAe?$AAs?$AAs?$AAa?$AAg?$AAe?$AA?0?$AA?5?$AA4?$AA0?$AA9?$AA6?$AA?0?$AA?5?$AA?$CC?$AA?2@ 0055f430     LIBCMTD:dbgrptt.obj
 0003:00020488       ??_C@_01LIIJDEN@?$AN?$AA@  0055f488     LIBCMTD:dbgrptt.obj
 0003:00020490       ??_C@_1EI@LDHJEDO@?$AAs?$AAt?$AAr?$AAc?$AAa?$AAt?$AA_?$AAs?$AA?$CI?$AAs?$AAz?$AAL?$AAi?$AAn?$AAe?$AAM?$AAe?$AAs?$AAs?$AAa?$AAg?$AAe?$AA?0?$AA?5?$AA4?$AA0?$AA9?$AA6?$AA?0?$AA?5?$AA?$CC?$AA?2@ 0055f490     LIBCMTD:dbgrptt.obj
 0003:000204e8       ??_C@_0M@IPILFDFN@?$CFs?$CI?$CFd?$CJ?5?3?5?$CFs?$AA@ 0055f4e8     LIBCMTD:dbgrptt.obj
 0003:000204f8       ??_C@_1JG@CPKCIOEE@?$AAs?$AAt?$AAr?$AAc?$AAp?$AAy?$AA_?$AAs?$AA?$CI?$AAs?$AAz?$AAO?$AAu?$AAt?$AAM?$AAe?$AAs?$AAs?$AAa?$AAg?$AAe?$AA?0?$AA?5?$AA4?$AA0?$AA9?$AA6?$AA?0?$AA?5?$AA?$CC?$AA_?$AAC@ 0055f4f8     LIBCMTD:dbgrptt.obj
 0003:000205b0       ??_C@_1FI@IBIOIHEG@?$AAs?$AAt?$AAr?$AAc?$AAp?$AAy?$AA_?$AAs?$AA?$CI?$AAs?$AAz?$AAO?$AAu?$AAt?$AAM?$AAe?$AAs?$AAs?$AAa?$AAg?$AAe?$AA?0?$AA?5?$AA4?$AA0?$AA9?$AA6?$AA?0?$AA?5?$AAs?$AAz?$AAL@ 0055f5b0     LIBCMTD:dbgrptt.obj
 0003:00020620       ??_C@_1IM@OOKIFKOH@?$AAe?$AA?5?$AA?$DN?$AA?5?$AAm?$AAb?$AAs?$AAt?$AAo?$AAw?$AAc?$AAs?$AA_?$AAs?$AA?$CI?$AA?$CG?$AAr?$AAe?$AAt?$AA?0?$AA?5?$AAs?$AAz?$AAO?$AAu?$AAt?$AAM?$AAe?$AAs?$AAs?$AAa?$AAg@ 0055f620     LIBCMTD:dbgrptt.obj
 0003:000206c8       ??_C@_1MC@IGEECMDB@?$AAw?$AAc?$AAs?$AAc?$AAp?$AAy?$AA_?$AAs?$AA?$CI?$AAs?$AAz?$AAO?$AAu?$AAt?$AAM?$AAe?$AAs?$AAs?$AAa?$AAg?$AAe?$AA2?$AA?0?$AA?5?$AA4?$AA0?$AA9?$AA6?$AA?0?$AA?5?$AAL?$AA?$CC@ 0055f6c8     LIBCMTD:dbgrptt.obj
 0003:000207b0       ??_C@_1HO@PJOFIKFE@?$AA_?$AAC?$AAr?$AAt?$AAD?$AAb?$AAg?$AAR?$AAe?$AAp?$AAo?$AAr?$AAt?$AA?3?$AA?5?$AAS?$AAt?$AAr?$AAi?$AAn?$AAg?$AA?5?$AAt?$AAo?$AAo?$AA?5?$AAl?$AAo?$AAn?$AAg?$AA?5?$AAo@ 0055f7b0     LIBCMTD:dbgrptt.obj
 0003:00020848       ??_C@_1CA@HPALHDOD@?$AA_?$AAV?$AAC?$AAr?$AAt?$AAD?$AAb?$AAg?$AAR?$AAe?$AAp?$AAo?$AAr?$AAt?$AAW?$AA?$AA@ 0055f848     LIBCMTD:dbgrptt.obj
 0003:00020870       ??_C@_1FA@CNLLOMHI@?$AA_?$AAi?$AAt?$AAo?$AAw?$AA_?$AAs?$AA?$CI?$AAn?$AAL?$AAi?$AAn?$AAe?$AA?0?$AA?5?$AAs?$AAz?$AAL?$AAi?$AAn?$AAe?$AAM?$AAe?$AAs?$AAs?$AAa?$AAg?$AAe?$AA?0?$AA?5?$AA4?$AA0@ 0055f870     LIBCMTD:dbgrptt.obj
 0003:000208d0       ??_C@_1EM@MJFLEDMB@?$AAS?$AAe?$AAc?$AAo?$AAn?$AAd?$AA?5?$AAC?$AAh?$AAa?$AAn?$AAc?$AAe?$AA?5?$AAA?$AAs?$AAs?$AAe?$AAr?$AAt?$AAi?$AAo?$AAn?$AA?5?$AAF?$AAa?$AAi?$AAl?$AAe?$AAd?$AA?3?$AA?5@ 0055f8d0     LIBCMTD:dbgrptt.obj
 0003:0002092c       ??_C@_1BO@OCHMLCAG@?$AA?$DM?$AAf?$AAi?$AAl?$AAe?$AA?5?$AAu?$AAn?$AAk?$AAn?$AAo?$AAw?$AAn?$AA?$DO?$AA?$AA@ 0055f92c     LIBCMTD:dbgrptt.obj
 0003:00020950       ??_C@_1BA@ELMMDCFC@?$AA?0?$AA?5?$AAL?$AAi?$AAn?$AAe?$AA?5?$AA?$AA@ 0055f950     LIBCMTD:dbgrptt.obj
 0003:00020968       ??_C@_1JK@KHFABAEO@?$AAw?$AAc?$AAs?$AAc?$AAp?$AAy?$AA_?$AAs?$AA?$CI?$AAs?$AAz?$AAU?$AAs?$AAe?$AAr?$AAM?$AAe?$AAs?$AAs?$AAa?$AAg?$AAe?$AA?0?$AA?5?$AA4?$AA0?$AA9?$AA6?$AA?0?$AA?5?$AAL?$AA?$CC@ 0055f968     LIBCMTD:dbgrptt.obj
 0003:00020a20       ??_C@_1KO@DGAHENCH@?$AAw?$AAc?$AAs?$AAc?$AAp?$AAy?$AA_?$AAs?$AA?$CI?$AAs?$AAz?$AAL?$AAi?$AAn?$AAe?$AAM?$AAe?$AAs?$AAs?$AAa?$AAg?$AAe?$AA?0?$AA?5?$AA4?$AA0?$AA9?$AA6?$AA?0?$AA?5?$AAs?$AAz@ 0055fa20     LIBCMTD:dbgrptt.obj
 0003:00020af0       ??_C@_1CG@FFFGGODN@?$AAA?$AAs?$AAs?$AAe?$AAr?$AAt?$AAi?$AAo?$AAn?$AA?5?$AAf?$AAa?$AAi?$AAl?$AAe?$AAd?$AA?3?$AA?5?$AA?$AA@ 0055faf0     LIBCMTD:dbgrptt.obj
 0003:00020b20       ??_C@_1FK@HPADHBBD@?$AAw?$AAc?$AAs?$AAc?$AAa?$AAt?$AA_?$AAs?$AA?$CI?$AAs?$AAz?$AAL?$AAi?$AAn?$AAe?$AAM?$AAe?$AAs?$AAs?$AAa?$AAg?$AAe?$AA?0?$AA?5?$AA4?$AA0?$AA9?$AA6?$AA?0?$AA?5?$AAs?$AAz@ 0055fb20     LIBCMTD:dbgrptt.obj
 0003:00020b90       ??_C@_1EK@NMDFGHMF@?$AAw?$AAc?$AAs?$AAc?$AAa?$AAt?$AA_?$AAs?$AA?$CI?$AAs?$AAz?$AAL?$AAi?$AAn?$AAe?$AAM?$AAe?$AAs?$AAs?$AAa?$AAg?$AAe?$AA?0?$AA?5?$AA4?$AA0?$AA9?$AA6?$AA?0?$AA?5?$AAL?$AA?$CC@ 0055fb90     LIBCMTD:dbgrptt.obj
 0003:00020be8       ??_C@_13CMNBPIDO@?$AA?$AN?$AA?$AA@ 0055fbe8     LIBCMTD:dbgrptt.obj
 0003:00020bf0       ??_C@_1EK@PHCBEDKB@?$AAw?$AAc?$AAs?$AAc?$AAa?$AAt?$AA_?$AAs?$AA?$CI?$AAs?$AAz?$AAL?$AAi?$AAn?$AAe?$AAM?$AAe?$AAs?$AAs?$AAa?$AAg?$AAe?$AA?0?$AA?5?$AA4?$AA0?$AA9?$AA6?$AA?0?$AA?5?$AAL?$AA?$CC@ 0055fbf0     LIBCMTD:dbgrptt.obj
 0003:00020c48       ??_C@_1BI@JIDBEPIG@?$AA?$CF?$AAs?$AA?$CI?$AA?$CF?$AAd?$AA?$CJ?$AA?5?$AA?3?$AA?5?$AA?$CF?$AAs?$AA?$AA@ 0055fc48     LIBCMTD:dbgrptt.obj
 0003:00020c68       ??_C@_1FI@DBAIJPJE@?$AAw?$AAc?$AAs?$AAc?$AAp?$AAy?$AA_?$AAs?$AA?$CI?$AAs?$AAz?$AAO?$AAu?$AAt?$AAM?$AAe?$AAs?$AAs?$AAa?$AAg?$AAe?$AA?0?$AA?5?$AA4?$AA0?$AA9?$AA6?$AA?0?$AA?5?$AAs?$AAz?$AAL@ 0055fc68     LIBCMTD:dbgrptt.obj
 0003:00020cd8       ??_C@_1JC@EOAPFDLN@?$AAw?$AAc?$AAs?$AAt?$AAo?$AAm?$AAb?$AAs?$AA_?$AAs?$AA?$CI?$AA?$CI?$AA?$CI?$AAv?$AAo?$AAi?$AAd?$AA?5?$AA?$CK?$AA?$CJ?$AA0?$AA?$CJ?$AA?0?$AA?5?$AAs?$AAz?$AAO?$AAu?$AAt?$AAM?$AAe?$AAs@ 0055fcd8     LIBCMTD:dbgrptt.obj
 0003:00020d88       ??_C@_1MA@LBAMNNOB@?$AAs?$AAt?$AAr?$AAc?$AAp?$AAy?$AA_?$AAs?$AA?$CI?$AAs?$AAz?$AAO?$AAu?$AAt?$AAM?$AAe?$AAs?$AAs?$AAa?$AAg?$AAe?$AA2?$AA?0?$AA?5?$AA4?$AA0?$AA9?$AA6?$AA?0?$AA?5?$AA?$CC?$AA_@ 0055fd88     LIBCMTD:dbgrptt.obj
 0003:00020e70       ??_C@_0DP@GNPEPHJD@_CrtDbgReport?3?5String?5too?5long?5o@ 0055fe70     LIBCMTD:dbgrptt.obj
 0003:00020ec0       ??_C@_1IE@CPGKIAGP@?$AAw?$AAc?$AAs?$AAt?$AAo?$AAm?$AAb?$AAs?$AA_?$AAs?$AA?$CI?$AA?$CG?$AAr?$AAe?$AAt?$AA?0?$AA?5?$AAs?$AAz?$AAa?$AAO?$AAu?$AAt?$AAM?$AAe?$AAs?$AAs?$AAa?$AAg?$AAe?$AA?0?$AA?5@ 0055fec0     LIBCMTD:dbgrptt.obj
 0003:00020f60       ___lookuptable_s           0055ff60     LIBCMTD:outputs.obj
 0003:00020fcc       ??_C@_1BI@COFBLHCG@?$AA_?$AAo?$AAu?$AAt?$AAp?$AAu?$AAt?$AA_?$AAs?$AA_?$AAl?$AA?$AA@ 0055ffcc     LIBCMTD:outputs.obj
 0003:00020fe8       ??_C@_1EE@DMAIGNBG@?$AA?$CI?$AA?$CC?$AAI?$AAn?$AAc?$AAo?$AAr?$AAr?$AAe?$AAc?$AAt?$AA?5?$AAf?$AAo?$AAr?$AAm?$AAa?$AAt?$AA?5?$AAs?$AAp?$AAe?$AAc?$AAi?$AAf?$AAi?$AAe?$AAr?$AA?$CC?$AA?0?$AA?5?$AA0@ 0055ffe8     LIBCMTD:outputs.obj
 0003:00021040       ??_C@_1FK@LNCFKALM@?$AA?$CI?$AA?$CI?$AAs?$AAt?$AAa?$AAt?$AAe?$AA?5?$AA?$DN?$AA?$DN?$AA?5?$AAS?$AAT?$AA_?$AAN?$AAO?$AAR?$AAM?$AAA?$AAL?$AA?$CJ?$AA?5?$AA?$HM?$AA?$HM?$AA?5?$AA?$CI?$AAs?$AAt?$AAa?$AAt?$AAe?$AA?5@ 00560040     LIBCMTD:outputs.obj
 0003:000210ac       ??_C@_1BI@KANOLAMF@?$AA_?$AAo?$AAu?$AAt?$AAp?$AAu?$AAt?$AA_?$AAp?$AA_?$AAl?$AA?$AA@ 005600ac     LIBCMTD:outputp.obj
 0003:000210c8       ??_C@_1JC@PFJNKEIO@?$AA?$CI?$AA?$CI?$AAt?$AAy?$AAp?$AAe?$AA_?$AAp?$AAo?$AAs?$AA?5?$AA?$DO?$AA?$DN?$AA?5?$AA0?$AA?$CJ?$AA?5?$AA?$CG?$AA?$CG?$AA?5?$AA?$CI?$AA?$CK?$AAe?$AAn?$AAd?$AA_?$AAp?$AAo?$AAs?$AA?5?$AA?$DN?$AA?$DN@ 005600c8     LIBCMTD:outputp.obj
 0003:00021178       ??_C@_1JE@NMBHOLFI@?$AA?$CI?$AA?$CI?$AAw?$AAi?$AAd?$AAt?$AAh?$AA_?$AAp?$AAo?$AAs?$AA?5?$AA?$DO?$AA?$DN?$AA?5?$AA0?$AA?$CJ?$AA?5?$AA?$CG?$AA?$CG?$AA?5?$AA?$CI?$AA?$CK?$AAe?$AAn?$AAd?$AA_?$AAp?$AAo?$AAs?$AA?5?$AA?$DN@ 00560178     LIBCMTD:outputp.obj
 0003:00021230       ??_C@_1II@PIPIMLPF@?$AA_?$AAt?$AAv?$AAa?$AAl?$AAi?$AAd?$AAa?$AAt?$AAe?$AA_?$AAp?$AAa?$AAr?$AAa?$AAm?$AA_?$AAr?$AAe?$AAu?$AAs?$AAe?$AA?$CI?$AA?$CG?$AAp?$AAo?$AAs?$AA_?$AAv?$AAa?$AAl?$AAu@ 00560230     LIBCMTD:outputp.obj
 0003:000212d8       ??_C@_1JG@JBJBOCFB@?$AA?$CI?$AA?$CI?$AAp?$AAr?$AAe?$AAc?$AAi?$AAs?$AA_?$AAp?$AAo?$AAs?$AA?5?$AA?$DO?$AA?$DN?$AA?5?$AA0?$AA?$CJ?$AA?5?$AA?$CG?$AA?$CG?$AA?5?$AA?$CI?$AA?$CK?$AAe?$AAn?$AAd?$AA_?$AAp?$AAo?$AAs?$AA?5@ 005602d8     LIBCMTD:outputp.obj
 0003:00021390       ??_C@_1IK@EIEPDKHJ@?$AA_?$AAt?$AAv?$AAa?$AAl?$AAi?$AAd?$AAa?$AAt?$AAe?$AA_?$AAp?$AAa?$AAr?$AAa?$AAm?$AA_?$AAr?$AAe?$AAu?$AAs?$AAe?$AA?$CI?$AA?$CG?$AAp?$AAo?$AAs?$AA_?$AAv?$AAa?$AAl?$AAu@ 00560390     LIBCMTD:outputp.obj
 0003:00021438       ??_C@_1EM@BNPHBBIA@?$AA?$CI?$AA?$CI?$AAt?$AAy?$AAp?$AAe?$AA_?$AAp?$AAo?$AAs?$AA?$DO?$AA?$DN?$AA0?$AA?$CJ?$AA?5?$AA?$CG?$AA?$CG?$AA?5?$AA?$CI?$AAt?$AAy?$AAp?$AAe?$AA_?$AAp?$AAo?$AAs?$AA?$DM?$AA_?$AAA?$AAR?$AAG@ 00560438     LIBCMTD:outputp.obj
 0003:00021498       ??_C@_1IK@MHEDJAMK@?$AA_?$AAt?$AAv?$AAa?$AAl?$AAi?$AAd?$AAa?$AAt?$AAe?$AA_?$AAp?$AAa?$AAr?$AAa?$AAm?$AA_?$AAr?$AAe?$AAu?$AAs?$AAe?$AA?$CI?$AA?$CG?$AAp?$AAo?$AAs?$AA_?$AAv?$AAa?$AAl?$AAu@ 00560498     LIBCMTD:outputp.obj
 0003:00021540       ??_C@_1IG@FDCPLALG@?$AA_?$AAt?$AAv?$AAa?$AAl?$AAi?$AAd?$AAa?$AAt?$AAe?$AA_?$AAp?$AAa?$AAr?$AAa?$AAm?$AA_?$AAr?$AAe?$AAu?$AAs?$AAe?$AA?$CI?$AA?$CG?$AAp?$AAo?$AAs?$AA_?$AAv?$AAa?$AAl?$AAu@ 00560540     LIBCMTD:outputp.obj
 0003:000215e0       ??_C@_1IG@HJIMKDHC@?$AA_?$AAt?$AAv?$AAa?$AAl?$AAi?$AAd?$AAa?$AAt?$AAe?$AA_?$AAp?$AAa?$AAr?$AAa?$AAm?$AA_?$AAr?$AAe?$AAu?$AAs?$AAe?$AA?$CI?$AA?$CG?$AAp?$AAo?$AAs?$AA_?$AAv?$AAa?$AAl?$AAu@ 005605e0     LIBCMTD:outputp.obj
 0003:00021680       ??_C@_1IM@DNGHAPLB@?$AA_?$AAt?$AAv?$AAa?$AAl?$AAi?$AAd?$AAa?$AAt?$AAe?$AA_?$AAp?$AAa?$AAr?$AAa?$AAm?$AA_?$AAr?$AAe?$AAu?$AAs?$AAe?$AA?$CI?$AA?$CG?$AAp?$AAo?$AAs?$AA_?$AAv?$AAa?$AAl?$AAu@ 00560680     LIBCMTD:outputp.obj
 0003:00021728       ??_C@_1DG@GOHGNKHE@?$AAp?$AAa?$AAs?$AAs?$AA?5?$AA?$DN?$AA?$DN?$AA?5?$AAF?$AAO?$AAR?$AAM?$AAA?$AAT?$AA_?$AAO?$AAU?$AAT?$AAP?$AAU?$AAT?$AA_?$AAP?$AAA?$AAS?$AAS?$AA?$AA@ 00560728     LIBCMTD:outputp.obj
 0003:00021768       ??_C@_1IK@NBGDDCBN@?$AA_?$AAt?$AAv?$AAa?$AAl?$AAi?$AAd?$AAa?$AAt?$AAe?$AA_?$AAp?$AAa?$AAr?$AAa?$AAm?$AA_?$AAr?$AAe?$AAu?$AAs?$AAe?$AA?$CI?$AA?$CG?$AAp?$AAo?$AAs?$AA_?$AAv?$AAa?$AAl?$AAu@ 00560768     LIBCMTD:outputp.obj
 0003:00021810       ??_C@_1JC@OACKELNN@?$AA_?$AAt?$AAv?$AAa?$AAl?$AAi?$AAd?$AAa?$AAt?$AAe?$AA_?$AAp?$AAa?$AAr?$AAa?$AAm?$AA_?$AAr?$AAe?$AAu?$AAs?$AAe?$AA?$CI?$AA?$CG?$AAp?$AAo?$AAs?$AA_?$AAv?$AAa?$AAl?$AAu@ 00560810     LIBCMTD:outputp.obj
 0003:000218c0       ??_C@_1FK@BCPANIEK@?$AA?$CI?$AA?$CC?$AAM?$AAi?$AAs?$AAs?$AAi?$AAn?$AAg?$AA?5?$AAp?$AAo?$AAs?$AAi?$AAt?$AAi?$AAo?$AAn?$AA?5?$AAi?$AAn?$AA?5?$AAt?$AAh?$AAe?$AA?5?$AAf?$AAo?$AAr?$AAm?$AAa?$AAt@ 005608c0     LIBCMTD:outputp.obj
 0003:00021930       ??_C@_1FA@NFCHPDNG@?$AAf?$AA?3?$AA?2?$AAd?$AAd?$AA?2?$AAv?$AAc?$AAt?$AAo?$AAo?$AAl?$AAs?$AA?2?$AAc?$AAr?$AAt?$AA?2?$AAc?$AAr?$AAt?$AAw?$AA3?$AA2?$AA?2?$AAl?$AAo?$AAw?$AAi?$AAo?$AA?2?$AAi@ 00560930     LIBCMTD:isatty.obj
 0003:00021990       ??_C@_1BA@LEBDGIHM@?$AA_?$AAi?$AAs?$AAa?$AAt?$AAt?$AAy?$AA?$AA@ 00560990     LIBCMTD:isatty.obj
 0003:000219a4       ??_C@_1CO@HFMIILNF@?$AAs?$AAi?$AAz?$AAe?$AAI?$AAn?$AAB?$AAy?$AAt?$AAe?$AAs?$AA?5?$AA?$DM?$AA?$DN?$AA?5?$AAI?$AAN?$AAT?$AA_?$AAM?$AAA?$AAX?$AA?$AA@ 005609a4     LIBCMTD:wctomb.obj
 0003:000219e0       ??_C@_1FE@GKMDCPPB@?$AAf?$AA?3?$AA?2?$AAd?$AAd?$AA?2?$AAv?$AAc?$AAt?$AAo?$AAo?$AAl?$AAs?$AA?2?$AAc?$AAr?$AAt?$AA?2?$AAc?$AAr?$AAt?$AAw?$AA3?$AA2?$AA?2?$AAc?$AAo?$AAn?$AAv?$AAe?$AAr?$AAt@ 005609e0     LIBCMTD:wctomb.obj
 0003:00021a44       ??_C@_1BI@IEADNOHF@?$AA_?$AAw?$AAc?$AAt?$AAo?$AAm?$AAb?$AA_?$AAs?$AA_?$AAl?$AA?$AA@ 00560a44     LIBCMTD:wctomb.obj
 0003:00021a60       ??_C@_1FE@NDDOFCDF@?$AAf?$AA?3?$AA?2?$AAd?$AAd?$AA?2?$AAv?$AAc?$AAt?$AAo?$AAo?$AAl?$AAs?$AA?2?$AAc?$AAr?$AAt?$AA?2?$AAc?$AAr?$AAt?$AAw?$AA3?$AA2?$AA?2?$AAl?$AAo?$AAw?$AAi?$AAo?$AA?2?$AAl@ 00560a60     LIBCMTD:lseeki64.obj
 0003:00021ac4       ??_C@_1BE@KHFBJMNM@?$AA_?$AAl?$AAs?$AAe?$AAe?$AAk?$AAi?$AA6?$AA4?$AA?$AA@ 00560ac4     LIBCMTD:lseeki64.obj
 0003:00021ae0       ??_C@_1FE@DNGHOFOC@?$AAf?$AA?3?$AA?2?$AAd?$AAd?$AA?2?$AAv?$AAc?$AAt?$AAo?$AAo?$AAl?$AAs?$AA?2?$AAc?$AAr?$AAt?$AA?2?$AAc?$AAr?$AAt?$AAw?$AA3?$AA2?$AA?2?$AAc?$AAo?$AAn?$AAv?$AAe?$AAr?$AAt@ 00560ae0     LIBCMTD:strtod.obj
 0003:00021b44       ??_C@_1BE@KFBKGHJC@?$AA_?$AAs?$AAt?$AAr?$AAt?$AAo?$AAd?$AA_?$AAl?$AA?$AA@ 00560b44     LIBCMTD:strtod.obj
 0003:00021b5c       ??_C@_0CI@NOHEOGNG@f?3?2dd?2vctools?2crt?2crtw32?2misc?2in@ 00560b5c     LIBCMTD:initmon.obj
 0003:00021b8c       ??_C@_1DM@GKAPAMDO@?$AAp?$AAl?$AAo?$AAc?$AAi?$AA?9?$AA?$DO?$AAl?$AAc?$AAo?$AAn?$AAv?$AA_?$AAm?$AAo?$AAn?$AA_?$AAr?$AAe?$AAf?$AAc?$AAo?$AAu?$AAn?$AAt?$AA?5?$AA?$DO?$AA?5?$AA0?$AA?$AA@ 00560b8c     LIBCMTD:initmon.obj
 0003:00021bd8       ??_C@_1FA@CNNDGPJL@?$AAf?$AA?3?$AA?2?$AAd?$AAd?$AA?2?$AAv?$AAc?$AAt?$AAo?$AAo?$AAl?$AAs?$AA?2?$AAc?$AAr?$AAt?$AA?2?$AAc?$AAr?$AAt?$AAw?$AA3?$AA2?$AA?2?$AAm?$AAi?$AAs?$AAc?$AA?2?$AAi?$AAn@ 00560bd8     LIBCMTD:initmon.obj
 0003:00021c38       ??_C@_0CI@GAAFLELF@f?3?2dd?2vctools?2crt?2crtw32?2misc?2in@ 00560c38     LIBCMTD:initnum.obj
 0003:00021c68       ??_C@_1DM@IFKAINNE@?$AAp?$AAl?$AAo?$AAc?$AAi?$AA?9?$AA?$DO?$AAl?$AAc?$AAo?$AAn?$AAv?$AA_?$AAn?$AAu?$AAm?$AA_?$AAr?$AAe?$AAf?$AAc?$AAo?$AAu?$AAn?$AAt?$AA?5?$AA?$DO?$AA?5?$AA0?$AA?$AA@ 00560c68     LIBCMTD:initnum.obj
 0003:00021cb0       ??_C@_1FA@OEEOKLKJ@?$AAf?$AA?3?$AA?2?$AAd?$AAd?$AA?2?$AAv?$AAc?$AAt?$AAo?$AAo?$AAl?$AAs?$AA?2?$AAc?$AAr?$AAt?$AA?2?$AAc?$AAr?$AAt?$AAw?$AA3?$AA2?$AA?2?$AAm?$AAi?$AAs?$AAc?$AA?2?$AAi?$AAn@ 00560cb0     LIBCMTD:initnum.obj
 0003:00021d10       ??_C@_0CJ@HGFGLKBM@f?3?2dd?2vctools?2crt?2crtw32?2misc?2in@ 00560d10     LIBCMTD:inittime.obj
 0003:00021d48       ??_C@_1EE@FDHCFDHN@?$AAp?$AAl?$AAo?$AAc?$AAi?$AA?9?$AA?$DO?$AAl?$AAc?$AA_?$AAt?$AAi?$AAm?$AAe?$AA_?$AAc?$AAu?$AAr?$AAr?$AA?9?$AA?$DO?$AAr?$AAe?$AAf?$AAc?$AAo?$AAu?$AAn?$AAt?$AA?5?$AA?$DO?$AA?5@ 00560d48     LIBCMTD:inittime.obj
 0003:00021da0       ??_C@_1FC@GNPEEAOA@?$AAf?$AA?3?$AA?2?$AAd?$AAd?$AA?2?$AAv?$AAc?$AAt?$AAo?$AAo?$AAl?$AAs?$AA?2?$AAc?$AAr?$AAt?$AA?2?$AAc?$AAr?$AAt?$AAw?$AA3?$AA2?$AA?2?$AAm?$AAi?$AAs?$AAc?$AA?2?$AAi?$AAn@ 00560da0     LIBCMTD:inittime.obj
 0003:00021e04       __pDestructExceptionObject 00560e04     LIBCMTD:frame.obj
 0003:00021e08       ?value@?$integral_constant@_N$0A@@std@@2_NB 00560e08     LIBCMTD:frame.obj
 0003:00021e09       ?value@?$integral_constant@_N$00@std@@2_NB 00560e09     LIBCMTD:frame.obj
 0003:00021e10       ??_7bad_exception@std@@6B@ 00560e10     LIBCMTD:frame.obj
 0003:00021e1c       ??_C@_0O@DPKOEFFH@bad?5exception?$AA@ 00560e1c     LIBCMTD:frame.obj
 0003:00021e30       ___newctype                00560e30     LIBCMTD:ctype.obj
 0003:00022130       __wctype                   00561130     LIBCMTD:ctype.obj
 0003:00022338       ___newclmap                00561338     LIBCMTD:ctype.obj
 0003:000224b8       ___newcumap                005614b8     LIBCMTD:ctype.obj
 0003:000227d4       ??_C@_0CJ@JJMAJPPG@f?3?2dd?2vctools?2crt?2crtw32?2misc?2in@ 005617d4     LIBCMTD:initctyp.obj
 0003:00022808       ??_C@_1FC@OGCCCEID@?$AAf?$AA?3?$AA?2?$AAd?$AAd?$AA?2?$AAv?$AAc?$AAt?$AAo?$AAo?$AAl?$AAs?$AA?2?$AAc?$AAr?$AAt?$AA?2?$AAc?$AAr?$AAt?$AAw?$AA3?$AA2?$AA?2?$AAm?$AAi?$AAs?$AAc?$AA?2?$AAi?$AAn@ 00561808     LIBCMTD:initctyp.obj
 0003:0002286c       ??_C@_1DG@NMBGBDM@?$AAp?$AAl?$AAo?$AAc?$AAi?$AA?9?$AA?$DO?$AAc?$AAt?$AAy?$AAp?$AAe?$AA1?$AA_?$AAr?$AAe?$AAf?$AAc?$AAo?$AAu?$AAn?$AAt?$AA?5?$AA?$DO?$AA?5?$AA0?$AA?$AA@ 0056186c     LIBCMTD:initctyp.obj
 0003:000228b0       ??_C@_1FC@LFLBLJJB@?$AAf?$AA?3?$AA?2?$AAd?$AAd?$AA?2?$AAv?$AAc?$AAt?$AAo?$AAo?$AAl?$AAs?$AA?2?$AAc?$AAr?$AAt?$AA?2?$AAc?$AAr?$AAt?$AAw?$AA3?$AA2?$AA?2?$AAh?$AA?2?$AAt?$AAc?$AAs?$AAn?$AAc@ 005618b0     LIBCMTD:wcsncpy_s.obj
 0003:00022914       ??_C@_1BE@PMMBFFCC@?$AAw?$AAc?$AAs?$AAn?$AAc?$AAp?$AAy?$AA_?$AAs?$AA?$AA@ 00561914     LIBCMTD:wcsncpy_s.obj
 0003:00022930       ___rg_language             00561930     LIBCMTD:getqloc.obj
 0003:00022cd8       ??_C@_1BC@LLOKLNP@?$AAa?$AAm?$AAe?$AAr?$AAi?$AAc?$AAa?$AAn?$AA?$AA@ 00561cd8     LIBCMTD:getqloc.obj
 0003:00022cf0       ??_C@_1CC@HEIGCDGG@?$AAa?$AAm?$AAe?$AAr?$AAi?$AAc?$AAa?$AAn?$AA?5?$AAe?$AAn?$AAg?$AAl?$AAi?$AAs?$AAh?$AA?$AA@ 00561cf0     LIBCMTD:getqloc.obj
 0003:00022d18       ??_C@_1CC@IHCNOMIN@?$AAa?$AAm?$AAe?$AAr?$AAi?$AAc?$AAa?$AAn?$AA?9?$AAe?$AAn?$AAg?$AAl?$AAi?$AAs?$AAh?$AA?$AA@ 00561d18     LIBCMTD:getqloc.obj
 0003:00022d40       ??_C@_1BG@GKAGPCGG@?$AAa?$AAu?$AAs?$AAt?$AAr?$AAa?$AAl?$AAi?$AAa?$AAn?$AA?$AA@ 00561d40     LIBCMTD:getqloc.obj
 0003:00022d5c       ??_C@_1BA@GMENCENF@?$AAb?$AAe?$AAl?$AAg?$AAi?$AAa?$AAn?$AA?$AA@ 00561d5c     LIBCMTD:getqloc.obj
 0003:00022d70       ??_C@_1BC@PJMIIAAN@?$AAc?$AAa?$AAn?$AAa?$AAd?$AAi?$AAa?$AAn?$AA?$AA@ 00561d70     LIBCMTD:getqloc.obj
 0003:00022d88       ??_C@_17NOIMNFBF@?$AAc?$AAh?$AAh?$AA?$AA@ 00561d88     LIBCMTD:getqloc.obj
 0003:00022d94       ??_C@_17GGDALCHA@?$AAc?$AAh?$AAi?$AA?$AA@ 00561d94     LIBCMTD:getqloc.obj
 0003:00022da0       ??_C@_1BA@NPNJKIBL@?$AAc?$AAh?$AAi?$AAn?$AAe?$AAs?$AAe?$AA?$AA@ 00561da0     LIBCMTD:getqloc.obj
 0003:00022db4       ??_C@_1CC@DINBAMMJ@?$AAc?$AAh?$AAi?$AAn?$AAe?$AAs?$AAe?$AA?9?$AAh?$AAo?$AAn?$AAg?$AAk?$AAo?$AAn?$AAg?$AA?$AA@ 00561db4     LIBCMTD:getqloc.obj
 0003:00022ddc       ??_C@_1CG@IOBJPACO@?$AAc?$AAh?$AAi?$AAn?$AAe?$AAs?$AAe?$AA?9?$AAs?$AAi?$AAm?$AAp?$AAl?$AAi?$AAf?$AAi?$AAe?$AAd?$AA?$AA@ 00561ddc     LIBCMTD:getqloc.obj
 0003:00022e0c       ??_C@_1CE@GAJNDCKG@?$AAc?$AAh?$AAi?$AAn?$AAe?$AAs?$AAe?$AA?9?$AAs?$AAi?$AAn?$AAg?$AAa?$AAp?$AAo?$AAr?$AAe?$AA?$AA@ 00561e0c     LIBCMTD:getqloc.obj
 0003:00022e38       ??_C@_1CI@PAJPIOOD@?$AAc?$AAh?$AAi?$AAn?$AAe?$AAs?$AAe?$AA?9?$AAt?$AAr?$AAa?$AAd?$AAi?$AAt?$AAi?$AAo?$AAn?$AAa?$AAl?$AA?$AA@ 00561e38     LIBCMTD:getqloc.obj
 0003:00022e68       ??_C@_1BM@NILJBMMD@?$AAd?$AAu?$AAt?$AAc?$AAh?$AA?9?$AAb?$AAe?$AAl?$AAg?$AAi?$AAa?$AAn?$AA?$AA@ 00561e68     LIBCMTD:getqloc.obj
 0003:00022e8c       ??_C@_1CC@OOJPJNEJ@?$AAe?$AAn?$AAg?$AAl?$AAi?$AAs?$AAh?$AA?9?$AAa?$AAm?$AAe?$AAr?$AAi?$AAc?$AAa?$AAn?$AA?$AA@ 00561e8c     LIBCMTD:getqloc.obj
 0003:00022eb4       ??_C@_1BI@IOLFEEM@?$AAe?$AAn?$AAg?$AAl?$AAi?$AAs?$AAh?$AA?9?$AAa?$AAu?$AAs?$AA?$AA@ 00561eb4     LIBCMTD:getqloc.obj
 0003:00022ed0       ??_C@_1BO@HFFNLENJ@?$AAe?$AAn?$AAg?$AAl?$AAi?$AAs?$AAh?$AA?9?$AAb?$AAe?$AAl?$AAi?$AAz?$AAe?$AA?$AA@ 00561ed0     LIBCMTD:getqloc.obj
 0003:00022ef4       ??_C@_1BI@HAPKJMPO@?$AAe?$AAn?$AAg?$AAl?$AAi?$AAs?$AAh?$AA?9?$AAc?$AAa?$AAn?$AA?$AA@ 00561ef4     LIBCMTD:getqloc.obj
 0003:00022f10       ??_C@_1CE@HLNDMIOJ@?$AAe?$AAn?$AAg?$AAl?$AAi?$AAs?$AAh?$AA?9?$AAc?$AAa?$AAr?$AAi?$AAb?$AAb?$AAe?$AAa?$AAn?$AA?$AA@ 00561f10     LIBCMTD:getqloc.obj
 0003:00022f3c       ??_C@_1BI@LDHJHHAC@?$AAe?$AAn?$AAg?$AAl?$AAi?$AAs?$AAh?$AA?9?$AAi?$AAr?$AAe?$AA?$AA@ 00561f3c     LIBCMTD:getqloc.obj
 0003:00022f58       ??_C@_1CA@NJMMCFOC@?$AAe?$AAn?$AAg?$AAl?$AAi?$AAs?$AAh?$AA?9?$AAj?$AAa?$AAm?$AAa?$AAi?$AAc?$AAa?$AA?$AA@ 00561f58     LIBCMTD:getqloc.obj
 0003:00022f80       ??_C@_1BG@BHJEBBGG@?$AAe?$AAn?$AAg?$AAl?$AAi?$AAs?$AAh?$AA?9?$AAn?$AAz?$AA?$AA@ 00561f80     LIBCMTD:getqloc.obj
 0003:00022f9c       ??_C@_1CK@FGOEJJCO@?$AAe?$AAn?$AAg?$AAl?$AAi?$AAs?$AAh?$AA?9?$AAs?$AAo?$AAu?$AAt?$AAh?$AA?5?$AAa?$AAf?$AAr?$AAi?$AAc?$AAa?$AA?$AA@ 00561f9c     LIBCMTD:getqloc.obj
 0003:00022fd0       ??_C@_1DE@PDBJPCJ@?$AAe?$AAn?$AAg?$AAl?$AAi?$AAs?$AAh?$AA?9?$AAt?$AAr?$AAi?$AAn?$AAi?$AAd?$AAa?$AAd?$AA?5?$AAy?$AA?5?$AAt?$AAo?$AAb?$AAa?$AAg?$AAo?$AA?$AA@ 00561fd0     LIBCMTD:getqloc.obj
 0003:00023010       ??_C@_1BG@JGCANDME@?$AAe?$AAn?$AAg?$AAl?$AAi?$AAs?$AAh?$AA?9?$AAu?$AAk?$AA?$AA@ 00562010     LIBCMTD:getqloc.obj
 0003:0002302c       ??_C@_1BG@DINKMLE@?$AAe?$AAn?$AAg?$AAl?$AAi?$AAs?$AAh?$AA?9?$AAu?$AAs?$AA?$AA@ 0056202c     LIBCMTD:getqloc.obj
 0003:00023048       ??_C@_1BI@NMFDBHJE@?$AAe?$AAn?$AAg?$AAl?$AAi?$AAs?$AAh?$AA?9?$AAu?$AAs?$AAa?$AA?$AA@ 00562048     LIBCMTD:getqloc.obj
 0003:00023064       ??_C@_1BO@OIHKJKII@?$AAf?$AAr?$AAe?$AAn?$AAc?$AAh?$AA?9?$AAb?$AAe?$AAl?$AAg?$AAi?$AAa?$AAn?$AA?$AA@ 00562064     LIBCMTD:getqloc.obj
 0003:00023088       ??_C@_1CA@NKAELJKI@?$AAf?$AAr?$AAe?$AAn?$AAc?$AAh?$AA?9?$AAc?$AAa?$AAn?$AAa?$AAd?$AAi?$AAa?$AAn?$AA?$AA@ 00562088     LIBCMTD:getqloc.obj
 0003:000230b0       ??_C@_1CE@MGKCNLGN@?$AAf?$AAr?$AAe?$AAn?$AAc?$AAh?$AA?9?$AAl?$AAu?$AAx?$AAe?$AAm?$AAb?$AAo?$AAu?$AAr?$AAg?$AA?$AA@ 005620b0     LIBCMTD:getqloc.obj
 0003:000230dc       ??_C@_1BK@CEGEAILM@?$AAf?$AAr?$AAe?$AAn?$AAc?$AAh?$AA?9?$AAs?$AAw?$AAi?$AAs?$AAs?$AA?$AA@ 005620dc     LIBCMTD:getqloc.obj
 0003:000230fc       ??_C@_1CA@PAFKEOCC@?$AAg?$AAe?$AAr?$AAm?$AAa?$AAn?$AA?9?$AAa?$AAu?$AAs?$AAt?$AAr?$AAi?$AAa?$AAn?$AA?$AA@ 005620fc     LIBCMTD:getqloc.obj
 0003:00023124       ??_C@_1CI@HCFHGOFD@?$AAg?$AAe?$AAr?$AAm?$AAa?$AAn?$AA?9?$AAl?$AAi?$AAc?$AAh?$AAt?$AAe?$AAn?$AAs?$AAt?$AAe?$AAi?$AAn?$AA?$AA@ 00562124     LIBCMTD:getqloc.obj
 0003:00023154       ??_C@_1CE@FEDDNPDG@?$AAg?$AAe?$AAr?$AAm?$AAa?$AAn?$AA?9?$AAl?$AAu?$AAx?$AAe?$AAm?$AAb?$AAo?$AAu?$AAr?$AAg?$AA?$AA@ 00562154     LIBCMTD:getqloc.obj
 0003:00023180       ??_C@_1BK@LIMINNMN@?$AAg?$AAe?$AAr?$AAm?$AAa?$AAn?$AA?9?$AAs?$AAw?$AAi?$AAs?$AAs?$AA?$AA@ 00562180     LIBCMTD:getqloc.obj
 0003:000231a0       ??_C@_1BM@LGMDBEPD@?$AAi?$AAr?$AAi?$AAs?$AAh?$AA?9?$AAe?$AAn?$AAg?$AAl?$AAi?$AAs?$AAh?$AA?$AA@ 005621a0     LIBCMTD:getqloc.obj
 0003:000231c4       ??_C@_1BM@NNCFBAEE@?$AAi?$AAt?$AAa?$AAl?$AAi?$AAa?$AAn?$AA?9?$AAs?$AAw?$AAi?$AAs?$AAs?$AA?$AA@ 005621c4     LIBCMTD:getqloc.obj
 0003:000231e8       ??_C@_1BE@FEDJNPIB@?$AAn?$AAo?$AAr?$AAw?$AAe?$AAg?$AAi?$AAa?$AAn?$AA?$AA@ 005621e8     LIBCMTD:getqloc.obj
 0003:00023200       ??_C@_1CC@CILKDEIE@?$AAn?$AAo?$AAr?$AAw?$AAe?$AAg?$AAi?$AAa?$AAn?$AA?9?$AAb?$AAo?$AAk?$AAm?$AAa?$AAl?$AA?$AA@ 00562200     LIBCMTD:getqloc.obj
 0003:00023228       ??_C@_1CE@DHMMHEPL@?$AAn?$AAo?$AAr?$AAw?$AAe?$AAg?$AAi?$AAa?$AAn?$AA?9?$AAn?$AAy?$AAn?$AAo?$AAr?$AAs?$AAk?$AA?$AA@ 00562228     LIBCMTD:getqloc.obj
 0003:00023254       ??_C@_1CK@OPNMHECD@?$AAp?$AAo?$AAr?$AAt?$AAu?$AAg?$AAu?$AAe?$AAs?$AAe?$AA?9?$AAb?$AAr?$AAa?$AAz?$AAi?$AAl?$AAi?$AAa?$AAn?$AA?$AA@ 00562254     LIBCMTD:getqloc.obj
 0003:00023288       ??_C@_1CE@KEEHCDB@?$AAs?$AAp?$AAa?$AAn?$AAi?$AAs?$AAh?$AA?9?$AAa?$AAr?$AAg?$AAe?$AAn?$AAt?$AAi?$AAn?$AAa?$AA?$AA@ 00562288     LIBCMTD:getqloc.obj
 0003:000232b4       ??_C@_1CA@GIAOLHJD@?$AAs?$AAp?$AAa?$AAn?$AAi?$AAs?$AAh?$AA?9?$AAb?$AAo?$AAl?$AAi?$AAv?$AAi?$AAa?$AA?$AA@ 005622b4     LIBCMTD:getqloc.obj
 0003:000232dc       ??_C@_1BM@OJNDFNPD@?$AAs?$AAp?$AAa?$AAn?$AAi?$AAs?$AAh?$AA?9?$AAc?$AAh?$AAi?$AAl?$AAe?$AA?$AA@ 005622dc     LIBCMTD:getqloc.obj
 0003:00023300       ??_C@_1CC@OCOLPALL@?$AAs?$AAp?$AAa?$AAn?$AAi?$AAs?$AAh?$AA?9?$AAc?$AAo?$AAl?$AAo?$AAm?$AAb?$AAi?$AAa?$AA?$AA@ 00562300     LIBCMTD:getqloc.obj
 0003:00023328       ??_C@_1CG@BPOFMKBB@?$AAs?$AAp?$AAa?$AAn?$AAi?$AAs?$AAh?$AA?9?$AAc?$AAo?$AAs?$AAt?$AAa?$AA?5?$AAr?$AAi?$AAc?$AAa?$AA?$AA@ 00562328     LIBCMTD:getqloc.obj
 0003:00023358       ??_C@_1DG@IGOBAPBB@?$AAs?$AAp?$AAa?$AAn?$AAi?$AAs?$AAh?$AA?9?$AAd?$AAo?$AAm?$AAi?$AAn?$AAi?$AAc?$AAa?$AAn?$AA?5?$AAr?$AAe?$AAp?$AAu?$AAb?$AAl?$AAi?$AAc?$AA?$AA@ 00562358     LIBCMTD:getqloc.obj
 0003:00023398       ??_C@_1CA@JHAPGEGI@?$AAs?$AAp?$AAa?$AAn?$AAi?$AAs?$AAh?$AA?9?$AAe?$AAc?$AAu?$AAa?$AAd?$AAo?$AAr?$AA?$AA@ 00562398     LIBCMTD:getqloc.obj
 0003:000233c0       ??_C@_1CI@LAPALJPP@?$AAs?$AAp?$AAa?$AAn?$AAi?$AAs?$AAh?$AA?9?$AAe?$AAl?$AA?5?$AAs?$AAa?$AAl?$AAv?$AAa?$AAd?$AAo?$AAr?$AA?$AA@ 005623c0     LIBCMTD:getqloc.obj
 0003:000233f0       ??_C@_1CE@PDGBOFOM@?$AAs?$AAp?$AAa?$AAn?$AAi?$AAs?$AAh?$AA?9?$AAg?$AAu?$AAa?$AAt?$AAe?$AAm?$AAa?$AAl?$AAa?$AA?$AA@ 005623f0     LIBCMTD:getqloc.obj
 0003:0002341c       ??_C@_1CC@NBEBAODI@?$AAs?$AAp?$AAa?$AAn?$AAi?$AAs?$AAh?$AA?9?$AAh?$AAo?$AAn?$AAd?$AAu?$AAr?$AAa?$AAs?$AA?$AA@ 0056241c     LIBCMTD:getqloc.obj
 0003:00023444       ??_C@_1CA@LLKGHBMF@?$AAs?$AAp?$AAa?$AAn?$AAi?$AAs?$AAh?$AA?9?$AAm?$AAe?$AAx?$AAi?$AAc?$AAa?$AAn?$AA?$AA@ 00562444     LIBCMTD:getqloc.obj
 0003:0002346c       ??_C@_1BO@LKNDOIGD@?$AAs?$AAp?$AAa?$AAn?$AAi?$AAs?$AAh?$AA?9?$AAm?$AAo?$AAd?$AAe?$AAr?$AAn?$AA?$AA@ 0056246c     LIBCMTD:getqloc.obj
 0003:00023490       ??_C@_1CE@NMDMOEEB@?$AAs?$AAp?$AAa?$AAn?$AAi?$AAs?$AAh?$AA?9?$AAn?$AAi?$AAc?$AAa?$AAr?$AAa?$AAg?$AAu?$AAa?$AA?$AA@ 00562490     LIBCMTD:getqloc.obj
 0003:000234bc       ??_C@_1BO@LLCBEJGB@?$AAs?$AAp?$AAa?$AAn?$AAi?$AAs?$AAh?$AA?9?$AAp?$AAa?$AAn?$AAa?$AAm?$AAa?$AA?$AA@ 005624bc     LIBCMTD:getqloc.obj
 0003:000234e0       ??_C@_1CC@FKPGGIHO@?$AAs?$AAp?$AAa?$AAn?$AAi?$AAs?$AAh?$AA?9?$AAp?$AAa?$AAr?$AAa?$AAg?$AAu?$AAa?$AAy?$AA?$AA@ 005624e0     LIBCMTD:getqloc.obj
 0003:00023508       ??_C@_1BK@CDEIHOOP@?$AAs?$AAp?$AAa?$AAn?$AAi?$AAs?$AAh?$AA?9?$AAp?$AAe?$AAr?$AAu?$AA?$AA@ 00562508     LIBCMTD:getqloc.obj
 0003:00023528       ??_C@_1CI@GAHAKKGP@?$AAs?$AAp?$AAa?$AAn?$AAi?$AAs?$AAh?$AA?9?$AAp?$AAu?$AAe?$AAr?$AAt?$AAo?$AA?5?$AAr?$AAi?$AAc?$AAo?$AA?$AA@ 00562528     LIBCMTD:getqloc.obj
 0003:00023558       ??_C@_1CA@NKJBCAGP@?$AAs?$AAp?$AAa?$AAn?$AAi?$AAs?$AAh?$AA?9?$AAu?$AAr?$AAu?$AAg?$AAu?$AAa?$AAy?$AA?$AA@ 00562558     LIBCMTD:getqloc.obj
 0003:00023580       ??_C@_1CE@ODILCONM@?$AAs?$AAp?$AAa?$AAn?$AAi?$AAs?$AAh?$AA?9?$AAv?$AAe?$AAn?$AAe?$AAz?$AAu?$AAe?$AAl?$AAa?$AA?$AA@ 00562580     LIBCMTD:getqloc.obj
 0003:000235ac       ??_C@_1CA@OBNMCGFO@?$AAs?$AAw?$AAe?$AAd?$AAi?$AAs?$AAh?$AA?9?$AAf?$AAi?$AAn?$AAl?$AAa?$AAn?$AAd?$AA?$AA@ 005625ac     LIBCMTD:getqloc.obj
 0003:000235d4       ??_C@_1M@PIPDDPPI@?$AAs?$AAw?$AAi?$AAs?$AAs?$AA?$AA@ 005625d4     LIBCMTD:getqloc.obj
 0003:000235e4       ??_C@_15PJPFLCCM@?$AAu?$AAk?$AA?$AA@ 005625e4     LIBCMTD:getqloc.obj
 0003:000235ec       ??_C@_15GMFIMNFM@?$AAu?$AAs?$AA?$AA@ 005625ec     LIBCMTD:getqloc.obj
 0003:000235f4       ??_C@_17HAEBFAGL@?$AAu?$AAs?$AAa?$AA?$AA@ 005625f4     LIBCMTD:getqloc.obj
 0003:00023600       ___rg_country              00562600     LIBCMTD:getqloc.obj
 0003:0002374c       ??_C@_1BA@DPFJEPHB@?$AAa?$AAm?$AAe?$AAr?$AAi?$AAc?$AAa?$AA?$AA@ 0056274c     LIBCMTD:getqloc.obj
 0003:00023760       ??_C@_1BA@ELOGGFK@?$AAb?$AAr?$AAi?$AAt?$AAa?$AAi?$AAn?$AA?$AA@ 00562760     LIBCMTD:getqloc.obj
 0003:00023774       ??_C@_1M@GHBGIGDA@?$AAc?$AAh?$AAi?$AAn?$AAa?$AA?$AA@ 00562774     LIBCMTD:getqloc.obj
 0003:00023784       ??_C@_1M@NCHEJOPO@?$AAc?$AAz?$AAe?$AAc?$AAh?$AA?$AA@ 00562784     LIBCMTD:getqloc.obj
 0003:00023794       ??_C@_1BA@BKPAPBLA@?$AAe?$AAn?$AAg?$AAl?$AAa?$AAn?$AAd?$AA?$AA@ 00562794     LIBCMTD:getqloc.obj
 0003:000237a8       ??_C@_1BM@HKBCKIPC@?$AAg?$AAr?$AAe?$AAa?$AAt?$AA?5?$AAb?$AAr?$AAi?$AAt?$AAa?$AAi?$AAn?$AA?$AA@ 005627a8     LIBCMTD:getqloc.obj
 0003:000237cc       ??_C@_1BA@PPCHPGJB@?$AAh?$AAo?$AAl?$AAl?$AAa?$AAn?$AAd?$AA?$AA@ 005627cc     LIBCMTD:getqloc.obj
 0003:000237e0       ??_C@_1BE@JBMPEGDG@?$AAh?$AAo?$AAn?$AAg?$AA?9?$AAk?$AAo?$AAn?$AAg?$AA?$AA@ 005627e0     LIBCMTD:getqloc.obj
 0003:000237f8       ??_C@_1BI@KOELBBPJ@?$AAn?$AAe?$AAw?$AA?9?$AAz?$AAe?$AAa?$AAl?$AAa?$AAn?$AAd?$AA?$AA@ 005627f8     LIBCMTD:getqloc.obj
 0003:00023814       ??_C@_15HIEBHAIO@?$AAn?$AAz?$AA?$AA@ 00562814     LIBCMTD:getqloc.obj
 0003:0002381c       ??_C@_1BC@CHBCPFPI@?$AAp?$AAr?$AA?5?$AAc?$AAh?$AAi?$AAn?$AAa?$AA?$AA@ 0056281c     LIBCMTD:getqloc.obj
 0003:00023834       ??_C@_1BC@JAOIIFKD@?$AAp?$AAr?$AA?9?$AAc?$AAh?$AAi?$AAn?$AAa?$AA?$AA@ 00562834     LIBCMTD:getqloc.obj
 0003:0002384c       ??_C@_1BI@BEHPPHKC@?$AAp?$AAu?$AAe?$AAr?$AAt?$AAo?$AA?9?$AAr?$AAi?$AAc?$AAo?$AA?$AA@ 0056284c     LIBCMTD:getqloc.obj
 0003:00023868       ??_C@_1O@PAEOFKDI@?$AAs?$AAl?$AAo?$AAv?$AAa?$AAk?$AA?$AA@ 00562868     LIBCMTD:getqloc.obj
 0003:00023878       ??_C@_1BK@FIHMCKAM@?$AAs?$AAo?$AAu?$AAt?$AAh?$AA?5?$AAa?$AAf?$AAr?$AAi?$AAc?$AAa?$AA?$AA@ 00562878     LIBCMTD:getqloc.obj
 0003:00023898       ??_C@_1BI@NAEOODKB@?$AAs?$AAo?$AAu?$AAt?$AAh?$AA?5?$AAk?$AAo?$AAr?$AAe?$AAa?$AA?$AA@ 00562898     LIBCMTD:getqloc.obj
 0003:000238b4       ??_C@_1BK@FBDGGIFF@?$AAs?$AAo?$AAu?$AAt?$AAh?$AA?9?$AAa?$AAf?$AAr?$AAi?$AAc?$AAa?$AA?$AA@ 005628b4     LIBCMTD:getqloc.obj
 0003:000238d4       ??_C@_1BI@GHLEJDPK@?$AAs?$AAo?$AAu?$AAt?$AAh?$AA?9?$AAk?$AAo?$AAr?$AAe?$AAa?$AA?$AA@ 005628d4     LIBCMTD:getqloc.obj
 0003:000238f0       ??_C@_1CE@PLHLOMJF@?$AAt?$AAr?$AAi?$AAn?$AAi?$AAd?$AAa?$AAd?$AA?5?$AA?$CG?$AA?5?$AAt?$AAo?$AAb?$AAa?$AAg?$AAo?$AA?$AA@ 005628f0     LIBCMTD:getqloc.obj
 0003:0002391c       ??_C@_1BO@MODIMHHI@?$AAu?$AAn?$AAi?$AAt?$AAe?$AAd?$AA?9?$AAk?$AAi?$AAn?$AAg?$AAd?$AAo?$AAm?$AA?$AA@ 0056291c     LIBCMTD:getqloc.obj
 0003:00023940       ??_C@_1BM@FFHJONBJ@?$AAu?$AAn?$AAi?$AAt?$AAe?$AAd?$AA?9?$AAs?$AAt?$AAa?$AAt?$AAe?$AAs?$AA?$AA@ 00562940     LIBCMTD:getqloc.obj
 0003:00023964       ___rg_language_count       00562964     LIBCMTD:getqloc.obj
 0003:00023968       ___rg_country_count        00562968     LIBCMTD:getqloc.obj
 0003:00023970       ??_C@_1FA@KCJCBMIG@?$AAf?$AA?3?$AA?2?$AAd?$AAd?$AA?2?$AAv?$AAc?$AAt?$AAo?$AAo?$AAl?$AAs?$AA?2?$AAc?$AAr?$AAt?$AA?2?$AAc?$AAr?$AAt?$AAw?$AA3?$AA2?$AA?2?$AAm?$AAi?$AAs?$AAc?$AA?2?$AAg?$AAe@ 00562970     LIBCMTD:getqloc.obj
 0003:000239d0       ??_C@_1CO@NJACLALJ@?$AA_?$AA_?$AAg?$AAe?$AAt?$AA_?$AAq?$AAu?$AAa?$AAl?$AAi?$AAf?$AAi?$AAe?$AAd?$AA_?$AAl?$AAo?$AAc?$AAa?$AAl?$AAe?$AA?$AA@ 005629d0     LIBCMTD:getqloc.obj
 0003:00023a08       ??_C@_1BGM@FCCPEFDE@?$AAw?$AAc?$AAs?$AAn?$AAc?$AAp?$AAy?$AA_?$AAs?$AA?$CI?$AAl?$AAp?$AAO?$AAu?$AAt?$AAS?$AAt?$AAr?$AA?9?$AA?$DO?$AAs?$AAz?$AAL?$AAo?$AAc?$AAa?$AAl?$AAe?$AAN?$AAa?$AAm?$AAe@ 00562a08     LIBCMTD:getqloc.obj
 0003:00023bbc       ??_C@_1CM@OGEMFJNJ@?$AAL?$AAa?$AAn?$AAg?$AAC?$AAo?$AAu?$AAn?$AAt?$AAr?$AAy?$AAE?$AAn?$AAu?$AAm?$AAP?$AAr?$AAo?$AAc?$AAE?$AAx?$AA?$AA@ 00562bbc     LIBCMTD:getqloc.obj
 0003:00023bf0       ??_C@_1BFO@LLJKJAIC@?$AAw?$AAc?$AAs?$AAn?$AAc?$AAp?$AAy?$AA_?$AAs?$AA?$CI?$AA_?$AAp?$AAs?$AAe?$AAt?$AAl?$AAo?$AAc?$AA_?$AAd?$AAa?$AAt?$AAa?$AA?9?$AA?$DO?$AA_?$AAc?$AAa?$AAc?$AAh?$AAe?$AAL@ 00562bf0     LIBCMTD:getqloc.obj
 0003:00023d94       ??_C@_1CG@PGLLICHO@?$AAL?$AAa?$AAn?$AAg?$AAu?$AAa?$AAg?$AAe?$AAE?$AAn?$AAu?$AAm?$AAP?$AAr?$AAo?$AAc?$AAE?$AAx?$AA?$AA@ 00562d94     LIBCMTD:getqloc.obj
 0003:00023dc4       ??_C@_1DC@CPKFANGP@?$AAG?$AAe?$AAt?$AAL?$AAo?$AAc?$AAa?$AAl?$AAe?$AAN?$AAa?$AAm?$AAe?$AAF?$AAr?$AAo?$AAm?$AAD?$AAe?$AAf?$AAa?$AAu?$AAl?$AAt?$AA?$AA@ 00562dc4     LIBCMTD:getqloc.obj
 0003:00023e00       ??_C@_1BEO@EJBNGKHB@?$AAw?$AAc?$AAs?$AAn?$AAc?$AAp?$AAy?$AA_?$AAs?$AA?$CI?$AA_?$AAp?$AAs?$AAe?$AAt?$AAl?$AAo?$AAc?$AA_?$AAd?$AAa?$AAt?$AAa?$AA?9?$AA?$DO?$AA_?$AAc?$AAa?$AAc?$AAh?$AAe?$AAL@ 00562e00     LIBCMTD:getqloc.obj
 0003:00023f90       ??_C@_17DNCLJFIF@?$AAA?$AAC?$AAP?$AA?$AA@ 00562f90     LIBCMTD:getqloc.obj
 0003:00023f9c       ??_C@_17CIKBIHLH@?$AAO?$AAC?$AAP?$AA?$AA@ 00562f9c     LIBCMTD:getqloc.obj
 0003:00023fa8       ___rglangidNotDefault      00562fa8     LIBCMTD:getqloc_downlevel.obj
 0003:00023fc0       ??_C@_15EDMHLDMO@?$AAc?$AAa?$AA?$AA@ 00562fc0     LIBCMTD:winapinls.obj
 0003:00023fc8       ??_C@_1O@BPEAJADD@?$AAz?$AAh?$AA?9?$AAC?$AAH?$AAS?$AA?$AA@ 00562fc8     LIBCMTD:winapinls.obj
 0003:00023fd8       ??_C@_15LJNHCMNK@?$AAc?$AAs?$AA?$AA@ 00562fd8     LIBCMTD:winapinls.obj
 0003:00023fe0       ??_C@_15FOMCIDHG@?$AAd?$AAa?$AA?$AA@ 00562fe0     LIBCMTD:winapinls.obj
 0003:00023fe8       ??_C@_15NBKABECB@?$AAd?$AAe?$AA?$AA@ 00562fe8     LIBCMTD:winapinls.obj
 0003:00023ff0       ??_C@_15GHPEIIAO@?$AAe?$AAl?$AA?$AA@ 00562ff0     LIBCMTD:winapinls.obj
 0003:00023ff8       ??_C@_15MNPNEAIF@?$AAe?$AAn?$AA?$AA@ 00562ff8     LIBCMTD:winapinls.obj
 0003:00024000       ??_C@_15GPIOMPMH@?$AAe?$AAs?$AA?$AA@ 00563000     LIBCMTD:winapinls.obj
 0003:00024008       ??_C@_15NGLOAKJC@?$AAf?$AAi?$AA?$AA@ 00563008     LIBCMTD:winapinls.obj
 0003:00024010       ??_C@_15FBKGNKAM@?$AAf?$AAr?$AA?$AA@ 00563010     LIBCMTD:winapinls.obj
 0003:00024018       ??_C@_15KGGCNEFK@?$AAh?$AAe?$AA?$AA@ 00563018     LIBCMTD:winapinls.obj
 0003:00024020       ??_C@_15PGHLIDMF@?$AAh?$AAu?$AA?$AA@ 00563020     LIBCMTD:winapinls.obj
 0003:00024028       ??_C@_15BIEMAPLM@?$AAi?$AAs?$AA?$AA@ 00563028     LIBCMTD:winapinls.obj
 0003:00024030       ??_C@_15IFJLDHAF@?$AAi?$AAt?$AA?$AA@ 00563030     LIBCMTD:winapinls.obj
 0003:00024038       ??_C@_15GEMIOCAG@?$AAj?$AAa?$AA?$AA@ 00563038     LIBCMTD:winapinls.obj
 0003:00024040       ??_C@_15EPELEGJA@?$AAk?$AAo?$AA?$AA@ 00563040     LIBCMTD:winapinls.obj
 0003:00024048       ??_C@_15NDDHIMN@?$AAn?$AAl?$AA?$AA@ 00563048     LIBCMTD:winapinls.obj
 0003:00024050       ??_C@_15BPIGNHCD@?$AAn?$AAo?$AA?$AA@ 00563050     LIBCMTD:winapinls.obj
 0003:00024058       ??_C@_15DEOPBLCG@?$AAp?$AAl?$AA?$AA@ 00563058     LIBCMTD:winapinls.obj
 0003:00024060       ??_C@_15KBECGEFG@?$AAp?$AAt?$AA?$AA@ 00563060     LIBCMTD:winapinls.obj
 0003:00024068       ??_C@_15GLJCBFMD@?$AAr?$AAo?$AA?$AA@ 00563068     LIBCMTD:winapinls.obj
 0003:00024070       ??_C@_15FEDGKCDI@?$AAr?$AAu?$AA?$AA@ 00563070     LIBCMTD:winapinls.obj
 0003:00024078       ??_C@_15GLKMLLHM@?$AAh?$AAr?$AA?$AA@ 00563078     LIBCMTD:winapinls.obj
 0003:00024080       ??_C@_15CPKMFBDB@?$AAs?$AAk?$AA?$AA@ 00563080     LIBCMTD:winapinls.obj
 0003:00024088       ??_C@_15BAAIOGMK@?$AAs?$AAq?$AA?$AA@ 00563088     LIBCMTD:winapinls.obj
 0003:00024090       ??_C@_15INNPNOHD@?$AAs?$AAv?$AA?$AA@ 00563090     LIBCMTD:winapinls.obj
 0003:00024098       ??_C@_15CABMMOGH@?$AAt?$AAh?$AA?$AA@ 00563098     LIBCMTD:winapinls.obj
 0003:000240a0       ??_C@_15BPLIHJJM@?$AAt?$AAr?$AA?$AA@ 005630a0     LIBCMTD:winapinls.obj
 0003:000240a8       ??_C@_15NEOEKKDJ@?$AAu?$AAr?$AA?$AA@ 005630a8     LIBCMTD:winapinls.obj
 0003:000240b0       ??_C@_15NFICGAJK@?$AAi?$AAd?$AA?$AA@ 005630b0     LIBCMTD:winapinls.obj
 0003:000240b8       ??_C@_15HPJPHDM@?$AAb?$AAe?$AA?$AA@ 005630b8     LIBCMTD:winapinls.obj
 0003:000240c0       ??_C@_15LCHLGJII@?$AAs?$AAl?$AA?$AA@ 005630c0     LIBCMTD:winapinls.obj
 0003:000240c8       ??_C@_15PCFJPHHO@?$AAe?$AAt?$AA?$AA@ 005630c8     LIBCMTD:winapinls.obj
 0003:000240d0       ??_C@_15HPFPGODN@?$AAl?$AAv?$AA?$AA@ 005630d0     LIBCMTD:winapinls.obj
 0003:000240d8       ??_C@_15NFFGKGLG@?$AAl?$AAt?$AA?$AA@ 005630d8     LIBCMTD:winapinls.obj
 0003:000240e0       ??_C@_15BDAKCCHN@?$AAf?$AAa?$AA?$AA@ 005630e0     LIBCMTD:winapinls.obj
 0003:000240e8       ??_C@_15NFGIAIAJ@?$AAv?$AAi?$AA?$AA@ 005630e8     LIBCMTD:winapinls.obj
 0003:000240f0       ??_C@_15LMKNDMHN@?$AAh?$AAy?$AA?$AA@ 005630f0     LIBCMTD:winapinls.obj
 0003:000240f8       ??_C@_15IJBHMCFL@?$AAa?$AAz?$AA?$AA@ 005630f8     LIBCMTD:winapinls.obj
 0003:00024100       ??_C@_15EKOFJABL@?$AAe?$AAu?$AA?$AA@ 00563100     LIBCMTD:winapinls.obj
 0003:00024108       ??_C@_15BGHADCNK@?$AAm?$AAk?$AA?$AA@ 00563108     LIBCMTD:winapinls.obj
 0003:00024110       ??_C@_15JDNICKHM@?$AAa?$AAf?$AA?$AA@ 00563110     LIBCMTD:winapinls.obj
 0003:00024118       ??_C@_15KPJEDBKD@?$AAk?$AAa?$AA?$AA@ 00563118     LIBCMTD:winapinls.obj
 0003:00024120       ??_C@_15PDNFFFEO@?$AAf?$AAo?$AA?$AA@ 00563120     LIBCMTD:winapinls.obj
 0003:00024128       ??_C@_15OMLEGLOC@?$AAh?$AAi?$AA?$AA@ 00563128     LIBCMTD:winapinls.obj
 0003:00024130       ??_C@_15IDNNENKK@?$AAm?$AAs?$AA?$AA@ 00563130     LIBCMTD:winapinls.obj
 0003:00024138       ??_C@_15MACJNBMH@?$AAk?$AAk?$AA?$AA@ 00563138     LIBCMTD:winapinls.obj
 0003:00024140       ??_C@_15DKDJEOND@?$AAk?$AAy?$AA?$AA@ 00563140     LIBCMTD:winapinls.obj
 0003:00024148       ??_C@_15DFGDLJBG@?$AAs?$AAw?$AA?$AA@ 00563148     LIBCMTD:winapinls.obj
 0003:00024150       ??_C@_15BBFAICNG@?$AAu?$AAz?$AA?$AA@ 00563150     LIBCMTD:winapinls.obj
 0003:00024158       ??_C@_15DKNDCGEA@?$AAt?$AAt?$AA?$AA@ 00563158     LIBCMTD:winapinls.obj
 0003:00024160       ??_C@_15MGIFMDPL@?$AAp?$AAa?$AA?$AA@ 00563160     LIBCMTD:winapinls.obj
 0003:00024168       ??_C@_15HCNDBBA@?$AAg?$AAu?$AA?$AA@ 00563168     LIBCMTD:winapinls.obj
 0003:00024170       ??_C@_15FNBEIBON@?$AAt?$AAa?$AA?$AA@ 00563170     LIBCMTD:winapinls.obj
 0003:00024178       ??_C@_15NCHGBGLK@?$AAt?$AAe?$AA?$AA@ 00563178     LIBCMTD:winapinls.obj
 0003:00024180       ??_C@_15PHPHCBPF@?$AAk?$AAn?$AA?$AA@ 00563180     LIBCMTD:winapinls.obj
 0003:00024188       ??_C@_15DLGBCKMP@?$AAm?$AAr?$AA?$AA@ 00563188     LIBCMTD:winapinls.obj
 0003:00024190       ??_C@_15EABBLBFF@?$AAs?$AAa?$AA?$AA@ 00563190     LIBCMTD:winapinls.obj
 0003:00024198       ??_C@_15CBKOMCOI@?$AAm?$AAn?$AA?$AA@ 00563198     LIBCMTD:winapinls.obj
 0003:000241a0       ??_C@_15CKDMCJAF@?$AAg?$AAl?$AA?$AA@ 005631a0     LIBCMTD:winapinls.obj
 0003:000241a8       ??_C@_17CNJFBPG@?$AAk?$AAo?$AAk?$AA?$AA@ 005631a8     LIBCMTD:winapinls.obj
 0003:000241b4       ??_C@_17FFBJICPL@?$AAs?$AAy?$AAr?$AA?$AA@ 005631b4     LIBCMTD:winapinls.obj
 0003:000241c0       ??_C@_17KPNDCPAF@?$AAd?$AAi?$AAv?$AA?$AA@ 005631c0     LIBCMTD:winapinls.obj
 0003:000241cc       ??_C@_1M@OKAHONE@?$AAa?$AAr?$AA?9?$AAS?$AAA?$AA?$AA@ 005631cc     LIBCMTD:winapinls.obj
 0003:000241dc       ??_C@_1M@FFFIGIGK@?$AAb?$AAg?$AA?9?$AAB?$AAG?$AA?$AA@ 005631dc     LIBCMTD:winapinls.obj
 0003:000241ec       ??_C@_1M@BJNKEDC@?$AAc?$AAa?$AA?9?$AAE?$AAS?$AA?$AA@ 005631ec     LIBCMTD:winapinls.obj
 0003:000241fc       ??_C@_1M@IJJHFJHA@?$AAc?$AAs?$AA?9?$AAC?$AAZ?$AA?$AA@ 005631fc     LIBCMTD:winapinls.obj
 0003:0002420c       ??_C@_1M@CLPEOBGI@?$AAd?$AAa?$AA?9?$AAD?$AAK?$AA?$AA@ 0056320c     LIBCMTD:winapinls.obj
 0003:0002421c       ??_C@_1M@MCMADGCB@?$AAd?$AAe?$AA?9?$AAD?$AAE?$AA?$AA@ 0056321c     LIBCMTD:winapinls.obj
 0003:0002422c       ??_C@_1M@OOCKEMAM@?$AAe?$AAl?$AA?9?$AAG?$AAR?$AA?$AA@ 0056322c     LIBCMTD:winapinls.obj
 0003:0002423c       ??_C@_1M@DDNJFGID@?$AAf?$AAi?$AA?9?$AAF?$AAI?$AA?$AA@ 0056323c     LIBCMTD:winapinls.obj
 0003:0002424c       ??_C@_1M@GLIPPMAC@?$AAf?$AAr?$AA?9?$AAF?$AAR?$AA?$AA@ 0056324c     LIBCMTD:winapinls.obj
 0003:0002425c       ??_C@_1M@GFMCHPE@?$AAh?$AAe?$AA?9?$AAI?$AAL?$AA?$AA@ 0056325c     LIBCMTD:winapinls.obj
 0003:0002426c       ??_C@_1M@MHLPGNKM@?$AAh?$AAu?$AA?9?$AAH?$AAU?$AA?$AA@ 0056326c     LIBCMTD:winapinls.obj
 0003:0002427c       ??_C@_1M@LPDDNNPN@?$AAi?$AAs?$AA?9?$AAI?$AAS?$AA?$AA@ 0056327c     LIBCMTD:winapinls.obj
 0003:0002428c       ??_C@_1M@MADIPODN@?$AAi?$AAt?$AA?9?$AAI?$AAT?$AA?$AA@ 0056328c     LIBCMTD:winapinls.obj
 0003:0002429c       ??_C@_1M@IHBJJGG@?$AAn?$AAl?$AA?9?$AAN?$AAL?$AA?$AA@ 0056329c     LIBCMTD:winapinls.obj
 0003:000242ac       ??_C@_1M@EANAGDL@?$AAn?$AAb?$AA?9?$AAN?$AAO?$AA?$AA@ 005632ac     LIBCMTD:winapinls.obj
 0003:000242bc       ??_C@_1M@NEIEMEGP@?$AAp?$AAl?$AA?9?$AAP?$AAL?$AA?$AA@ 005632bc     LIBCMTD:winapinls.obj
 0003:000242cc       ??_C@_1M@BOCFIGEP@?$AAp?$AAt?$AA?9?$AAB?$AAR?$AA?$AA@ 005632cc     LIBCMTD:winapinls.obj
 0003:000242dc       ??_C@_1M@IMPFOPBG@?$AAr?$AAo?$AA?9?$AAR?$AAO?$AA?$AA@ 005632dc     LIBCMTD:winapinls.obj
 0003:000242ec       ??_C@_1M@IDNNEJMM@?$AAr?$AAu?$AA?9?$AAR?$AAU?$AA?$AA@ 005632ec     LIBCMTD:winapinls.obj
 0003:000242fc       ??_C@_1M@LILEEOGM@?$AAh?$AAr?$AA?9?$AAH?$AAR?$AA?$AA@ 005632fc     LIBCMTD:winapinls.obj
 0003:0002430c       ??_C@_1M@FKIFEHPB@?$AAs?$AAk?$AA?9?$AAS?$AAK?$AA?$AA@ 0056330c     LIBCMTD:winapinls.obj
 0003:0002431c       ??_C@_1M@LJMAMNPJ@?$AAs?$AAq?$AA?9?$AAA?$AAL?$AA?$AA@ 0056331c     LIBCMTD:winapinls.obj
 0003:0002432c       ??_C@_1M@GIAKDKJK@?$AAs?$AAv?$AA?9?$AAS?$AAE?$AA?$AA@ 0056332c     LIBCMTD:winapinls.obj
 0003:0002433c       ??_C@_1M@MKJKIKCL@?$AAt?$AAh?$AA?9?$AAT?$AAH?$AA?$AA@ 0056333c     LIBCMTD:winapinls.obj
 0003:0002434c       ??_C@_1M@MFLCCMPB@?$AAt?$AAr?$AA?9?$AAT?$AAR?$AA?$AA@ 0056334c     LIBCMTD:winapinls.obj
 0003:0002435c       ??_C@_1M@OIJHDKJN@?$AAu?$AAr?$AA?9?$AAP?$AAK?$AA?$AA@ 0056335c     LIBCMTD:winapinls.obj
 0003:0002436c       ??_C@_1M@LHIPCIEK@?$AAi?$AAd?$AA?9?$AAI?$AAD?$AA?$AA@ 0056336c     LIBCMTD:winapinls.obj
 0003:0002437c       ??_C@_1M@MFMOBGI@?$AAu?$AAk?$AA?9?$AAU?$AAA?$AA?$AA@ 0056337c     LIBCMTD:winapinls.obj
 0003:0002438c       ??_C@_1M@OBGLJIPL@?$AAb?$AAe?$AA?9?$AAB?$AAY?$AA?$AA@ 0056338c     LIBCMTD:winapinls.obj
 0003:0002439c       ??_C@_1M@BCFAJEAD@?$AAs?$AAl?$AA?9?$AAS?$AAI?$AA?$AA@ 0056339c     LIBCMTD:winapinls.obj
 0003:000243ac       ??_C@_1M@FKFFEDDN@?$AAe?$AAt?$AA?9?$AAE?$AAE?$AA?$AA@ 005633ac     LIBCMTD:winapinls.obj
 0003:000243bc       ??_C@_1M@KGKKAACI@?$AAl?$AAv?$AA?9?$AAL?$AAV?$AA?$AA@ 005633bc     LIBCMTD:winapinls.obj
 0003:000243cc       ??_C@_1M@IFGBIJO@?$AAl?$AAt?$AA?9?$AAL?$AAT?$AA?$AA@ 005633cc     LIBCMTD:winapinls.obj
 0003:000243dc       ??_C@_1M@FGEAHEDM@?$AAf?$AAa?$AA?9?$AAI?$AAR?$AA?$AA@ 005633dc     LIBCMTD:winapinls.obj
 0003:000243ec       ??_C@_1M@KBMAIBFN@?$AAv?$AAi?$AA?9?$AAV?$AAN?$AA?$AA@ 005633ec     LIBCMTD:winapinls.obj
 0003:000243fc       ??_C@_1M@GPCBKDJK@?$AAh?$AAy?$AA?9?$AAA?$AAM?$AA?$AA@ 005633fc     LIBCMTD:winapinls.obj
 0003:0002440c       ??_C@_1BG@BECMDDJB@?$AAa?$AAz?$AA?9?$AAA?$AAZ?$AA?9?$AAL?$AAa?$AAt?$AAn?$AA?$AA@ 0056340c     LIBCMTD:winapinls.obj
 0003:00024428       ??_C@_1M@MAOFCAEA@?$AAe?$AAu?$AA?9?$AAE?$AAS?$AA?$AA@ 00563428     LIBCMTD:winapinls.obj
 0003:00024438       ??_C@_1M@IGHABKPI@?$AAm?$AAk?$AA?9?$AAM?$AAK?$AA?$AA@ 00563438     LIBCMTD:winapinls.obj
 0003:00024448       ??_C@_1M@IAIGNEJG@?$AAt?$AAn?$AA?9?$AAZ?$AAA?$AA?$AA@ 00563448     LIBCMTD:winapinls.obj
 0003:00024458       ??_C@_1M@IIJCOJFA@?$AAx?$AAh?$AA?9?$AAZ?$AAA?$AA?$AA@ 00563458     LIBCMTD:winapinls.obj
 0003:00024468       ??_C@_1M@LGPJHNJH@?$AAz?$AAu?$AA?9?$AAZ?$AAA?$AA?$AA@ 00563468     LIBCMTD:winapinls.obj
 0003:00024478       ??_C@_1M@HOKAOIO@?$AAa?$AAf?$AA?9?$AAZ?$AAA?$AA?$AA@ 00563478     LIBCMTD:winapinls.obj
 0003:00024488       ??_C@_1M@DPCLHLIE@?$AAk?$AAa?$AA?9?$AAG?$AAE?$AA?$AA@ 00563488     LIBCMTD:winapinls.obj
 0003:00024498       ??_C@_1M@BLKMHJBI@?$AAf?$AAo?$AA?9?$AAF?$AAO?$AA?$AA@ 00563498     LIBCMTD:winapinls.obj
 0003:000244a8       ??_C@_1M@LGGJAPPB@?$AAh?$AAi?$AA?9?$AAI?$AAN?$AA?$AA@ 005634a8     LIBCMTD:winapinls.obj
 0003:000244b8       ??_C@_1M@FIKPIHFE@?$AAm?$AAt?$AA?9?$AAM?$AAT?$AA?$AA@ 005634b8     LIBCMTD:winapinls.obj
 0003:000244c8       ??_C@_1M@HEGGPBFA@?$AAs?$AAe?$AA?9?$AAN?$AAO?$AA?$AA@ 005634c8     LIBCMTD:winapinls.obj
 0003:000244d8       ??_C@_1M@EIBJEEPA@?$AAm?$AAs?$AA?9?$AAM?$AAY?$AA?$AA@ 005634d8     LIBCMTD:winapinls.obj
 0003:000244e8       ??_C@_1M@FHLBGMPP@?$AAk?$AAk?$AA?9?$AAK?$AAZ?$AA?$AA@ 005634e8     LIBCMTD:winapinls.obj
 0003:000244f8       ??_C@_1M@NGJJLCGI@?$AAk?$AAy?$AA?9?$AAK?$AAG?$AA?$AA@ 005634f8     LIBCMTD:winapinls.obj
 0003:00024508       ??_C@_1M@GIENNBFC@?$AAs?$AAw?$AA?9?$AAK?$AAE?$AA?$AA@ 00563508     LIBCMTD:winapinls.obj
 0003:00024518       ??_C@_1BG@NDGMJIMJ@?$AAu?$AAz?$AA?9?$AAU?$AAZ?$AA?9?$AAL?$AAa?$AAt?$AAn?$AA?$AA@ 00563518     LIBCMTD:winapinls.obj
 0003:00024534       ??_C@_1M@IDCCIHBC@?$AAt?$AAt?$AA?9?$AAR?$AAU?$AA?$AA@ 00563534     LIBCMTD:winapinls.obj
 0003:00024544       ??_C@_1M@LOICPMOJ@?$AAb?$AAn?$AA?9?$AAI?$AAN?$AA?$AA@ 00563544     LIBCMTD:winapinls.obj
 0003:00024554       ??_C@_1M@KPKKNEAH@?$AAp?$AAa?$AA?9?$AAI?$AAN?$AA?$AA@ 00563554     LIBCMTD:winapinls.obj
 0003:00024564       ??_C@_1M@PJGPPBOG@?$AAg?$AAu?$AA?9?$AAI?$AAN?$AA?$AA@ 00563564     LIBCMTD:winapinls.obj
 0003:00024574       ??_C@_1M@KMKMOPHI@?$AAt?$AAa?$AA?9?$AAI?$AAN?$AA?$AA@ 00563574     LIBCMTD:winapinls.obj
 0003:00024584       ??_C@_1M@KFEHEPAC@?$AAt?$AAe?$AA?9?$AAI?$AAN?$AA?$AA@ 00563584     LIBCMTD:winapinls.obj
 0003:00024594       ??_C@_1M@CDCLMGHI@?$AAk?$AAn?$AA?9?$AAI?$AAN?$AA?$AA@ 00563594     LIBCMTD:winapinls.obj
 0003:000245a4       ??_C@_1M@MIODLDKF@?$AAm?$AAl?$AA?9?$AAI?$AAN?$AA?$AA@ 005635a4     LIBCMTD:winapinls.obj
 0003:000245b4       ??_C@_1M@PBIEACPO@?$AAm?$AAr?$AA?9?$AAI?$AAN?$AA?$AA@ 005635b4     LIBCMTD:winapinls.obj
 0003:000245c4       ??_C@_1M@NIDEAGPH@?$AAs?$AAa?$AA?9?$AAI?$AAN?$AA?$AA@ 005635c4     LIBCMTD:winapinls.obj
 0003:000245d4       ??_C@_1M@FHIHCBIO@?$AAm?$AAn?$AA?9?$AAM?$AAN?$AA?$AA@ 005635d4     LIBCMTD:winapinls.obj
 0003:000245e4       ??_C@_1M@JAIJPENP@?$AAc?$AAy?$AA?9?$AAG?$AAB?$AA?$AA@ 005635e4     LIBCMTD:winapinls.obj
 0003:000245f4       ??_C@_1M@PHGFBEPN@?$AAg?$AAl?$AA?9?$AAE?$AAS?$AA?$AA@ 005635f4     LIBCMTD:winapinls.obj
 0003:00024604       ??_C@_1O@KPIPDNCP@?$AAk?$AAo?$AAk?$AA?9?$AAI?$AAN?$AA?$AA@ 00563604     LIBCMTD:winapinls.obj
 0003:00024614       ??_C@_1O@KNHJLDJA@?$AAs?$AAy?$AAr?$AA?9?$AAS?$AAY?$AA?$AA@ 00563614     LIBCMTD:winapinls.obj
 0003:00024624       ??_C@_1O@MKEKBLAH@?$AAd?$AAi?$AAv?$AA?9?$AAM?$AAV?$AA?$AA@ 00563624     LIBCMTD:winapinls.obj
 0003:00024634       ??_C@_1O@OHDCKDDF@?$AAq?$AAu?$AAz?$AA?9?$AAB?$AAO?$AA?$AA@ 00563634     LIBCMTD:winapinls.obj
 0003:00024644       ??_C@_1M@LEPJNLFD@?$AAn?$AAs?$AA?9?$AAZ?$AAA?$AA?$AA@ 00563644     LIBCMTD:winapinls.obj
 0003:00024654       ??_C@_1M@OMLEIIJB@?$AAm?$AAi?$AA?9?$AAN?$AAZ?$AA?$AA@ 00563654     LIBCMTD:winapinls.obj
 0003:00024664       ??_C@_1M@PMPEAILG@?$AAa?$AAr?$AA?9?$AAI?$AAQ?$AA?$AA@ 00563664     LIBCMTD:winapinls.obj
 0003:00024674       ??_C@_1M@CNKPNOEE@?$AAd?$AAe?$AA?9?$AAC?$AAH?$AA?$AA@ 00563674     LIBCMTD:winapinls.obj
 0003:00024684       ??_C@_1M@LKMGMLKO@?$AAe?$AAn?$AA?9?$AAG?$AAB?$AA?$AA@ 00563684     LIBCMTD:winapinls.obj
 0003:00024694       ??_C@_1M@PGKJFFGL@?$AAe?$AAs?$AA?9?$AAM?$AAX?$AA?$AA@ 00563694     LIBCMTD:winapinls.obj
 0003:000246a4       ??_C@_1M@DNNANBDC@?$AAf?$AAr?$AA?9?$AAB?$AAE?$AA?$AA@ 005636a4     LIBCMTD:winapinls.obj
 0003:000246b4       ??_C@_1M@HLGMDFHM@?$AAi?$AAt?$AA?9?$AAC?$AAH?$AA?$AA@ 005636b4     LIBCMTD:winapinls.obj
 0003:000246c4       ??_C@_1M@CLLBGJH@?$AAn?$AAl?$AA?9?$AAB?$AAE?$AA?$AA@ 005636c4     LIBCMTD:winapinls.obj
 0003:000246d4       ??_C@_1M@BODBOGLF@?$AAn?$AAn?$AA?9?$AAN?$AAO?$AA?$AA@ 005636d4     LIBCMTD:winapinls.obj
 0003:000246e4       ??_C@_1M@HFFAHKAD@?$AAp?$AAt?$AA?9?$AAP?$AAT?$AA?$AA@ 005636e4     LIBCMTD:winapinls.obj
 0003:000246f4       ??_C@_1BG@LNOAKHIE@?$AAs?$AAr?$AA?9?$AAS?$AAP?$AA?9?$AAL?$AAa?$AAt?$AAn?$AA?$AA@ 005636f4     LIBCMTD:winapinls.obj
 0003:00024710       ??_C@_1M@HBMHBGAK@?$AAs?$AAv?$AA?9?$AAF?$AAI?$AA?$AA@ 00563710     LIBCMTD:winapinls.obj
 0003:00024720       ??_C@_1BG@DGCJGJBE@?$AAa?$AAz?$AA?9?$AAA?$AAZ?$AA?9?$AAC?$AAy?$AAr?$AAl?$AA?$AA@ 00563720     LIBCMTD:winapinls.obj
 0003:0002473c       ??_C@_1M@KEJDAAHB@?$AAs?$AAe?$AA?9?$AAS?$AAE?$AA?$AA@ 0056373c     LIBCMTD:winapinls.obj
 0003:0002474c       ??_C@_1M@HEIBJJAD@?$AAm?$AAs?$AA?9?$AAB?$AAN?$AA?$AA@ 0056374c     LIBCMTD:winapinls.obj
 0003:0002475c       ??_C@_1BG@PBGJMCEM@?$AAu?$AAz?$AA?9?$AAU?$AAZ?$AA?9?$AAC?$AAy?$AAr?$AAl?$AA?$AA@ 0056375c     LIBCMTD:winapinls.obj
 0003:00024778       ??_C@_1O@LAOBCMDF@?$AAq?$AAu?$AAz?$AA?9?$AAE?$AAC?$AA?$AA@ 00563778     LIBCMTD:winapinls.obj
 0003:00024788       ??_C@_1M@POEEMAIO@?$AAa?$AAr?$AA?9?$AAE?$AAG?$AA?$AA@ 00563788     LIBCMTD:winapinls.obj
 0003:00024798       ??_C@_1M@EFAKDEDL@?$AAz?$AAh?$AA?9?$AAH?$AAK?$AA?$AA@ 00563798     LIBCMTD:winapinls.obj
 0003:000247a8       ??_C@_1M@HKKIJHGI@?$AAd?$AAe?$AA?9?$AAA?$AAT?$AA?$AA@ 005637a8     LIBCMTD:winapinls.obj
 0003:000247b8       ??_C@_1M@KBFBEHJF@?$AAe?$AAn?$AA?9?$AAA?$AAU?$AA?$AA@ 005637b8     LIBCMTD:winapinls.obj
 0003:000247c8       ??_C@_1M@MNPLFAAH@?$AAe?$AAs?$AA?9?$AAE?$AAS?$AA?$AA@ 005637c8     LIBCMTD:winapinls.obj
 0003:000247d8       ??_C@_1M@HJOOJFMA@?$AAf?$AAr?$AA?9?$AAC?$AAA?$AA?$AA@ 005637d8     LIBCMTD:winapinls.obj
 0003:000247e8       ??_C@_1BG@JPOFPNAB@?$AAs?$AAr?$AA?9?$AAS?$AAP?$AA?9?$AAC?$AAy?$AAr?$AAl?$AA?$AA@ 005637e8     LIBCMTD:winapinls.obj
 0003:00024804       ??_C@_1M@LNFOCMOB@?$AAs?$AAe?$AA?9?$AAF?$AAI?$AA?$AA@ 00563804     LIBCMTD:winapinls.obj
 0003:00024814       ??_C@_1O@MGJBOAMB@?$AAq?$AAu?$AAz?$AA?9?$AAP?$AAE?$AA?$AA@ 00563814     LIBCMTD:winapinls.obj
 0003:00024824       ??_C@_1M@GJINLBOK@?$AAa?$AAr?$AA?9?$AAL?$AAY?$AA?$AA@ 00563824     LIBCMTD:winapinls.obj
 0003:00024834       ??_C@_1M@GGMNHJNL@?$AAz?$AAh?$AA?9?$AAS?$AAG?$AA?$AA@ 00563834     LIBCMTD:winapinls.obj
 0003:00024844       ??_C@_1M@HOIKODND@?$AAd?$AAe?$AA?9?$AAL?$AAU?$AA?$AA@ 00563844     LIBCMTD:winapinls.obj
 0003:00024854       ??_C@_1M@DDOCCGFG@?$AAe?$AAn?$AA?9?$AAC?$AAA?$AA?$AA@ 00563854     LIBCMTD:winapinls.obj
 0003:00024864       ??_C@_1M@BNOEMJLF@?$AAe?$AAs?$AA?9?$AAG?$AAT?$AA?$AA@ 00563864     LIBCMTD:winapinls.obj
 0003:00024874       ??_C@_1M@EOGNKEK@?$AAf?$AAr?$AA?9?$AAC?$AAH?$AA?$AA@ 00563874     LIBCMTD:winapinls.obj
 0003:00024884       ??_C@_1M@FLIDJFHL@?$AAh?$AAr?$AA?9?$AAB?$AAA?$AA?$AA@ 00563884     LIBCMTD:winapinls.obj
 0003:00024894       ??_C@_1O@FMCELNAJ@?$AAs?$AAm?$AAj?$AA?9?$AAN?$AAO?$AA?$AA@ 00563894     LIBCMTD:winapinls.obj
 0003:000248a4       ??_C@_1M@JHGLJMGJ@?$AAa?$AAr?$AA?9?$AAD?$AAZ?$AA?$AA@ 005638a4     LIBCMTD:winapinls.obj
 0003:000248b4       ??_C@_1M@JKKFDCNP@?$AAz?$AAh?$AA?9?$AAM?$AAO?$AA?$AA@ 005638b4     LIBCMTD:winapinls.obj
 0003:000248c4       ??_C@_1M@GEEFALPE@?$AAd?$AAe?$AA?9?$AAL?$AAI?$AA?$AA@ 005638c4     LIBCMTD:winapinls.obj
 0003:000248d4       ??_C@_1M@IGEOFBG@?$AAe?$AAn?$AA?9?$AAN?$AAZ?$AA?$AA@ 005638d4     LIBCMTD:winapinls.obj
 0003:000248e4       ??_C@_1M@KDBONEHP@?$AAe?$AAs?$AA?9?$AAC?$AAR?$AA?$AA@ 005638e4     LIBCMTD:winapinls.obj
 0003:000248f4       ??_C@_1M@FHMDOHNN@?$AAf?$AAr?$AA?9?$AAL?$AAU?$AA?$AA@ 005638f4     LIBCMTD:winapinls.obj
 0003:00024904       ??_C@_1BG@NFKKMAFG@?$AAb?$AAs?$AA?9?$AAB?$AAA?$AA?9?$AAL?$AAa?$AAt?$AAn?$AA?$AA@ 00563904     LIBCMTD:winapinls.obj
 0003:00024920       ??_C@_1O@IMNBEMCI@?$AAs?$AAm?$AAj?$AA?9?$AAS?$AAE?$AA?$AA@ 00563920     LIBCMTD:winapinls.obj
 0003:00024930       ??_C@_1M@DHHMBNDP@?$AAa?$AAr?$AA?9?$AAM?$AAA?$AA?$AA@ 00563930     LIBCMTD:winapinls.obj
 0003:00024940       ??_C@_1M@BNBLJCGH@?$AAe?$AAn?$AA?9?$AAI?$AAE?$AA?$AA@ 00563940     LIBCMTD:winapinls.obj
 0003:00024950       ??_C@_1M@GEPAFMDL@?$AAe?$AAs?$AA?9?$AAP?$AAA?$AA?$AA@ 00563950     LIBCMTD:winapinls.obj
 0003:00024960       ??_C@_1M@OJONDMDL@?$AAf?$AAr?$AA?9?$AAM?$AAC?$AA?$AA@ 00563960     LIBCMTD:winapinls.obj
 0003:00024970       ??_C@_1BG@OBCNFJB@?$AAs?$AAr?$AA?9?$AAB?$AAA?$AA?9?$AAL?$AAa?$AAt?$AAn?$AA?$AA@ 00563970     LIBCMTD:winapinls.obj
 0003:0002498c       ??_C@_1O@KEMEEGPO@?$AAs?$AAm?$AAa?$AA?9?$AAN?$AAO?$AA?$AA@ 0056398c     LIBCMTD:winapinls.obj
 0003:0002499c       ??_C@_1M@ELMGFODK@?$AAa?$AAr?$AA?9?$AAT?$AAN?$AA?$AA@ 0056399c     LIBCMTD:winapinls.obj
 0003:000249ac       ??_C@_1M@BHDLHFAF@?$AAe?$AAn?$AA?9?$AAZ?$AAA?$AA?$AA@ 005639ac     LIBCMTD:winapinls.obj
 0003:000249bc       ??_C@_1M@BMGIGLIF@?$AAe?$AAs?$AA?9?$AAD?$AAO?$AA?$AA@ 005639bc     LIBCMTD:winapinls.obj
 0003:000249cc       ??_C@_1BG@CMBHIPBE@?$AAs?$AAr?$AA?9?$AAB?$AAA?$AA?9?$AAC?$AAy?$AAr?$AAl?$AA?$AA@ 005639cc     LIBCMTD:winapinls.obj
 0003:000249e8       ??_C@_1O@HEDBLHNP@?$AAs?$AAm?$AAa?$AA?9?$AAS?$AAE?$AA?$AA@ 005639e8     LIBCMTD:winapinls.obj
 0003:000249f8       ??_C@_1M@DAGCADIM@?$AAa?$AAr?$AA?9?$AAO?$AAM?$AA?$AA@ 005639f8     LIBCMTD:winapinls.obj
 0003:00024a08       ??_C@_1M@FODLMICG@?$AAe?$AAn?$AA?9?$AAJ?$AAM?$AA?$AA@ 00563a08     LIBCMTD:winapinls.obj
 0003:00024a18       ??_C@_1M@DNMLCIHB@?$AAe?$AAs?$AA?9?$AAV?$AAE?$AA?$AA@ 00563a18     LIBCMTD:winapinls.obj
 0003:00024a28       ??_C@_1O@EOKHMKJK@?$AAs?$AAm?$AAs?$AA?9?$AAF?$AAI?$AA?$AA@ 00563a28     LIBCMTD:winapinls.obj
 0003:00024a38       ??_C@_1M@CAFJMKOF@?$AAa?$AAr?$AA?9?$AAY?$AAE?$AA?$AA@ 00563a38     LIBCMTD:winapinls.obj
 0003:00024a48       ??_C@_1M@CBFHIJLI@?$AAe?$AAn?$AA?9?$AAC?$AAB?$AA?$AA@ 00563a48     LIBCMTD:winapinls.obj
 0003:00024a58       ??_C@_1M@BGNFLDN@?$AAe?$AAs?$AA?9?$AAC?$AAO?$AA?$AA@ 00563a58     LIBCMTD:winapinls.obj
 0003:00024a68       ??_C@_1O@JMPHMAMC@?$AAs?$AAm?$AAn?$AA?9?$AAF?$AAI?$AA?$AA@ 00563a68     LIBCMTD:winapinls.obj
 0003:00024a78       ??_C@_1M@JLANABKE@?$AAa?$AAr?$AA?9?$AAS?$AAY?$AA?$AA@ 00563a78     LIBCMTD:winapinls.obj
 0003:00024a88       ??_C@_1M@HPKGCFGN@?$AAe?$AAn?$AA?9?$AAB?$AAZ?$AA?$AA@ 00563a88     LIBCMTD:winapinls.obj
 0003:00024a98       ??_C@_1M@OLJCMLGM@?$AAe?$AAs?$AA?9?$AAP?$AAE?$AA?$AA@ 00563a98     LIBCMTD:winapinls.obj
 0003:00024aa8       ??_C@_1M@MKKGFKLE@?$AAa?$AAr?$AA?9?$AAJ?$AAO?$AA?$AA@ 00563aa8     LIBCMTD:winapinls.obj
 0003:00024ab8       ??_C@_1M@EKPGLDNI@?$AAe?$AAn?$AA?9?$AAT?$AAT?$AA?$AA@ 00563ab8     LIBCMTD:winapinls.obj
 0003:00024ac8       ??_C@_1M@OONGHFHE@?$AAe?$AAs?$AA?9?$AAA?$AAR?$AA?$AA@ 00563ac8     LIBCMTD:winapinls.obj
 0003:00024ad8       ??_C@_1M@OOJFGBHE@?$AAa?$AAr?$AA?9?$AAL?$AAB?$AA?$AA@ 00563ad8     LIBCMTD:winapinls.obj
 0003:00024ae8       ??_C@_1M@GCEJHNEG@?$AAe?$AAn?$AA?9?$AAZ?$AAW?$AA?$AA@ 00563ae8     LIBCMTD:winapinls.obj
 0003:00024af8       ??_C@_1M@JNOCAHJI@?$AAe?$AAs?$AA?9?$AAE?$AAC?$AA?$AA@ 00563af8     LIBCMTD:winapinls.obj
 0003:00024b08       ??_C@_1M@JEFHPGGB@?$AAa?$AAr?$AA?9?$AAK?$AAW?$AA?$AA@ 00563b08     LIBCMTD:winapinls.obj
 0003:00024b18       ??_C@_1M@MLKIBJOJ@?$AAe?$AAn?$AA?9?$AAP?$AAH?$AA?$AA@ 00563b18     LIBCMTD:winapinls.obj
 0003:00024b28       ??_C@_1M@BDNIPEND@?$AAe?$AAs?$AA?9?$AAC?$AAL?$AA?$AA@ 00563b28     LIBCMTD:winapinls.obj
 0003:00024b38       ??_C@_1M@MPNMEKBD@?$AAa?$AAr?$AA?9?$AAA?$AAE?$AA?$AA@ 00563b38     LIBCMTD:winapinls.obj
 0003:00024b48       ??_C@_1M@KBJALCPI@?$AAe?$AAs?$AA?9?$AAU?$AAY?$AA?$AA@ 00563b48     LIBCMTD:winapinls.obj
 0003:00024b58       ??_C@_1M@LLCCOAGA@?$AAa?$AAr?$AA?9?$AAB?$AAH?$AA?$AA@ 00563b58     LIBCMTD:winapinls.obj
 0003:00024b68       ??_C@_1M@PBFNCDEL@?$AAe?$AAs?$AA?9?$AAP?$AAY?$AA?$AA@ 00563b68     LIBCMTD:winapinls.obj
 0003:00024b78       ??_C@_1M@EDGINPNP@?$AAa?$AAr?$AA?9?$AAQ?$AAA?$AA?$AA@ 00563b78     LIBCMTD:winapinls.obj
 0003:00024b88       ??_C@_1M@MKDBIIJI@?$AAe?$AAs?$AA?9?$AAB?$AAO?$AA?$AA@ 00563b88     LIBCMTD:winapinls.obj
 0003:00024b98       ??_C@_1M@CPKKEBLD@?$AAe?$AAs?$AA?9?$AAS?$AAV?$AA?$AA@ 00563b98     LIBCMTD:winapinls.obj
 0003:00024ba8       ??_C@_1M@NDBGMMJL@?$AAe?$AAs?$AA?9?$AAH?$AAN?$AA?$AA@ 00563ba8     LIBCMTD:winapinls.obj
 0003:00024bb8       ??_C@_1M@JIJIBHDP@?$AAe?$AAs?$AA?9?$AAN?$AAI?$AA?$AA@ 00563bb8     LIBCMTD:winapinls.obj
 0003:00024bc8       ??_C@_1M@CGFMKEEK@?$AAe?$AAs?$AA?9?$AAP?$AAR?$AA?$AA@ 00563bc8     LIBCMTD:winapinls.obj
 0003:00024bd8       ??_C@_1O@ICJHKIIK@?$AAz?$AAh?$AA?9?$AAC?$AAH?$AAT?$AA?$AA@ 00563bd8     LIBCMTD:winapinls.obj
 0003:00024be8       ??_C@_15CLNEJCE@?$AAs?$AAr?$AA?$AA@ 00563be8     LIBCMTD:winapinls.obj
 0003:00024bf0       _LocaleNameToIndexTable    00563bf0     LIBCMTD:winapinls.obj
 0003:00025310       _LcidToLocaleNameTable     00564310     LIBCMTD:winapinls.obj
 0003:00025d0c       ??_C@_1M@KAHEKEIG@?$AAa?$AAf?$AA?9?$AAz?$AAa?$AA?$AA@ 00564d0c     LIBCMTD:winapinls.obj
 0003:00025d1c       ??_C@_1M@GIECOABL@?$AAa?$AAr?$AA?9?$AAa?$AAe?$AA?$AA@ 00564d1c     LIBCMTD:winapinls.obj
 0003:00025d2c       ??_C@_1M@BMLMEKGI@?$AAa?$AAr?$AA?9?$AAb?$AAh?$AA?$AA@ 00564d2c     LIBCMTD:winapinls.obj
 0003:00025d3c       ??_C@_1M@DAPFDGGB@?$AAa?$AAr?$AA?9?$AAd?$AAz?$AA?$AA@ 00564d3c     LIBCMTD:winapinls.obj
 0003:00025d4c       ??_C@_1M@FJNKGKIG@?$AAa?$AAr?$AA?9?$AAe?$AAg?$AA?$AA@ 00564d4c     LIBCMTD:winapinls.obj
 0003:00025d5c       ??_C@_1M@FLGKKCLO@?$AAa?$AAr?$AA?9?$AAi?$AAq?$AA?$AA@ 00564d5c     LIBCMTD:winapinls.obj
 0003:00025d6c       ??_C@_1M@GNDIPALM@?$AAa?$AAr?$AA?9?$AAj?$AAo?$AA?$AA@ 00564d6c     LIBCMTD:winapinls.obj
 0003:00025d7c       ??_C@_1M@DDMJFMGJ@?$AAa?$AAr?$AA?9?$AAk?$AAw?$AA?$AA@ 00564d7c     LIBCMTD:winapinls.obj
 0003:00025d8c       ??_C@_1M@EJALMLHM@?$AAa?$AAr?$AA?9?$AAl?$AAb?$AA?$AA@ 00564d8c     LIBCMTD:winapinls.obj
 0003:00025d9c       ??_C@_1M@MOBDBLOC@?$AAa?$AAr?$AA?9?$AAl?$AAy?$AA?$AA@ 00564d9c     LIBCMTD:winapinls.obj
 0003:00025dac       ??_C@_1M@JAOCLHDH@?$AAa?$AAr?$AA?9?$AAm?$AAa?$AA?$AA@ 00564dac     LIBCMTD:winapinls.obj
 0003:00025dbc       ??_C@_1M@JHPMKJIE@?$AAa?$AAr?$AA?9?$AAo?$AAm?$AA?$AA@ 00564dbc     LIBCMTD:winapinls.obj
 0003:00025dcc       ??_C@_1M@OEPGHFNH@?$AAa?$AAr?$AA?9?$AAq?$AAa?$AA?$AA@ 00564dcc     LIBCMTD:winapinls.obj
 0003:00025ddc       ??_C@_1M@KJDONENM@?$AAa?$AAr?$AA?9?$AAs?$AAa?$AA?$AA@ 00564ddc     LIBCMTD:winapinls.obj
 0003:00025dec       ??_C@_1M@DMJDKLKM@?$AAa?$AAr?$AA?9?$AAs?$AAy?$AA?$AA@ 00564dec     LIBCMTD:winapinls.obj
 0003:00025dfc       ??_C@_1M@OMFIPEDC@?$AAa?$AAr?$AA?9?$AAt?$AAn?$AA?$AA@ 00564dfc     LIBCMTD:winapinls.obj
 0003:00025e0c       ??_C@_1M@IHMHGAON@?$AAa?$AAr?$AA?9?$AAy?$AAe?$AA?$AA@ 00564e0c     LIBCMTD:winapinls.obj
 0003:00025e1c       ??_C@_1BG@KDCPGJGB@?$AAa?$AAz?$AA?9?$AAa?$AAz?$AA?9?$AAc?$AAy?$AAr?$AAl?$AA?$AA@ 00564e1c     LIBCMTD:winapinls.obj
 0003:00025e38       ??_C@_1BG@IBCKDDOE@?$AAa?$AAz?$AA?9?$AAa?$AAz?$AA?9?$AAl?$AAa?$AAt?$AAn?$AA?$AA@ 00564e38     LIBCMTD:winapinls.obj
 0003:00025e54       ??_C@_1M@EGPFDCPD@?$AAb?$AAe?$AA?9?$AAb?$AAy?$AA?$AA@ 00564e54     LIBCMTD:winapinls.obj
 0003:00025e64       ??_C@_1M@PCMGMCGC@?$AAb?$AAg?$AA?9?$AAb?$AAg?$AA?$AA@ 00564e64     LIBCMTD:winapinls.obj
 0003:00025e74       ??_C@_1M@BJBMFGOB@?$AAb?$AAn?$AA?9?$AAi?$AAn?$AA?$AA@ 00564e74     LIBCMTD:winapinls.obj
 0003:00025e84       ??_C@_1BG@EAKMMACD@?$AAb?$AAs?$AA?9?$AAb?$AAa?$AA?9?$AAl?$AAa?$AAt?$AAn?$AA?$AA@ 00564e84     LIBCMTD:winapinls.obj
 0003:00025ea0       ??_C@_1M@KGADAODK@?$AAc?$AAa?$AA?9?$AAe?$AAs?$AA?$AA@ 00564ea0     LIBCMTD:winapinls.obj
 0003:00025eb0       ??_C@_1M@COAJPDHI@?$AAc?$AAs?$AA?9?$AAc?$AAz?$AA?$AA@ 00564eb0     LIBCMTD:winapinls.obj
 0003:00025ec0       ??_C@_1M@DHBHFONH@?$AAc?$AAy?$AA?9?$AAg?$AAb?$AA?$AA@ 00564ec0     LIBCMTD:winapinls.obj
 0003:00025ed0       ??_C@_1M@IMGKELGA@?$AAd?$AAa?$AA?9?$AAd?$AAk?$AA?$AA@ 00564ed0     LIBCMTD:winapinls.obj
 0003:00025ee0       ??_C@_1M@NNDGDNGA@?$AAd?$AAe?$AA?9?$AAa?$AAt?$AA?$AA@ 00564ee0     LIBCMTD:winapinls.obj
 0003:00025ef0       ??_C@_1M@IKDBHEEM@?$AAd?$AAe?$AA?9?$AAc?$AAh?$AA?$AA@ 00564ef0     LIBCMTD:winapinls.obj
 0003:00025f00       ??_C@_1M@GFFOJMCJ@?$AAd?$AAe?$AA?9?$AAd?$AAe?$AA?$AA@ 00564f00     LIBCMTD:winapinls.obj
 0003:00025f10       ??_C@_1M@MDNLKBPM@?$AAd?$AAe?$AA?9?$AAl?$AAi?$AA?$AA@ 00564f10     LIBCMTD:winapinls.obj
 0003:00025f20       ??_C@_1M@NJBEEJNL@?$AAd?$AAe?$AA?9?$AAl?$AAu?$AA?$AA@ 00564f20     LIBCMTD:winapinls.obj
 0003:00025f30       ??_C@_1O@GNNELBAP@?$AAd?$AAi?$AAv?$AA?9?$AAm?$AAv?$AA?$AA@ 00564f30     LIBCMTD:winapinls.obj
 0003:00025f40       ??_C@_1M@EJLEOGAE@?$AAe?$AAl?$AA?9?$AAg?$AAr?$AA?$AA@ 00564f40     LIBCMTD:winapinls.obj
 0003:00025f50       ??_C@_1M@GMPONJN@?$AAe?$AAn?$AA?9?$AAa?$AAu?$AA?$AA@ 00564f50     LIBCMTD:winapinls.obj
 0003:00025f60       ??_C@_1M@NIDIIPGF@?$AAe?$AAn?$AA?9?$AAb?$AAz?$AA?$AA@ 00564f60     LIBCMTD:winapinls.obj
 0003:00025f70       ??_C@_1M@JEHMIMFO@?$AAe?$AAn?$AA?9?$AAc?$AAa?$AA?$AA@ 00564f70     LIBCMTD:winapinls.obj
 0003:00025f80       ??_C@_1M@IGMJCDLA@?$AAe?$AAn?$AA?9?$AAc?$AAb?$AA?$AA@ 00564f80     LIBCMTD:winapinls.obj
 0003:00025f90       ??_C@_1M@BNFIGBKG@?$AAe?$AAn?$AA?9?$AAg?$AAb?$AA?$AA@ 00564f90     LIBCMTD:winapinls.obj
 0003:00025fa0       ??_C@_1M@LKIFDIGP@?$AAe?$AAn?$AA?9?$AAi?$AAe?$AA?$AA@ 00564fa0     LIBCMTD:winapinls.obj
 0003:00025fb0       ??_C@_1M@PJKFGCCO@?$AAe?$AAn?$AA?9?$AAj?$AAm?$AA?$AA@ 00564fb0     LIBCMTD:winapinls.obj
 0003:00025fc0       ??_C@_1M@KPPKEPBO@?$AAe?$AAn?$AA?9?$AAn?$AAz?$AA?$AA@ 00564fc0     LIBCMTD:winapinls.obj
 0003:00025fd0       ??_C@_1M@GMDGLDOB@?$AAe?$AAn?$AA?9?$AAp?$AAh?$AA?$AA@ 00564fd0     LIBCMTD:winapinls.obj
 0003:00025fe0       ??_C@_1M@ONGIBJNA@?$AAe?$AAn?$AA?9?$AAt?$AAt?$AA?$AA@ 00564fe0     LIBCMTD:winapinls.obj
 0003:00025ff0       ??_C@_1M@LLODPCMM@?$AAe?$AAn?$AA?9?$AAu?$AAs?$AA?$AA@ 00564ff0     LIBCMTD:winapinls.obj
 0003:00026000       ??_C@_1M@LAKFNPAN@?$AAe?$AAn?$AA?9?$AAz?$AAa?$AA?$AA@ 00565000     LIBCMTD:winapinls.obj
 0003:00026010       ??_C@_1M@MFNHNHEO@?$AAe?$AAn?$AA?9?$AAz?$AAw?$AA?$AA@ 00565010     LIBCMTD:winapinls.obj
 0003:00026020       ??_C@_1M@EJEINPHM@?$AAe?$AAs?$AA?9?$AAa?$AAr?$AA?$AA@ 00565020     LIBCMTD:winapinls.obj
 0003:00026030       ??_C@_1M@GNKPCCJA@?$AAe?$AAs?$AA?9?$AAb?$AAo?$AA?$AA@ 00565030     LIBCMTD:winapinls.obj
 0003:00026040       ??_C@_1M@LEEGFONL@?$AAe?$AAs?$AA?9?$AAc?$AAl?$AA?$AA@ 00565040     LIBCMTD:winapinls.obj
 0003:00026050       ??_C@_1M@KGPDPBDF@?$AAe?$AAs?$AA?9?$AAc?$AAo?$AA?$AA@ 00565050     LIBCMTD:winapinls.obj
 0003:00026060       ??_C@_1M@EIAHOHH@?$AAe?$AAs?$AA?9?$AAc?$AAr?$AA?$AA@ 00565060     LIBCMTD:winapinls.obj
 0003:00026070       ??_C@_1M@LLPGMBIN@?$AAe?$AAs?$AA?9?$AAd?$AAo?$AA?$AA@ 00565070     LIBCMTD:winapinls.obj
 0003:00026080       ??_C@_1M@DKHMKNJA@?$AAe?$AAs?$AA?9?$AAe?$AAc?$AA?$AA@ 00565080     LIBCMTD:winapinls.obj
 0003:00026090       ??_C@_1M@GKGFPKAP@?$AAe?$AAs?$AA?9?$AAe?$AAs?$AA?$AA@ 00565090     LIBCMTD:winapinls.obj
 0003:000260a0       ??_C@_1M@LKHKGDLN@?$AAe?$AAs?$AA?9?$AAg?$AAt?$AA?$AA@ 005650a0     LIBCMTD:winapinls.obj
 0003:000260b0       ??_C@_1M@HEIIGGJD@?$AAe?$AAs?$AA?9?$AAh?$AAn?$AA?$AA@ 005650b0     LIBCMTD:winapinls.obj
 0003:000260c0       ??_C@_1M@FBDHPPGD@?$AAe?$AAs?$AA?9?$AAm?$AAx?$AA?$AA@ 005650c0     LIBCMTD:winapinls.obj
 0003:000260d0       ??_C@_1M@DPAGLNDH@?$AAe?$AAs?$AA?9?$AAn?$AAi?$AA?$AA@ 005650d0     LIBCMTD:winapinls.obj
 0003:000260e0       ??_C@_1M@MDGOPGDD@?$AAe?$AAs?$AA?9?$AAp?$AAa?$AA?$AA@ 005650e0     LIBCMTD:winapinls.obj
 0003:000260f0       ??_C@_1M@EMAMGBGE@?$AAe?$AAs?$AA?9?$AAp?$AAe?$AA?$AA@ 005650f0     LIBCMTD:winapinls.obj
 0003:00026100       ??_C@_1M@IBMCAOEC@?$AAe?$AAs?$AA?9?$AAp?$AAr?$AA?$AA@ 00565100     LIBCMTD:winapinls.obj
 0003:00026110       ??_C@_1M@FGMDIJED@?$AAe?$AAs?$AA?9?$AAp?$AAy?$AA?$AA@ 00565110     LIBCMTD:winapinls.obj
 0003:00026120       ??_C@_1M@IIDEOLLL@?$AAe?$AAs?$AA?9?$AAs?$AAv?$AA?$AA@ 00565120     LIBCMTD:winapinls.obj
 0003:00026130       ??_C@_1M@GAOBIPA@?$AAe?$AAs?$AA?9?$AAu?$AAy?$AA?$AA@ 00565130     LIBCMTD:winapinls.obj
 0003:00026140       ??_C@_1M@JKFFICHJ@?$AAe?$AAs?$AA?9?$AAv?$AAe?$AA?$AA@ 00565140     LIBCMTD:winapinls.obj
 0003:00026150       ??_C@_1M@PNMLOJDF@?$AAe?$AAt?$AA?9?$AAe?$AAe?$AA?$AA@ 00565150     LIBCMTD:winapinls.obj
 0003:00026160       ??_C@_1M@GHHLIKEI@?$AAe?$AAu?$AA?9?$AAe?$AAs?$AA?$AA@ 00565160     LIBCMTD:winapinls.obj
 0003:00026170       ??_C@_1M@PBNONODE@?$AAf?$AAa?$AA?9?$AAi?$AAr?$AA?$AA@ 00565170     LIBCMTD:winapinls.obj
 0003:00026180       ??_C@_1M@JEEHPMIL@?$AAf?$AAi?$AA?9?$AAf?$AAi?$AA?$AA@ 00565180     LIBCMTD:winapinls.obj
 0003:00026190       ??_C@_1M@LMDCNDBA@?$AAf?$AAo?$AA?9?$AAf?$AAo?$AA?$AA@ 00565190     LIBCMTD:winapinls.obj
 0003:000261a0       ??_C@_1M@JKEOHLDK@?$AAf?$AAr?$AA?9?$AAb?$AAe?$AA?$AA@ 005651a0     LIBCMTD:winapinls.obj
 0003:000261b0       ??_C@_1M@NOHADPMI@?$AAf?$AAr?$AA?9?$AAc?$AAa?$AA?$AA@ 005651b0     LIBCMTD:winapinls.obj
 0003:000261c0       ??_C@_1M@KDHIHAEC@?$AAf?$AAr?$AA?9?$AAc?$AAh?$AA?$AA@ 005651c0     LIBCMTD:winapinls.obj
 0003:000261d0       ??_C@_1M@MMBBFGAK@?$AAf?$AAr?$AA?9?$AAf?$AAr?$AA?$AA@ 005651d0     LIBCMTD:winapinls.obj
 0003:000261e0       ??_C@_1M@PAFNENNF@?$AAf?$AAr?$AA?9?$AAl?$AAu?$AA?$AA@ 005651e0     LIBCMTD:winapinls.obj
 0003:000261f0       ??_C@_1M@EOHDJGDD@?$AAf?$AAr?$AA?9?$AAm?$AAc?$AA?$AA@ 005651f0     LIBCMTD:winapinls.obj
 0003:00026200       ??_C@_1M@FAPLLOPF@?$AAg?$AAl?$AA?9?$AAe?$AAs?$AA?$AA@ 00565200     LIBCMTD:winapinls.obj
 0003:00026210       ??_C@_1M@FOPBFLOO@?$AAg?$AAu?$AA?9?$AAi?$AAn?$AA?$AA@ 00565210     LIBCMTD:winapinls.obj
 0003:00026220       ??_C@_1M@KBMCINPM@?$AAh?$AAe?$AA?9?$AAi?$AAl?$AA?$AA@ 00565220     LIBCMTD:winapinls.obj
 0003:00026230       ??_C@_1M@BBPHKFPJ@?$AAh?$AAi?$AA?9?$AAi?$AAn?$AA?$AA@ 00565230     LIBCMTD:winapinls.obj
 0003:00026240       ??_C@_1M@PMBNDPHD@?$AAh?$AAr?$AA?9?$AAb?$AAa?$AA?$AA@ 00565240     LIBCMTD:winapinls.obj
 0003:00026250       ??_C@_1M@BPCKOEGE@?$AAh?$AAr?$AA?9?$AAh?$AAr?$AA?$AA@ 00565250     LIBCMTD:winapinls.obj
 0003:00026260       ??_C@_1M@GACBMHKE@?$AAh?$AAu?$AA?9?$AAh?$AAu?$AA?$AA@ 00565260     LIBCMTD:winapinls.obj
 0003:00026270       ??_C@_1M@MILPAJJC@?$AAh?$AAy?$AA?9?$AAa?$AAm?$AA?$AA@ 00565270     LIBCMTD:winapinls.obj
 0003:00026280       ??_C@_1M@BABBICEC@?$AAi?$AAd?$AA?9?$AAi?$AAd?$AA?$AA@ 00565280     LIBCMTD:winapinls.obj
 0003:00026290       ??_C@_1M@BIKNHHPF@?$AAi?$AAs?$AA?9?$AAi?$AAs?$AA?$AA@ 00565290     LIBCMTD:winapinls.obj
 0003:000262a0       ??_C@_1M@NMPCJPHE@?$AAi?$AAt?$AA?9?$AAc?$AAh?$AA?$AA@ 005652a0     LIBCMTD:winapinls.obj
 0003:000262b0       ??_C@_1M@GHKGFEDF@?$AAi?$AAt?$AA?9?$AAi?$AAt?$AA?$AA@ 005652b0     LIBCMTD:winapinls.obj
 0003:000262c0       ??_C@_1M@NIEJCJJA@?$AAj?$AAa?$AA?9?$AAj?$AAp?$AA?$AA@ 005652c0     LIBCMTD:winapinls.obj
 0003:000262d0       ??_C@_1M@JILFNBIM@?$AAk?$AAa?$AA?9?$AAg?$AAe?$AA?$AA@ 005652d0     LIBCMTD:winapinls.obj
 0003:000262e0       ??_C@_1M@PACPMGPH@?$AAk?$AAk?$AA?9?$AAk?$AAz?$AA?$AA@ 005652e0     LIBCMTD:winapinls.obj
 0003:000262f0       ??_C@_1M@IELFGMHA@?$AAk?$AAn?$AA?9?$AAi?$AAn?$AA?$AA@ 005652f0     LIBCMTD:winapinls.obj
 0003:00026300       ??_C@_1O@IBBJHCH@?$AAk?$AAo?$AAk?$AA?9?$AAi?$AAn?$AA?$AA@ 00565300     LIBCMTD:winapinls.obj
 0003:00026310       ??_C@_1M@DMHAEOGC@?$AAk?$AAo?$AA?9?$AAk?$AAr?$AA?$AA@ 00565310     LIBCMTD:winapinls.obj
 0003:00026320       ??_C@_1M@HBAHBIGA@?$AAk?$AAy?$AA?9?$AAk?$AAg?$AA?$AA@ 00565320     LIBCMTD:winapinls.obj
 0003:00026330       ??_C@_1M@KPMILCJG@?$AAl?$AAt?$AA?9?$AAl?$AAt?$AA?$AA@ 00565330     LIBCMTD:winapinls.obj
 0003:00026340       ??_C@_1M@BDEKKCA@?$AAl?$AAv?$AA?9?$AAl?$AAv?$AA?$AA@ 00565340     LIBCMTD:winapinls.obj
 0003:00026350       ??_C@_1M@ELCKCCJJ@?$AAm?$AAi?$AA?9?$AAn?$AAz?$AA?$AA@ 00565350     LIBCMTD:winapinls.obj
 0003:00026360       ??_C@_1M@CBOOLAPA@?$AAm?$AAk?$AA?9?$AAm?$AAk?$AA?$AA@ 00565360     LIBCMTD:winapinls.obj
 0003:00026370       ??_C@_1M@GPHNBJKN@?$AAm?$AAl?$AA?9?$AAi?$AAn?$AA?$AA@ 00565370     LIBCMTD:winapinls.obj
 0003:00026380       ??_C@_1M@PABJILIG@?$AAm?$AAn?$AA?9?$AAm?$AAn?$AA?$AA@ 00565380     LIBCMTD:winapinls.obj
 0003:00026390       ??_C@_1M@FGBKKIPG@?$AAm?$AAr?$AA?9?$AAi?$AAn?$AA?$AA@ 00565390     LIBCMTD:winapinls.obj
 0003:000263a0       ??_C@_1M@NDBPDDAL@?$AAm?$AAs?$AA?9?$AAb?$AAn?$AA?$AA@ 005653a0     LIBCMTD:winapinls.obj
 0003:000263b0       ??_C@_1M@OPIHOOPI@?$AAm?$AAs?$AA?9?$AAm?$AAy?$AA?$AA@ 005653b0     LIBCMTD:winapinls.obj
 0003:000263c0       ??_C@_1M@PPDBCNFM@?$AAm?$AAt?$AA?9?$AAm?$AAt?$AA?$AA@ 005653c0     LIBCMTD:winapinls.obj
 0003:000263d0       ??_C@_1M@KDJDKMDD@?$AAn?$AAb?$AA?9?$AAn?$AAo?$AA?$AA@ 005653d0     LIBCMTD:winapinls.obj
 0003:000263e0       ??_C@_1M@KFCFLMJP@?$AAn?$AAl?$AA?9?$AAb?$AAe?$AA?$AA@ 005653e0     LIBCMTD:winapinls.obj
 0003:000263f0       ??_C@_1M@KPOPDDGO@?$AAn?$AAl?$AA?9?$AAn?$AAl?$AA?$AA@ 005653f0     LIBCMTD:winapinls.obj
 0003:00026400       ??_C@_1M@LJKPEMLN@?$AAn?$AAn?$AA?9?$AAn?$AAo?$AA?$AA@ 00565400     LIBCMTD:winapinls.obj
 0003:00026410       ??_C@_1M@BDGHHBFL@?$AAn?$AAs?$AA?9?$AAz?$AAa?$AA?$AA@ 00565410     LIBCMTD:winapinls.obj
 0003:00026420       ??_C@_1M@IDEHOAP@?$AAp?$AAa?$AA?9?$AAi?$AAn?$AA?$AA@ 00565420     LIBCMTD:winapinls.obj
 0003:00026430       ??_C@_1M@HDBKGOGH@?$AAp?$AAl?$AA?9?$AAp?$AAl?$AA?$AA@ 00565430     LIBCMTD:winapinls.obj
 0003:00026440       ??_C@_1M@LJLLCMEH@?$AAp?$AAt?$AA?9?$AAb?$AAr?$AA?$AA@ 00565440     LIBCMTD:winapinls.obj
 0003:00026450       ??_C@_1M@NCMONAAL@?$AAp?$AAt?$AA?9?$AAp?$AAt?$AA?$AA@ 00565450     LIBCMTD:winapinls.obj
 0003:00026460       ??_C@_1O@EAKMAJDN@?$AAq?$AAu?$AAz?$AA?9?$AAb?$AAo?$AA?$AA@ 00565460     LIBCMTD:winapinls.obj
 0003:00026470       ??_C@_1O@BHHPIGDN@?$AAq?$AAu?$AAz?$AA?9?$AAe?$AAc?$AA?$AA@ 00565470     LIBCMTD:winapinls.obj
 0003:00026480       ??_C@_1O@GBAPEKMJ@?$AAq?$AAu?$AAz?$AA?9?$AAp?$AAe?$AA?$AA@ 00565480     LIBCMTD:winapinls.obj
 0003:00026490       ??_C@_1M@CLGLEFBO@?$AAr?$AAo?$AA?9?$AAr?$AAo?$AA?$AA@ 00565490     LIBCMTD:winapinls.obj
 0003:000264a0       ??_C@_1M@CEEDODME@?$AAr?$AAu?$AA?9?$AAr?$AAu?$AA?$AA@ 005654a0     LIBCMTD:winapinls.obj
 0003:000264b0       ??_C@_1M@HPKKKMPP@?$AAs?$AAa?$AA?9?$AAi?$AAn?$AA?$AA@ 005654b0     LIBCMTD:winapinls.obj
 0003:000264c0       ??_C@_1M@BKMAIGOJ@?$AAs?$AAe?$AA?9?$AAf?$AAi?$AA?$AA@ 005654c0     LIBCMTD:winapinls.obj
 0003:000264d0       ??_C@_1M@NDPIFLFI@?$AAs?$AAe?$AA?9?$AAn?$AAo?$AA?$AA@ 005654d0     LIBCMTD:winapinls.obj
 0003:000264e0       ??_C@_1M@DANKKHJ@?$AAs?$AAe?$AA?9?$AAs?$AAe?$AA?$AA@ 005654e0     LIBCMTD:winapinls.obj
 0003:000264f0       ??_C@_1M@PNBLONPJ@?$AAs?$AAk?$AA?9?$AAs?$AAk?$AA?$AA@ 005654f0     LIBCMTD:winapinls.obj
 0003:00026500       ??_C@_1M@LFMODOAL@?$AAs?$AAl?$AA?9?$AAs?$AAi?$AA?$AA@ 00565500     LIBCMTD:winapinls.obj
 0003:00026510       ??_C@_1O@DFKOMPG@?$AAs?$AAm?$AAa?$AA?9?$AAn?$AAo?$AA?$AA@ 00565510     LIBCMTD:winapinls.obj
 0003:00026520       ??_C@_1O@NDKPBNNH@?$AAs?$AAm?$AAa?$AA?9?$AAs?$AAe?$AA?$AA@ 00565520     LIBCMTD:winapinls.obj
 0003:00026530       ??_C@_1O@PLLKBHAB@?$AAs?$AAm?$AAj?$AA?9?$AAn?$AAo?$AA?$AA@ 00565530     LIBCMTD:winapinls.obj
 0003:00026540       ??_C@_1O@CLEPOGCA@?$AAs?$AAm?$AAj?$AA?9?$AAs?$AAe?$AA?$AA@ 00565540     LIBCMTD:winapinls.obj
 0003:00026550       ??_C@_1O@DLGJGKMK@?$AAs?$AAm?$AAn?$AA?9?$AAf?$AAi?$AA?$AA@ 00565550     LIBCMTD:winapinls.obj
 0003:00026560       ??_C@_1O@OJDJGAJC@?$AAs?$AAm?$AAs?$AA?9?$AAf?$AAi?$AA?$AA@ 00565560     LIBCMTD:winapinls.obj
 0003:00026570       ??_C@_1M@BOFOGHPB@?$AAs?$AAq?$AA?9?$AAa?$AAl?$AA?$AA@ 00565570     LIBCMTD:winapinls.obj
 0003:00026580       ??_C@_1BG@LJBBIPGB@?$AAs?$AAr?$AA?9?$AAb?$AAa?$AA?9?$AAc?$AAy?$AAr?$AAl?$AA?$AA@ 00565580     LIBCMTD:winapinls.obj
 0003:0002659c       ??_C@_1BG@JLBENFOE@?$AAs?$AAr?$AA?9?$AAb?$AAa?$AA?9?$AAl?$AAa?$AAt?$AAn?$AA?$AA@ 0056559c     LIBCMTD:winapinls.obj
 0003:000265b8       ??_C@_1BG@KODPNHE@?$AAs?$AAr?$AA?9?$AAs?$AAp?$AA?9?$AAc?$AAy?$AAr?$AAl?$AA?$AA@ 005655b8     LIBCMTD:winapinls.obj
 0003:000265d4       ??_C@_1BG@CIOGKHPB@?$AAs?$AAr?$AA?9?$AAs?$AAp?$AA?9?$AAl?$AAa?$AAt?$AAn?$AA?$AA@ 005655d4     LIBCMTD:winapinls.obj
 0003:000265f0       ??_C@_1M@NGFJLMAC@?$AAs?$AAv?$AA?9?$AAf?$AAi?$AA?$AA@ 005655f0     LIBCMTD:winapinls.obj
 0003:00026600       ??_C@_1M@MPJEJAJC@?$AAs?$AAv?$AA?9?$AAs?$AAe?$AA?$AA@ 00565600     LIBCMTD:winapinls.obj
 0003:00026610       ??_C@_1M@MPNDHLFK@?$AAs?$AAw?$AA?9?$AAk?$AAe?$AA?$AA@ 00565610     LIBCMTD:winapinls.obj
 0003:00026620       ??_C@_1O@KOHBJJI@?$AAs?$AAy?$AAr?$AA?9?$AAs?$AAy?$AA?$AA@ 00565620     LIBCMTD:winapinls.obj
 0003:00026630       ??_C@_1M@LDCEFHA@?$AAt?$AAa?$AA?9?$AAi?$AAn?$AA?$AA@ 00565630     LIBCMTD:winapinls.obj
 0003:00026640       ??_C@_1M@CNJOFAK@?$AAt?$AAe?$AA?9?$AAi?$AAn?$AA?$AA@ 00565640     LIBCMTD:winapinls.obj
 0003:00026650       ??_C@_1M@GNAECACD@?$AAt?$AAh?$AA?9?$AAt?$AAh?$AA?$AA@ 00565650     LIBCMTD:winapinls.obj
 0003:00026660       ??_C@_1M@CHBIHOJO@?$AAt?$AAn?$AA?9?$AAz?$AAa?$AA?$AA@ 00565660     LIBCMTD:winapinls.obj
 0003:00026670       ??_C@_1M@GCCMIGPJ@?$AAt?$AAr?$AA?9?$AAt?$AAr?$AA?$AA@ 00565670     LIBCMTD:winapinls.obj
 0003:00026680       ??_C@_1M@CELMCNBK@?$AAt?$AAt?$AA?9?$AAr?$AAu?$AA?$AA@ 00565680     LIBCMTD:winapinls.obj
 0003:00026690       ??_C@_1M@KLMCELGA@?$AAu?$AAk?$AA?9?$AAu?$AAa?$AA?$AA@ 00565690     LIBCMTD:winapinls.obj
 0003:000266a0       ??_C@_1M@EPAJJAJF@?$AAu?$AAr?$AA?9?$AAp?$AAk?$AA?$AA@ 005656a0     LIBCMTD:winapinls.obj
 0003:000266b0       ??_C@_1BG@GEGPMCDJ@?$AAu?$AAz?$AA?9?$AAu?$AAz?$AA?9?$AAc?$AAy?$AAr?$AAl?$AA?$AA@ 005656b0     LIBCMTD:winapinls.obj
 0003:000266cc       ??_C@_1BG@EGGKJILM@?$AAu?$AAz?$AA?9?$AAu?$AAz?$AA?9?$AAl?$AAa?$AAt?$AAn?$AA?$AA@ 005656cc     LIBCMTD:winapinls.obj
 0003:000266e8       ??_C@_1M@GFOCLFF@?$AAv?$AAi?$AA?9?$AAv?$AAn?$AA?$AA@ 005656e8     LIBCMTD:winapinls.obj
 0003:000266f8       ??_C@_1M@CPAMEDFI@?$AAx?$AAh?$AA?9?$AAz?$AAa?$AA?$AA@ 005656f8     LIBCMTD:winapinls.obj
 0003:00026708       ??_C@_1O@EBKIFIGN@?$AAz?$AAh?$AA?9?$AAc?$AAh?$AAs?$AA?$AA@ 00565708     LIBCMTD:winapinls.obj
 0003:00026718       ??_C@_1O@NMHPGANE@?$AAz?$AAh?$AA?9?$AAc?$AAh?$AAt?$AA?$AA@ 00565718     LIBCMTD:winapinls.obj
 0003:00026728       ??_C@_1M@LPINJOMC@?$AAz?$AAh?$AA?9?$AAc?$AAn?$AA?$AA@ 00565728     LIBCMTD:winapinls.obj
 0003:00026738       ??_C@_1M@OCJEJODD@?$AAz?$AAh?$AA?9?$AAh?$AAk?$AA?$AA@ 00565738     LIBCMTD:winapinls.obj
 0003:00026748       ??_C@_1M@DNDLJINH@?$AAz?$AAh?$AA?9?$AAm?$AAo?$AA?$AA@ 00565748     LIBCMTD:winapinls.obj
 0003:00026758       ??_C@_1M@MBFDNDND@?$AAz?$AAh?$AA?9?$AAs?$AAg?$AA?$AA@ 00565758     LIBCMTD:winapinls.obj
 0003:00026768       ??_C@_1M@IMEPLEPE@?$AAz?$AAh?$AA?9?$AAt?$AAw?$AA?$AA@ 00565768     LIBCMTD:winapinls.obj
 0003:00026778       ??_C@_1M@BBGHNHJP@?$AAz?$AAu?$AA?9?$AAz?$AAa?$AA?$AA@ 00565778     LIBCMTD:winapinls.obj
 0003:00026788       ??_C@_15EMKDOKLE@?$AAa?$AAr?$AA?$AA@ 00565788     LIBCMTD:winapinls.obj
 0003:00026790       ??_C@_15KNPADPLH@?$AAb?$AAg?$AA?$AA@ 00565790     LIBCMTD:winapinls.obj
 0003:00026798       ??_C@_1FE@HAPBHJIC@?$AAf?$AA?3?$AA?2?$AAd?$AAd?$AA?2?$AAv?$AAc?$AAt?$AAo?$AAo?$AAl?$AAs?$AA?2?$AAc?$AAr?$AAt?$AA?2?$AAc?$AAr?$AAt?$AAw?$AA3?$AA2?$AA?2?$AAm?$AAi?$AAs?$AAc?$AA?2?$AAw?$AAi@ 00565798     LIBCMTD:winapinls.obj
 0003:000267fc       ??_C@_1DO@MBHJDOGM@?$AA_?$AA_?$AAc?$AAr?$AAt?$AAD?$AAo?$AAw?$AAn?$AAl?$AAe?$AAv?$AAe?$AAl?$AAL?$AAC?$AAI?$AAD?$AAT?$AAo?$AAL?$AAo?$AAc?$AAa?$AAl?$AAe?$AAN?$AAa?$AAm?$AAe?$AA?$AA@ 005657fc     LIBCMTD:winapinls.obj
 0003:00026848       ??_C@_1FO@LFACCMJH@?$AAw?$AAc?$AAs?$AAc?$AAp?$AAy?$AA_?$AAs?$AA?$CI?$AAo?$AAu?$AAt?$AAL?$AAo?$AAc?$AAa?$AAl?$AAe?$AAN?$AAa?$AAm?$AAe?$AA?0?$AA?5?$AAc?$AAc?$AAh?$AAL?$AAo?$AAc?$AAa?$AAl@ 00565848     LIBCMTD:winapinls.obj
 0003:000268b8       ??_C@_1FC@NCPEPIBI@?$AA?$CI?$AA?$CI?$AA_?$AAD?$AAs?$AAt?$AA?$CJ?$AA?$CJ?$AA?5?$AA?$CB?$AA?$DN?$AA?5?$AAN?$AAU?$AAL?$AAL?$AA?5?$AA?$CG?$AA?$CG?$AA?5?$AA?$CI?$AA?$CI?$AA_?$AAS?$AAi?$AAz?$AAe?$AAI?$AAn?$AAB?$AAy?$AAt@ 005658b8     LIBCMTD:strcpy_s.obj
 0003:0002691c       ??_C@_1BC@CFJEPFGF@?$AAs?$AAt?$AAr?$AAc?$AAp?$AAy?$AA_?$AAs?$AA?$AA@ 0056591c     LIBCMTD:strcpy_s.obj
 0003:00026934       ??_C@_1BO@KIJENGPH@?$AAs?$AAt?$AAr?$AAe?$AAa?$AAm?$AA?5?$AA?$CB?$AA?$DN?$AA?5?$AAN?$AAU?$AAL?$AAL?$AA?$AA@ 00565934     LIBCMTD:_freebuf.obj
 0003:00026958       ??_C@_1FE@DBCNNJOP@?$AAf?$AA?3?$AA?2?$AAd?$AAd?$AA?2?$AAv?$AAc?$AAt?$AAo?$AAo?$AAl?$AAs?$AA?2?$AAc?$AAr?$AAt?$AA?2?$AAc?$AAr?$AAt?$AAw?$AA3?$AA2?$AA?2?$AAs?$AAt?$AAd?$AAi?$AAo?$AA?2?$AA_@ 00565958     LIBCMTD:_freebuf.obj
 0003:000269c0       ??_C@_1FE@PMGAPFGI@?$AAf?$AA?3?$AA?2?$AAd?$AAd?$AA?2?$AAv?$AAc?$AAt?$AAo?$AAo?$AAl?$AAs?$AA?2?$AAc?$AAr?$AAt?$AA?2?$AAc?$AAr?$AAt?$AAw?$AA3?$AA2?$AA?2?$AAs?$AAt?$AAd?$AAi?$AAo?$AA?2?$AAv@ 005659c0     LIBCMTD:vfwprint.obj
 0003:00026a24       ??_C@_1CC@MONNFDCM@?$AAv?$AAf?$AAw?$AAp?$AAr?$AAi?$AAn?$AAt?$AAf?$AA_?$AAh?$AAe?$AAl?$AAp?$AAe?$AAr?$AA?$AA@ 00565a24     LIBCMTD:vfwprint.obj
 0003:00026a4c       ??_C@_1BG@BBCDFOMA@?$AA_?$AAw?$AAo?$AAu?$AAt?$AAp?$AAu?$AAt?$AA_?$AAl?$AA?$AA@ 00565a4c     LIBCMTD:woutput.obj
 0003:00026a68       ??_C@_1BK@ONMFGLDB@?$AA_?$AAw?$AAo?$AAu?$AAt?$AAp?$AAu?$AAt?$AA_?$AAs?$AA_?$AAl?$AA?$AA@ 00565a68     LIBCMTD:woutputs.obj
 0003:00026a88       ??_C@_1BK@GDEKGMNC@?$AA_?$AAw?$AAo?$AAu?$AAt?$AAp?$AAu?$AAt?$AA_?$AAp?$AA_?$AAl?$AA?$AA@ 00565a88     LIBCMTD:woutputp.obj
 0003:00026aa8       ??_C@_1FI@JBLIKEIM@?$AAf?$AA?3?$AA?2?$AAd?$AAd?$AA?2?$AAv?$AAc?$AAt?$AAo?$AAo?$AAl?$AAs?$AA?2?$AAc?$AAr?$AAt?$AA?2?$AAc?$AAr?$AAt?$AAw?$AA3?$AA2?$AA?2?$AAc?$AAo?$AAn?$AAv?$AAe?$AAr?$AAt@ 00565aa8     LIBCMTD:_fptostr.obj
 0003:00026b14       ??_C@_1BC@OPALLEB@?$AA_?$AAf?$AAp?$AAt?$AAo?$AAs?$AAt?$AAr?$AA?$AA@ 00565b14     LIBCMTD:_fptostr.obj
 0003:00026b30       ??_C@_1GM@CEDLGDDI@?$AAs?$AAi?$AAz?$AAe?$AAI?$AAn?$AAB?$AAy?$AAt?$AAe?$AAs?$AA?5?$AA?$DO?$AA?5?$AA?$CI?$AAs?$AAi?$AAz?$AAe?$AA_?$AAt?$AA?$CJ?$AA?$CI?$AA?$CI?$AAd?$AAi?$AAg?$AAi?$AAt?$AAs?$AA?5?$AA?$DO@ 00565b30     LIBCMTD:_fptostr.obj
 0003:00026bb4       ??_C@_1BK@CLIEHFDF@?$AAp?$AAf?$AAl?$AAt?$AA?5?$AA?$CB?$AA?$DN?$AA?5?$AAN?$AAU?$AAL?$AAL?$AA?$AA@ 00565bb4     LIBCMTD:_fptostr.obj
 0003:00026bd8       ??_C@_1EK@LJBJCHGA@?$AAf?$AA?3?$AA?2?$AAd?$AAd?$AA?2?$AAv?$AAc?$AAt?$AAo?$AAo?$AAl?$AAs?$AA?2?$AAc?$AAr?$AAt?$AA?2?$AAf?$AAp?$AAw?$AA3?$AA2?$AA?2?$AAc?$AAo?$AAn?$AAv?$AA?2?$AAc?$AAf?$AAo@ 00565bd8     LIBCMTD:cfout.obj
 0003:00026c30       ??_C@_1BC@BPMMEHLK@?$AA_?$AAf?$AAl?$AAt?$AAo?$AAu?$AAt?$AA2?$AA?$AA@ 00565c30     LIBCMTD:cfout.obj
 0003:00026c48       ??_C@_1FK@KODCOBKF@?$AAs?$AAt?$AAr?$AAc?$AAp?$AAy?$AA_?$AAs?$AA?$CI?$AAr?$AAe?$AAs?$AAu?$AAl?$AAt?$AAs?$AAt?$AAr?$AA?0?$AA?5?$AAr?$AAe?$AAs?$AAu?$AAl?$AAt?$AAs?$AAi?$AAz?$AAe?$AA?0?$AA?5@ 00565c48     LIBCMTD:cfout.obj
 0003:00026cb8       ??_C@_1EM@EGEEBJLG@?$AA?$CI?$AAo?$AAp?$AAt?$AAi?$AAo?$AAn?$AAs?$AA?5?$AA?$CG?$AA?5?$AA?$HO?$AA_?$AAT?$AAW?$AAO?$AA_?$AAD?$AAI?$AAG?$AAI?$AAT?$AA_?$AAE?$AAX?$AAP?$AAO?$AAN?$AAE?$AAN?$AAT?$AA?$CJ@ 00565cb8     LIBCMTD:outputformat.obj
 0003:00026d18       ??_C@_1FM@FBHCILLE@?$AAf?$AA?3?$AA?2?$AAd?$AAd?$AA?2?$AAv?$AAc?$AAt?$AAo?$AAo?$AAl?$AAs?$AA?2?$AAc?$AAr?$AAt?$AA?2?$AAc?$AAr?$AAt?$AAw?$AA3?$AA2?$AA?2?$AAs?$AAt?$AAd?$AAi?$AAo?$AA?2?$AAo@ 00565d18     LIBCMTD:outputformat.obj
 0003:00026d88       ??_C@_1CG@EBJECAJM@?$AA_?$AAs?$AAe?$AAt?$AA_?$AAo?$AAu?$AAt?$AAp?$AAu?$AAt?$AA_?$AAf?$AAo?$AAr?$AAm?$AAa?$AAt?$AA?$AA@ 00565d88     LIBCMTD:outputformat.obj
 0003:00026db8       ??_C@_1DG@JNDMIEJL@?$AA?$CI?$AA?$CC?$AAI?$AAn?$AAv?$AAa?$AAl?$AAi?$AAd?$AA?5?$AAi?$AAn?$AAp?$AAu?$AAt?$AA?5?$AAv?$AAa?$AAl?$AAu?$AAe?$AA?$CC?$AA?0?$AA?5?$AA0?$AA?$CJ?$AA?$AA@ 00565db8     LIBCMTD:contrlfp.obj
 0003:00026df8       ??_C@_1FA@IJLDLDMO@?$AAf?$AA?3?$AA?2?$AAd?$AAd?$AA?2?$AAv?$AAc?$AAt?$AAo?$AAo?$AAl?$AAs?$AA?2?$AAc?$AAr?$AAt?$AA?2?$AAf?$AAp?$AAw?$AA3?$AA2?$AA?2?$AAt?$AAr?$AAa?$AAn?$AA?2?$AAc?$AAo?$AAn@ 00565df8     LIBCMTD:contrlfp.obj
 0003:00026e58       ??_C@_1BK@CDOALEA@?$AA_?$AAc?$AAo?$AAn?$AAt?$AAr?$AAo?$AAl?$AAf?$AAp?$AA_?$AAs?$AA?$AA@ 00565e58     LIBCMTD:contrlfp.obj
 0003:00026e78       ??_C@_1EO@EJLBBGEB@?$AAf?$AA?3?$AA?2?$AAd?$AAd?$AA?2?$AAv?$AAc?$AAt?$AAo?$AAo?$AAl?$AAs?$AA?2?$AAc?$AAr?$AAt?$AA?2?$AAc?$AAr?$AAt?$AAw?$AA3?$AA2?$AA?2?$AAl?$AAo?$AAw?$AAi?$AAo?$AA?2?$AAc@ 00565e78     LIBCMTD:close.obj
 0003:00026ed8       ??_C@_1O@EDEJGJBM@?$AA_?$AAc?$AAl?$AAo?$AAs?$AAe?$AA?$AA@ 00565ed8     LIBCMTD:close.obj
 0003:00026ee8       ??_C@_0CJ@IGOJMKM@f?3?2dd?2vctools?2crt?2crtw32?2lowio?2o@ 00565ee8     LIBCMTD:osfinfo.obj
 0003:00026f20       ??_C@_1FC@BEKMGBFL@?$AAf?$AA?3?$AA?2?$AAd?$AAd?$AA?2?$AAv?$AAc?$AAt?$AAo?$AAo?$AAl?$AAs?$AA?2?$AAc?$AAr?$AAt?$AA?2?$AAc?$AAr?$AAt?$AAw?$AA3?$AA2?$AA?2?$AAl?$AAo?$AAw?$AAi?$AAo?$AA?2?$AAo@ 00565f20     LIBCMTD:osfinfo.obj
 0003:00026f84       ??_C@_1BO@EMBOBGKE@?$AA_?$AAg?$AAe?$AAt?$AA_?$AAo?$AAs?$AAf?$AAh?$AAa?$AAn?$AAd?$AAl?$AAe?$AA?$AA@ 00565f84     LIBCMTD:osfinfo.obj
 0003:00026fa8       ??_C@_1NC@EINCOKCO@?$AA_?$AAl?$AAo?$AAc?$AA_?$AAu?$AAp?$AAd?$AAa?$AAt?$AAe?$AA?4?$AAG?$AAe?$AAt?$AAL?$AAo?$AAc?$AAa?$AAl?$AAe?$AAT?$AA?$CI?$AA?$CJ?$AA?9?$AA?$DO?$AAl?$AAo?$AAc?$AAi?$AAn?$AAf@ 00565fa8     LIBCMTD:mbtowc.obj
 0003:000270a8       ??_C@_1FE@EKLDGEI@?$AAf?$AA?3?$AA?2?$AAd?$AAd?$AA?2?$AAv?$AAc?$AAt?$AAo?$AAo?$AAl?$AAs?$AA?2?$AAc?$AAr?$AAt?$AA?2?$AAc?$AAr?$AAt?$AAw?$AA3?$AA2?$AA?2?$AAc?$AAo?$AAn?$AAv?$AAe?$AAr?$AAt@ 005660a8     LIBCMTD:mbtowc.obj
 0003:0002710c       ??_C@_1BE@NDMJHJJG@?$AAs?$AAt?$AAr?$AAn?$AAc?$AAp?$AAy?$AA_?$AAs?$AA?$AA@ 0056610c     LIBCMTD:strncpy_s.obj
 0003:00027124       ??_C@_1BK@EPLNBKAK@?$AA_?$AAv?$AAs?$AAw?$AAp?$AAr?$AAi?$AAn?$AAt?$AAf?$AA_?$AAl?$AA?$AA@ 00566124     LIBCMTD:vswprint.obj
 0003:00027144       ??_C@_1CG@IMMIEPNA@?$AA_?$AAv?$AAs?$AAc?$AAw?$AAp?$AAr?$AAi?$AAn?$AAt?$AAf?$AA_?$AAh?$AAe?$AAl?$AAp?$AAe?$AAr?$AA?$AA@ 00566144     LIBCMTD:vswprint.obj
 0003:00027174       ??_C@_1BC@HGPNAKGC@?$AAs?$AAt?$AAr?$AAc?$AAa?$AAt?$AA_?$AAs?$AA?$AA@ 00566174     LIBCMTD:strcat_s.obj
 0003:0002718c       ??_C@_1O@GIMBNLEI@?$AAx?$AAt?$AAo?$AAa?$AA_?$AAs?$AA?$AA@ 0056618c     LIBCMTD:xtoas.obj
 0003:0002719c       ??_C@_1BC@MJJNBNFN@?$AAx?$AA6?$AA4?$AAt?$AAo?$AAa?$AA_?$AAs?$AA?$AA@ 0056619c     LIBCMTD:xtoas.obj
 0003:000271b4       ??_C@_1BE@EEKACIGI@?$AAs?$AA?5?$AA?$CB?$AA?$DN?$AA?5?$AAN?$AAU?$AAL?$AAL?$AA?$AA@ 005661b4     LIBCMTD:mbstowcs.obj
 0003:000271d0       ??_C@_1FI@DADFCCMF@?$AAf?$AA?3?$AA?2?$AAd?$AAd?$AA?2?$AAv?$AAc?$AAt?$AAo?$AAo?$AAl?$AAs?$AA?2?$AAc?$AAr?$AAt?$AA?2?$AAc?$AAr?$AAt?$AAw?$AA3?$AA2?$AA?2?$AAc?$AAo?$AAn?$AAv?$AAe?$AAr?$AAt@ 005661d0     LIBCMTD:mbstowcs.obj
 0003:0002723c       ??_C@_1CG@JEHFHLNG@?$AA_?$AAm?$AAb?$AAs?$AAt?$AAo?$AAw?$AAc?$AAs?$AA_?$AAl?$AA_?$AAh?$AAe?$AAl?$AAp?$AAe?$AAr?$AA?$AA@ 0056623c     LIBCMTD:mbstowcs.obj
 0003:00027270       ??_C@_1JA@JKDFMOPO@?$AA?$CI?$AAp?$AAw?$AAc?$AAs?$AA?5?$AA?$DN?$AA?$DN?$AA?5?$AAN?$AAU?$AAL?$AAL?$AA?5?$AA?$CG?$AA?$CG?$AA?5?$AAs?$AAi?$AAz?$AAe?$AAI?$AAn?$AAW?$AAo?$AAr?$AAd?$AAs?$AA?5?$AA?$DN?$AA?$DN?$AA?5@ 00566270     LIBCMTD:mbstowcs.obj
 0003:0002731c       ??_C@_1BM@PHENIGHD@?$AA_?$AAm?$AAb?$AAs?$AAt?$AAo?$AAw?$AAc?$AAs?$AA_?$AAs?$AA_?$AAl?$AA?$AA@ 0056631c     LIBCMTD:mbstowcs.obj
 0003:00027340       ??_C@_1CM@LLECFMFH@?$AAb?$AAu?$AAf?$AAf?$AAe?$AAr?$AAS?$AAi?$AAz?$AAe?$AA?5?$AA?$DM?$AA?$DN?$AA?5?$AAI?$AAN?$AAT?$AA_?$AAM?$AAA?$AAX?$AA?$AA@ 00566340     LIBCMTD:mbstowcs.obj
 0003:00027374       ??_C@_1CO@JNPEPJAL@?$AAr?$AAe?$AAt?$AAs?$AAi?$AAz?$AAe?$AA?5?$AA?$DM?$AA?$DN?$AA?5?$AAs?$AAi?$AAz?$AAe?$AAI?$AAn?$AAW?$AAo?$AAr?$AAd?$AAs?$AA?$AA@ 00566374     LIBCMTD:mbstowcs.obj
 0003:000273ac       ??_C@_1BK@OIBENBPM@?$AAp?$AAw?$AAc?$AAs?$AA?5?$AA?$CB?$AA?$DN?$AA?5?$AAN?$AAU?$AAL?$AAL?$AA?$AA@ 005663ac     LIBCMTD:wcstombs.obj
 0003:000273d0       ??_C@_1FI@GCFLNCOB@?$AAf?$AA?3?$AA?2?$AAd?$AAd?$AA?2?$AAv?$AAc?$AAt?$AAo?$AAo?$AAl?$AAs?$AA?2?$AAc?$AAr?$AAt?$AA?2?$AAc?$AAr?$AAt?$AAw?$AA3?$AA2?$AA?2?$AAc?$AAo?$AAn?$AAv?$AAe?$AAr?$AAt@ 005663d0     LIBCMTD:wcstombs.obj
 0003:0002743c       ??_C@_1CG@LLJCAOHF@?$AA_?$AAw?$AAc?$AAs?$AAt?$AAo?$AAm?$AAb?$AAs?$AA_?$AAl?$AA_?$AAh?$AAe?$AAl?$AAp?$AAe?$AAr?$AA?$AA@ 0056643c     LIBCMTD:wcstombs.obj
 0003:00027470       ??_C@_1IM@MFGKHGBP@?$AA?$CI?$AAd?$AAs?$AAt?$AA?5?$AA?$CB?$AA?$DN?$AA?5?$AAN?$AAU?$AAL?$AAL?$AA?5?$AA?$CG?$AA?$CG?$AA?5?$AAs?$AAi?$AAz?$AAe?$AAI?$AAn?$AAB?$AAy?$AAt?$AAe?$AAs?$AA?5?$AA?$DO?$AA?5?$AA0?$AA?$CJ@ 00566470     LIBCMTD:wcstombs.obj
 0003:00027518       ??_C@_1BM@BDMCLLDL@?$AA_?$AAw?$AAc?$AAs?$AAt?$AAo?$AAm?$AAb?$AAs?$AA_?$AAs?$AA_?$AAl?$AA?$AA@ 00566518     LIBCMTD:wcstombs.obj
 0003:0002753c       ??_C@_1CM@KEOGBFLI@?$AAs?$AAi?$AAz?$AAe?$AAI?$AAn?$AAB?$AAy?$AAt?$AAe?$AAs?$AA?5?$AA?$DO?$AA?5?$AAr?$AAe?$AAt?$AAs?$AAi?$AAz?$AAe?$AA?$AA@ 0056653c     LIBCMTD:wcstombs.obj
 0003:00027570       ??_C@_1CA@MBDBOHIB@?$AA_?$AAL?$AAo?$AAc?$AAa?$AAl?$AAe?$AA?5?$AA?$CB?$AA?$DN?$AA?5?$AAN?$AAU?$AAL?$AAL?$AA?$AA@ 00566570     LIBCMTD:strgtold.obj
 0003:00027598       ??_C@_1FO@OFJNJPKB@?$AAf?$AA?3?$AA?2?$AAd?$AAd?$AA?2?$AAv?$AAc?$AAt?$AAo?$AAo?$AAl?$AAs?$AA?2?$AAc?$AAr?$AAt?$AA?2?$AAf?$AAp?$AAw?$AA3?$AA2?$AA?2?$AAi?$AAn?$AAc?$AAl?$AAu?$AAd?$AAe?$AA?2@ 00566598     LIBCMTD:strgtold.obj
 0003:00027608       ??_C@_1BO@IHLJHOPI@?$AA_?$AA_?$AAs?$AAt?$AAr?$AAg?$AAt?$AAo?$AAl?$AAd?$AA1?$AA2?$AA_?$AAl?$AA?$AA@ 00566608     LIBCMTD:strgtold.obj
 0003:00027630       ??_C@_1FC@BHNGAOAE@?$AAf?$AA?3?$AA?2?$AAd?$AAd?$AA?2?$AAv?$AAc?$AAt?$AAo?$AAo?$AAl?$AAs?$AA?2?$AAc?$AAr?$AAt?$AA?2?$AAc?$AAr?$AAt?$AAw?$AA3?$AA2?$AA?2?$AAm?$AAi?$AAs?$AAc?$AA?2?$AAd?$AAb@ 00566630     LIBCMTD:dbgdel.obj
 0003:00027698       ??_7type_info@@6B@         00566698     LIBCMTD:typinfo.obj
 0003:000276a4       ??_7exception@std@@6B@     005666a4     LIBCMTD:stdexcpt.obj
 0003:000276b0       ??_C@_0BC@EOODALEL@Unknown?5exception?$AA@ 005666b0     LIBCMTD:stdexcpt.obj
 0003:000276cc       ??_7bad_cast@std@@6B@      005666cc     LIBCMTD:stdexcpt.obj
 0003:000276dc       ??_7bad_typeid@std@@6B@    005666dc     LIBCMTD:stdexcpt.obj
 0003:000276ec       ??_7__non_rtti_object@std@@6B@ 005666ec     LIBCMTD:stdexcpt.obj
 0003:00027720       ??_C@_1FE@NDFDLJMJ@?$AAf?$AA?3?$AA?2?$AAd?$AAd?$AA?2?$AAv?$AAc?$AAt?$AAo?$AAo?$AAl?$AAs?$AA?2?$AAc?$AAr?$AAt?$AA?2?$AAc?$AAr?$AAt?$AAw?$AA3?$AA2?$AA?2?$AAs?$AAt?$AAr?$AAi?$AAn?$AAg?$AA?2@ 00566720     LIBCMTD:wcsicmp.obj
 0003:00027784       ??_C@_1BG@EELGPCPD@?$AA_?$AAw?$AAc?$AAs?$AAi?$AAc?$AAm?$AAp?$AA_?$AAl?$AA?$AA@ 00566784     LIBCMTD:wcsicmp.obj
 0003:000277a0       ??_C@_1BC@NHIBDOMC@?$AA_?$AAw?$AAc?$AAs?$AAi?$AAc?$AAm?$AAp?$AA?$AA@ 005667a0     LIBCMTD:wcsicmp.obj
 0003:000277b8       ??_C@_1BM@CBACDFHA@?$AAf?$AAi?$AAr?$AAs?$AAt?$AA?5?$AA?$CB?$AA?$DN?$AA?5?$AAN?$AAU?$AAL?$AAL?$AA?$AA@ 005667b8     LIBCMTD:wcsnicmp.obj
 0003:000277e0       ??_C@_1FG@GGNDOPHP@?$AAf?$AA?3?$AA?2?$AAd?$AAd?$AA?2?$AAv?$AAc?$AAt?$AAo?$AAo?$AAl?$AAs?$AA?2?$AAc?$AAr?$AAt?$AA?2?$AAc?$AAr?$AAt?$AAw?$AA3?$AA2?$AA?2?$AAs?$AAt?$AAr?$AAi?$AAn?$AAg?$AA?2@ 005667e0     LIBCMTD:wcsnicmp.obj
 0003:00027848       ??_C@_1BI@KLMFNDBC@?$AA_?$AAw?$AAc?$AAs?$AAn?$AAi?$AAc?$AAm?$AAp?$AA_?$AAl?$AA?$AA@ 00566848     LIBCMTD:wcsnicmp.obj
 0003:00027864       ??_C@_1BK@LKBOPAFJ@?$AAl?$AAa?$AAs?$AAt?$AA?5?$AA?$CB?$AA?$DN?$AA?5?$AAN?$AAU?$AAL?$AAL?$AA?$AA@ 00566864     LIBCMTD:wcsnicmp.obj
 0003:00027884       ??_C@_1BE@JKOKKFEL@?$AA_?$AAw?$AAc?$AAs?$AAn?$AAi?$AAc?$AAm?$AAp?$AA?$AA@ 00566884     LIBCMTD:wcsnicmp.obj
 0003:000278a0       ??_C@_1FA@MCFBMFHP@?$AAf?$AA?3?$AA?2?$AAd?$AAd?$AA?2?$AAv?$AAc?$AAt?$AAo?$AAo?$AAl?$AAs?$AA?2?$AAc?$AAr?$AAt?$AA?2?$AAc?$AAr?$AAt?$AAw?$AA3?$AA2?$AA?2?$AAs?$AAt?$AAd?$AAi?$AAo?$AA?2?$AAf@ 005668a0     LIBCMTD:fputwc.obj
 0003:00027900       ??_C@_1O@HJNPHHHB@?$AAf?$AAp?$AAu?$AAt?$AAw?$AAc?$AA?$AA@ 00566900     LIBCMTD:fputwc.obj
 0003:00027910       ??_C@_1FE@GDPLAOMM@?$AAf?$AA?3?$AA?2?$AAd?$AAd?$AA?2?$AAv?$AAc?$AAt?$AAo?$AAo?$AAl?$AAs?$AA?2?$AAc?$AAr?$AAt?$AA?2?$AAc?$AAr?$AAt?$AAw?$AA3?$AA2?$AA?2?$AAc?$AAo?$AAn?$AAv?$AAe?$AAr?$AAt@ 00566910     LIBCMTD:wcstol.obj
 0003:00027974       ??_C@_1BA@PCFLFGNC@?$AAw?$AAc?$AAs?$AAt?$AAo?$AAx?$AAl?$AA?$AA@ 00566974     LIBCMTD:wcstol.obj
 0003:00027988       ??_C@_1EO@IKHIJFCK@?$AAf?$AA?3?$AA?2?$AAd?$AAd?$AA?2?$AAv?$AAc?$AAt?$AAo?$AAo?$AAl?$AAs?$AA?2?$AAc?$AAr?$AAt?$AA?2?$AAf?$AAp?$AAw?$AA3?$AA2?$AA?2?$AAc?$AAo?$AAn?$AAv?$AA?2?$AAx?$AA1?$AA0@ 00566988     LIBCMTD:x10fout.obj
 0003:000279e8       ??_C@_1BI@ELMAAFLN@?$AA$?$AAI?$AA1?$AA0?$AA_?$AAO?$AAU?$AAT?$AAP?$AAU?$AAT?$AA?$AA@ 005669e8     LIBCMTD:x10fout.obj
 0003:00027a08       ??_C@_1EG@CDDBFNOB@?$AAs?$AAt?$AAr?$AAc?$AAp?$AAy?$AA_?$AAs?$AA?$CI?$AAf?$AAo?$AAs?$AA?9?$AA?$DO?$AAm?$AAa?$AAn?$AA?0?$AA?5?$AA2?$AA1?$AA?$CL?$AA1?$AA?0?$AA?5?$AA?$CC?$AA1?$AA?$CD?$AAS?$AAN?$AAA?$AAN@ 00566a08     LIBCMTD:x10fout.obj
 0003:00027a5c       ??_C@_06PGGFOGJG@1?$CDSNAN?$AA@ 00566a5c     LIBCMTD:x10fout.obj
 0003:00027a68       ??_C@_1EE@MADEBIHF@?$AAs?$AAt?$AAr?$AAc?$AAp?$AAy?$AA_?$AAs?$AA?$CI?$AAf?$AAo?$AAs?$AA?9?$AA?$DO?$AAm?$AAa?$AAn?$AA?0?$AA?5?$AA2?$AA1?$AA?$CL?$AA1?$AA?0?$AA?5?$AA?$CC?$AA1?$AA?$CD?$AAI?$AAN?$AAD?$AA?$CC@ 00566a68     LIBCMTD:x10fout.obj
 0003:00027abc       ??_C@_05PHHOCPM@1?$CDIND?$AA@ 00566abc     LIBCMTD:x10fout.obj
 0003:00027ac8       ??_C@_1EE@ICBBBPAI@?$AAs?$AAt?$AAr?$AAc?$AAp?$AAy?$AA_?$AAs?$AA?$CI?$AAf?$AAo?$AAs?$AA?9?$AA?$DO?$AAm?$AAa?$AAn?$AA?0?$AA?5?$AA2?$AA1?$AA?$CL?$AA1?$AA?0?$AA?5?$AA?$CC?$AA1?$AA?$CD?$AAI?$AAN?$AAF?$AA?$CC@ 00566ac8     LIBCMTD:x10fout.obj
 0003:00027b1c       ??_C@_05DNEBIAHO@1?$CDINF?$AA@ 00566b1c     LIBCMTD:x10fout.obj
 0003:00027b28       ??_C@_1EG@MCFPJJEM@?$AAs?$AAt?$AAr?$AAc?$AAp?$AAy?$AA_?$AAs?$AA?$CI?$AAf?$AAo?$AAs?$AA?9?$AA?$DO?$AAm?$AAa?$AAn?$AA?0?$AA?5?$AA2?$AA1?$AA?$CL?$AA1?$AA?0?$AA?5?$AA?$CC?$AA1?$AA?$CD?$AAQ?$AAN?$AAA?$AAN@ 00566b28     LIBCMTD:x10fout.obj
 0003:00027b7c       ??_C@_06IMKFLFPG@1?$CDQNAN?$AA@ 00566b7c     LIBCMTD:x10fout.obj
 0003:00027b84       ?commonFlags@?1??_control87@@9@9 00566b84     LIBCMTD:ieee87.obj
 0003:00027b88       ??_C@_1FG@DINMPAPJ@?$AAf?$AA?3?$AA?2?$AAd?$AAd?$AA?2?$AAv?$AAc?$AAt?$AAo?$AAo?$AAl?$AAs?$AA?2?$AAc?$AAr?$AAt?$AA?2?$AAf?$AAp?$AAw?$AA3?$AA2?$AA?2?$AAt?$AAr?$AAa?$AAn?$AA?2?$AAi?$AA3?$AA8@ 00566b88     LIBCMTD:ieee87.obj
 0003:00027bf0       ??_C@_1BO@OFDNCLL@?$AA_?$AAs?$AAe?$AAt?$AA_?$AAc?$AAo?$AAn?$AAt?$AAr?$AAo?$AAl?$AAf?$AAp?$AA?$AA@ 00566bf0     LIBCMTD:ieee87.obj
 0003:00027c18       ??_C@_1GO@OKJGOMCB@?$AA_?$AAc?$AAo?$AAn?$AAt?$AAr?$AAo?$AAl?$AAf?$AAp?$AA_?$AAs?$AA?$CI?$AA?$CI?$AA?$CI?$AAv?$AAo?$AAi?$AAd?$AA?5?$AA?$CK?$AA?$CJ?$AA0?$AA?$CJ?$AA?0?$AA?5?$AAn?$AAe?$AAw?$AAc?$AAt?$AAr@ 00566c18     LIBCMTD:ieee87.obj
 0003:00027c9c       ??_C@_1BA@BALFACEM@?$AAC?$AAO?$AAN?$AAO?$AAU?$AAT?$AA$?$AA?$AA@ 00566c9c     LIBCMTD:initcon.obj
 0003:00027cb0       ??_C@_1CK@GELGGBDK@?$AAp?$AAN?$AAo?$AAd?$AAe?$AA?9?$AA?$DO?$AA_?$AAN?$AAe?$AAx?$AAt?$AA?5?$AA?$CB?$AA?$DN?$AA?5?$AAN?$AAU?$AAL?$AAL?$AA?$AA@ 00566cb0     LIBCMTD:typname.obj
 0003:00027ce8       ??_C@_1FA@KAJOMDBA@?$AAf?$AA?3?$AA?2?$AAd?$AAd?$AA?2?$AAv?$AAc?$AAt?$AAo?$AAo?$AAl?$AAs?$AA?2?$AAc?$AAr?$AAt?$AA?2?$AAc?$AAr?$AAt?$AAw?$AA3?$AA2?$AA?2?$AAe?$AAh?$AA?2?$AAt?$AAy?$AAp?$AAn@ 00566ce8     LIBCMTD:typname.obj
 0003:00027d48       ??_C@_1CM@OOICDMK@?$AAt?$AAy?$AAp?$AAe?$AA_?$AAi?$AAn?$AAf?$AAo?$AA?3?$AA?3?$AA_?$AAN?$AAa?$AAm?$AAe?$AA_?$AAb?$AAa?$AAs?$AAe?$AA?$AA@ 00566d48     LIBCMTD:typname.obj
 0003:00027d80       ??_C@_1JK@NAFNEPGC@?$AAs?$AAt?$AAr?$AAc?$AAp?$AAy?$AA_?$AAs?$AA?5?$AA?$CI?$AA?$CI?$AAc?$AAh?$AAa?$AAr?$AA?5?$AA?$CK?$AA?$CJ?$AA?$CI?$AA?$CI?$AAt?$AAy?$AAp?$AAe?$AA_?$AAi?$AAn?$AAf?$AAo?$AA?5?$AA?$CK?$AA?$CJ@ 00566d80     LIBCMTD:typname.obj
 0003:00027e38       ??_C@_1DO@OJJLFJPE@?$AAt?$AAy?$AAp?$AAe?$AA_?$AAi?$AAn?$AAf?$AAo?$AA?3?$AA?3?$AA_?$AAN?$AAa?$AAm?$AAe?$AA_?$AAb?$AAa?$AAs?$AAe?$AA_?$AAi?$AAn?$AAt?$AAe?$AAr?$AAn?$AAa?$AAl?$AA?$AA@ 00566e38     LIBCMTD:typname.obj
 0003:00027e88       ??_C@_1GI@EAJKJPED@?$AAs?$AAt?$AAr?$AAc?$AAp?$AAy?$AA_?$AAs?$AA?5?$AA?$CI?$AAp?$AAT?$AAm?$AAp?$AAT?$AAy?$AAp?$AAe?$AAN?$AAa?$AAm?$AAe?$AA?0?$AA?5?$AAl?$AAe?$AAn?$AA?$CL?$AA2?$AA?0?$AA?5?$AA?$CI@ 00566e88     LIBCMTD:typname.obj
 0003:00027f08       ??_C@_1FE@IEEFCKDG@?$AAf?$AA?3?$AA?2?$AAd?$AAd?$AA?2?$AAv?$AAc?$AAt?$AAo?$AAo?$AAl?$AAs?$AA?2?$AAc?$AAr?$AAt?$AA?2?$AAc?$AAr?$AAt?$AAw?$AA3?$AA2?$AA?2?$AAc?$AAo?$AAn?$AAv?$AAe?$AAr?$AAt@ 00566f08     LIBCMTD:wcstoq.obj
 0003:00027f6c       ??_C@_1BA@FACINJJA@?$AAw?$AAc?$AAs?$AAt?$AAo?$AAx?$AAq?$AA?$AA@ 00566f6c     LIBCMTD:wcstoq.obj
 0003:00027f80       ??_C@_0CK@CEJCOKEF@f?3?2dd?2vctools?2crt?2crtw32?2convert@ 00566f80     LIBCMTD:wcstoq.obj
 0003:00028194       ??_C@_08EHJDFFNH@__based?$CI?$AA@ 00567194     LIBCMTD:undname.obj
 0003:000281a0       ??_C@_07KOLFKCDI@__cdecl?$AA@ 005671a0     LIBCMTD:undname.obj
 0003:000281ac       ??_C@_08GHMPAG@__pascal?$AA@ 005671ac     LIBCMTD:undname.obj
 0003:000281b8       ??_C@_09IFJBGAPI@__stdcall?$AA@ 005671b8     LIBCMTD:undname.obj
 0003:000281c4       ??_C@_0L@NPHFGOKO@__thiscall?$AA@ 005671c4     LIBCMTD:undname.obj
 0003:000281d4       ??_C@_0L@JMKHOMEK@__fastcall?$AA@ 005671d4     LIBCMTD:undname.obj
 0003:000281e4       ??_C@_0N@BCKKPABJ@__vectorcall?$AA@ 005671e4     LIBCMTD:undname.obj
 0003:000281f4       ??_C@_09HIJEGCPM@__clrcall?$AA@ 005671f4     LIBCMTD:undname.obj
 0003:00028200       ??_C@_06GHPCKEAG@__eabi?$AA@ 00567200     LIBCMTD:undname.obj
 0003:00028208       ??_C@_07JOMMBBKO@__ptr64?$AA@ 00567208     LIBCMTD:undname.obj
 0003:00028214       ??_C@_0L@PILCLIHE@__restrict?$AA@ 00567214     LIBCMTD:undname.obj
 0003:00028224       ??_C@_0M@GFIIJFMG@__unaligned?$AA@ 00567224     LIBCMTD:undname.obj
 0003:00028234       ??_C@_09DHDLOLLB@restrict?$CI?$AA@ 00567234     LIBCMTD:undname.obj
 0003:00028240       ??_C@_04NIHEBCM@?5new?$AA@ 00567240     LIBCMTD:undname.obj
 0003:00028248       ??_C@_07FPCDHGMM@?5delete?$AA@ 00567248     LIBCMTD:undname.obj
 0003:00028254       ??_C@_02GPIOPFAK@?$DO?$DO?$AA@ 00567254     LIBCMTD:undname.obj
 0003:00028258       ??_C@_02FODMEDOG@?$DM?$DM?$AA@ 00567258     LIBCMTD:undname.obj
 0003:0002825c       ??_C@_01DCLJPIOD@?$CB?$AA@ 0056725c     LIBCMTD:undname.obj
 0003:00028260       ??_C@_02EGOFBIJA@?$DN?$DN?$AA@ 00567260     LIBCMTD:undname.obj
 0003:00028264       ??_C@_02FDNJECIE@?$CB?$DN?$AA@ 00567264     LIBCMTD:undname.obj
 0003:00028268       ??_C@_02GPECMEKF@?$FL?$FN?$AA@ 00567268     LIBCMTD:undname.obj
 0003:0002826c       ??_C@_08LHJFAFGD@operator?$AA@ 0056726c     LIBCMTD:undname.obj
 0003:00028278       ??_C@_02HBOOOICD@?9?$DO?$AA@ 00567278     LIBCMTD:undname.obj
 0003:0002827c       ??_C@_01NBENCBCI@?$CK?$AA@ 0056727c     LIBCMTD:undname.obj
 0003:00028280       ??_C@_02ECNGHCIF@?$CL?$CL?$AA@ 00567280     LIBCMTD:undname.obj
 0003:00028284       ??_C@_01MIFGBAGJ@?$CL?$AA@ 00567284     LIBCMTD:undname.obj
 0003:00028288       ??_C@_01HNPIGOCE@?$CG?$AA@ 00567288     LIBCMTD:undname.obj
 0003:0002828c       ??_C@_03MNHNFDLC@?9?$DO?$CK?$AA@ 0056728c     LIBCMTD:undname.obj
 0003:00028290       ??_C@_01MNNFJEPP@?$DM?$AA@ 00567290     LIBCMTD:undname.obj
 0003:00028294       ??_C@_02EHCHHCKH@?$DM?$DN?$AA@ 00567294     LIBCMTD:undname.obj
 0003:00028298       ??_C@_01PPODPGHN@?$DO?$AA@ 00567298     LIBCMTD:undname.obj
 0003:0002829c       ??_C@_02EEKDKGMJ@?$DO?$DN?$AA@ 0056729c     LIBCMTD:undname.obj
 0003:000282a0       ??_C@_01IHBHIGKO@?0?$AA@   005672a0     LIBCMTD:undname.obj
 0003:000282a4       ??_C@_02HCKGKOFO@?$CI?$CJ?$AA@ 005672a4     LIBCMTD:undname.obj
 0003:000282a8       ??_C@_01PJKLJHI@?$HO?$AA@  005672a8     LIBCMTD:undname.obj
 0003:000282ac       ??_C@_01JKBOJNNK@?$FO?$AA@ 005672ac     LIBCMTD:undname.obj
 0003:000282b0       ??_C@_01DNKMNLPK@?$HM?$AA@ 005672b0     LIBCMTD:undname.obj
 0003:000282b4       ??_C@_02PPKAJPJL@?$CG?$CG?$AA@ 005672b4     LIBCMTD:undname.obj
 0003:000282b8       ??_C@_02NONPIBCD@?$HM?$HM?$AA@ 005672b8     LIBCMTD:undname.obj
 0003:000282bc       ??_C@_02FPIMKNGF@?$CK?$DN?$AA@ 005672bc     LIBCMTD:undname.obj
 0003:000282c0       ??_C@_02FOEOMHFC@?$CL?$DN?$AA@ 005672c0     LIBCMTD:undname.obj
 0003:000282c4       ??_C@_02FKMDLLOA@?9?$DN?$AA@ 005672c4     LIBCMTD:undname.obj
 0003:000282c8       ??_C@_02FJEHGPIO@?1?$DN?$AA@ 005672c8     LIBCMTD:undname.obj
 0003:000282cc       ??_C@_02FENAOKFI@?$CF?$DN?$AA@ 005672cc     LIBCMTD:undname.obj
 0003:000282d0       ??_C@_03IKFCCPFF@?$DO?$DO?$DN?$AA@ 005672d0     LIBCMTD:undname.obj
 0003:000282d4       ??_C@_03CDNPDDLA@?$DM?$DM?$DN?$AA@ 005672d4     LIBCMTD:undname.obj
 0003:000282d8       ??_C@_02FGJGFEAB@?$CG?$DN?$AA@ 005672d8     LIBCMTD:undname.obj
 0003:000282dc       ??_C@_02DHLNPPGH@?$HM?$DN?$AA@ 005672dc     LIBCMTD:undname.obj
 0003:000282e0       ??_C@_02MHEGNOJ@?$FO?$DN?$AA@ 005672e0     LIBCMTD:undname.obj
 0003:000282e4       ??_C@_09IFPLHPGF@?$GAvftable?8?$AA@ 005672e4     LIBCMTD:undname.obj
 0003:000282f0       ??_C@_09BLBHBJP@?$GAvbtable?8?$AA@ 005672f0     LIBCMTD:undname.obj
 0003:000282fc       ??_C@_07FEEIOKP@?$GAvcall?8?$AA@ 005672fc     LIBCMTD:undname.obj
 0003:00028308       ??_C@_08LLFFHHDJ@?$GAtypeof?8?$AA@ 00567308     LIBCMTD:undname.obj
 0003:00028314       ??_C@_0BF@KDPPACIK@?$GAlocal?5static?5guard?8?$AA@ 00567314     LIBCMTD:undname.obj
 0003:00028330       ??_C@_08OBABFOLI@?$GAstring?8?$AA@ 00567330     LIBCMTD:undname.obj
 0003:0002833c       ??_C@_0BD@JDLKDPAB@?$GAvbase?5destructor?8?$AA@ 0056733c     LIBCMTD:undname.obj
 0003:00028354       ??_C@_0BN@DEGPLNFK@?$GAvector?5deleting?5destructor?8?$AA@ 00567354     LIBCMTD:undname.obj
 0003:00028378       ??_C@_0BO@OBMKPJIG@?$GAdefault?5constructor?5closure?8?$AA@ 00567378     LIBCMTD:undname.obj
 0003:0002839c       ??_C@_0BN@IMDCHIKM@?$GAscalar?5deleting?5destructor?8?$AA@ 0056739c     LIBCMTD:undname.obj
 0003:000283c0       ??_C@_0BO@PFGOCPJJ@?$GAvector?5constructor?5iterator?8?$AA@ 005673c0     LIBCMTD:undname.obj
 0003:000283e4       ??_C@_0BN@LFPFMEDL@?$GAvector?5destructor?5iterator?8?$AA@ 005673e4     LIBCMTD:undname.obj
 0003:00028408       ??_C@_0CE@IKBNEHA@?$GAvector?5vbase?5constructor?5iterat@ 00567408     LIBCMTD:undname.obj
 0003:00028434       ??_C@_0BL@NILFHHPC@?$GAvirtual?5displacement?5map?8?$AA@ 00567434     LIBCMTD:undname.obj
 0003:00028454       ??_C@_0CB@JONCMFFK@?$GAeh?5vector?5constructor?5iterator?8@ 00567454     LIBCMTD:undname.obj
 0003:0002847c       ??_C@_0CA@GCEOPDGL@?$GAeh?5vector?5destructor?5iterator?8?$AA@ 0056747c     LIBCMTD:undname.obj
 0003:000284a4       ??_C@_0CH@OOJPLCPH@?$GAeh?5vector?5vbase?5constructor?5ite@ 005674a4     LIBCMTD:undname.obj
 0003:000284d4       ??_C@_0BL@LLKPOHJI@?$GAcopy?5constructor?5closure?8?$AA@ 005674d4     LIBCMTD:undname.obj
 0003:000284f4       ??_C@_0BA@KBCDOMBN@?$GAudt?5returning?8?$AA@ 005674f4     LIBCMTD:undname.obj
 0003:00028508       ??_C@_03KLGMFNMG@?$GAEH?$AA@ 00567508     LIBCMTD:undname.obj
 0003:0002850c       ??_C@_05KHLCHHI@?$GARTTI?$AA@ 0056750c     LIBCMTD:undname.obj
 0003:00028514       ??_C@_0BA@KKLDJDLB@?$GAlocal?5vftable?8?$AA@ 00567514     LIBCMTD:undname.obj
 0003:00028528       ??_C@_0CE@IIHCMGGL@?$GAlocal?5vftable?5constructor?5closu@ 00567528     LIBCMTD:undname.obj
 0003:00028554       ??_C@_06FHBGPFGH@?5new?$FL?$FN?$AA@ 00567554     LIBCMTD:undname.obj
 0003:0002855c       ??_C@_09LBNFPBCA@?5delete?$FL?$FN?$AA@ 0056755c     LIBCMTD:undname.obj
 0003:00028568       ??_C@_0P@HJKNJFNN@?$GAomni?5callsig?8?$AA@ 00567568     LIBCMTD:undname.obj
 0003:0002857c       ??_C@_0BL@CNOONJFP@?$GAplacement?5delete?5closure?8?$AA@ 0056757c     LIBCMTD:undname.obj
 0003:0002859c       ??_C@_0BN@CKNJLHMB@?$GAplacement?5delete?$FL?$FN?5closure?8?$AA@ 0056759c     LIBCMTD:undname.obj
 0003:000285c0       ??_C@_0CG@CFDHKGGD@?$GAmanaged?5vector?5constructor?5iter@ 005675c0     LIBCMTD:undname.obj
 0003:000285f0       ??_C@_0CF@IMGKMJNO@?$GAmanaged?5vector?5destructor?5itera@ 005675f0     LIBCMTD:undname.obj
 0003:0002861c       ??_C@_0CG@HLDDJMAG@?$GAeh?5vector?5copy?5constructor?5iter@ 0056761c     LIBCMTD:undname.obj
 0003:0002864c       ??_C@_0CM@FCBBDIGB@?$GAeh?5vector?5vbase?5copy?5constructo@ 0056764c     LIBCMTD:undname.obj
 0003:00028680       ??_C@_0BL@CLIPGLGB@?$GAdynamic?5initializer?5for?5?8?$AA@ 00567680     LIBCMTD:undname.obj
 0003:000286a0       ??_C@_0CB@PDBIFEP@?$GAdynamic?5atexit?5destructor?5for?5?8@ 005676a0     LIBCMTD:undname.obj
 0003:000286c8       ??_C@_0CD@CGAJBKEJ@?$GAvector?5copy?5constructor?5iterato@ 005676c8     LIBCMTD:undname.obj
 0003:000286f4       ??_C@_0CJ@GJELGAMM@?$GAvector?5vbase?5copy?5constructor?5i@ 005676f4     LIBCMTD:undname.obj
 0003:00028728       ??_C@_0CL@FGIJHLCE@?$GAmanaged?5vector?5copy?5constructor@ 00567728     LIBCMTD:undname.obj
 0003:0002875c       ??_C@_0BM@PMGGMLDN@?$GAlocal?5static?5thread?5guard?8?$AA@ 0056775c     LIBCMTD:undname.obj
 0003:00028780       ??_C@_0BC@DAFEJGAK@?5Type?5Descriptor?8?$AA@ 00567780     LIBCMTD:undname.obj
 0003:00028798       ??_C@_0BM@LDKODKLH@?5Base?5Class?5Descriptor?5at?5?$CI?$AA@ 00567798     LIBCMTD:undname.obj
 0003:000287bc       ??_C@_0BD@LGICGFMM@?5Base?5Class?5Array?8?$AA@ 005677bc     LIBCMTD:undname.obj
 0003:000287d4       ??_C@_0BN@MECKDCOJ@?5Class?5Hierarchy?5Descriptor?8?$AA@ 005677d4     LIBCMTD:undname.obj
 0003:000287f8       ??_C@_0BK@CFCOFLF@?5Complete?5Object?5Locator?8?$AA@ 005677f8     LIBCMTD:undname.obj
 0003:00028818       ??_C@_04HEJADOOB@CV?3?5?$AA@ 00567818     LIBCMTD:undname.obj
 0003:00028820       ??_C@_02MOLJINC@?3?3?$AA@  00567820     LIBCMTD:undname.obj
 0003:00028824       ??_C@_0BE@JAEOCHPE@template?9parameter?9?$AA@ 00567824     LIBCMTD:undname.obj
 0003:0002883c       ??_C@_0O@KHGCOMHP@generic?9type?9?$AA@ 0056783c     LIBCMTD:undname.obj
 0003:0002884c       ??_C@_01NLNLIGKH@?$GA?$AA@ 0056784c     LIBCMTD:undname.obj
 0003:00028850       ??_C@_01GEODFPGF@?8?$AA@   00567850     LIBCMTD:undname.obj
 0003:00028854       ??_C@_0BG@JNJLAMPM@?$GAanonymous?5namespace?8?$AA@ 00567854     LIBCMTD:undname.obj
 0003:00028870       ??_C@_02OHHJMEON@?8?8?$AA@ 00567870     LIBCMTD:undname.obj
 0003:00028874       ??_C@_0BN@IBLMMFAP@?$GAnon?9type?9template?9parameter?$AA@ 00567874     LIBCMTD:undname.obj
 0003:00028898       ??_C@_04GKJNKENE@void?$AA@ 00567898     LIBCMTD:undname.obj
 0003:000288a0       ??_C@_0BE@EODMJLIF@?$GAtemplate?9parameter?$AA@ 005678a0     LIBCMTD:undname.obj
 0003:000288b8       ??_C@_03OPGICMGF@?$HN?8?5?$AA@ 005678b8     LIBCMTD:undname.obj
 0003:000288bc       ??_C@_02IGFCGPIL@?$HN?8?$AA@ 005678bc     LIBCMTD:undname.obj
 0003:000288c0       ??_C@_0N@CBHHHENL@?$GAvtordispex?$HL?$AA@ 005678c0     LIBCMTD:undname.obj
 0003:000288d0       ??_C@_0L@GHPFDFH@?$GAvtordisp?$HL?$AA@ 005678d0     LIBCMTD:undname.obj
 0003:000288e0       ??_C@_0L@HNGCOGAE@?$GAadjustor?$HL?$AA@ 005678e0     LIBCMTD:undname.obj
 0003:000288f0       ??_C@_0CB@KJDOOODE@?$GAlocal?5static?5destructor?5helper?8@ 005678f0     LIBCMTD:undname.obj
 0003:00028918       ??_C@_0DB@ILEFOCIJ@?$GAtemplate?5static?5data?5member?5con@ 00567918     LIBCMTD:undname.obj
 0003:00028954       ??_C@_0DA@HGFJFBBE@?$GAtemplate?5static?5data?5member?5des@ 00567954     LIBCMTD:undname.obj
 0003:00028990       ??_C@_07PGOEDBHP@static?5?$AA@ 00567990     LIBCMTD:undname.obj
 0003:0002899c       ??_C@_08NIEOINHE@virtual?5?$AA@ 0056799c     LIBCMTD:undname.obj
 0003:000289a8       ??_C@_09LAPHOOG@private?3?5?$AA@ 005679a8     LIBCMTD:undname.obj
 0003:000289b4       ??_C@_0M@GAIFPFIP@protected?3?5?$AA@ 005679b4     LIBCMTD:undname.obj
 0003:000289c4       ??_C@_08GPDDCMKI@public?3?5?$AA@ 005679c4     LIBCMTD:undname.obj
 0003:000289d0       ??_C@_08KJLFOPNE@?$FLthunk?$FN?3?$AA@ 005679d0     LIBCMTD:undname.obj
 0003:000289dc       ??_C@_0M@DHNBOJMP@extern?5?$CCC?$CC?5?$AA@ 005679dc     LIBCMTD:undname.obj
 0003:000289ec       ??_C@_02KCKGHPCA@?$CJ?5?$AA@ 005679ec     LIBCMTD:undname.obj
 0003:000289f0       ??_C@_05CIHEBHNO@char?5?$AA@ 005679f0     LIBCMTD:undname.obj
 0003:000289f8       ??_C@_06EHJMALKF@short?5?$AA@ 005679f8     LIBCMTD:undname.obj
 0003:00028a00       ??_C@_04LAHKHJMA@int?5?$AA@ 00567a00     LIBCMTD:undname.obj
 0003:00028a08       ??_C@_05CJIMAING@long?5?$AA@ 00567a08     LIBCMTD:undname.obj
 0003:00028a10       ??_C@_09EBBEKKIH@unsigned?5?$AA@ 00567a10     LIBCMTD:undname.obj
 0003:00028a1c       ??_C@_05BEFAKPML@void?5?$AA@ 00567a1c     LIBCMTD:undname.obj
 0003:00028a24       ??_C@_08PABEKFH@volatile?$AA@ 00567a24     LIBCMTD:undname.obj
 0003:00028a30       ??_C@_0P@GCOCNKDM@std?3?3nullptr_t?$AA@ 00567a30     LIBCMTD:undname.obj
 0003:00028a44       ??_C@_0L@EGPHHEKN@?$DMellipsis?$DO?$AA@ 00567a44     LIBCMTD:undname.obj
 0003:00028a54       ??_C@_04EENFHACM@?0?4?4?4?$AA@ 00567a54     LIBCMTD:undname.obj
 0003:00028a5c       ??_C@_0M@ELJOJFFH@?0?$DMellipsis?$DO?$AA@ 00567a5c     LIBCMTD:undname.obj
 0003:00028a6c       ??_C@_07HDJPLPEK@?5throw?$CI?$AA@ 00567a6c     LIBCMTD:undname.obj
 0003:00028a78       ??_C@_03PBJBJNON@cpu?$AA@  00567a78     LIBCMTD:undname.obj
 0003:00028a7c       ??_C@_03DCBBJBAA@amp?$AA@  00567a7c     LIBCMTD:undname.obj
 0003:00028a80       ??_C@_04ENMBGAPA@char?$AA@ 00567a80     LIBCMTD:undname.obj
 0003:00028a88       ??_C@_05BFKKPKCG@short?$AA@ 00567a88     LIBCMTD:undname.obj
 0003:00028a90       ??_C@_03JBIPMCLC@int?$AA@  00567a90     LIBCMTD:undname.obj
 0003:00028a94       ??_C@_04GOKPGOLB@long?$AA@ 00567a94     LIBCMTD:undname.obj
 0003:00028a9c       ??_C@_05KNFBNCOH@float?$AA@ 00567a9c     LIBCMTD:undname.obj
 0003:00028aa4       ??_C@_06BNJCAIGJ@double?$AA@ 00567aa4     LIBCMTD:undname.obj
 0003:00028aac       ??_C@_04DDKJGDCM@bool?$AA@ 00567aac     LIBCMTD:undname.obj
 0003:00028ab4       ??_C@_06EBGKOKIG@__int8?$AA@ 00567ab4     LIBCMTD:undname.obj
 0003:00028abc       ??_C@_07ICFHOGAF@__int16?$AA@ 00567abc     LIBCMTD:undname.obj
 0003:00028ac8       ??_C@_07OFLPPHGP@__int32?$AA@ 00567ac8     LIBCMTD:undname.obj
 0003:00028ad4       ??_C@_07LFCOJCAC@__int64?$AA@ 00567ad4     LIBCMTD:undname.obj
 0003:00028ae0       ??_C@_08GAHOLHEO@__int128?$AA@ 00567ae0     LIBCMTD:undname.obj
 0003:00028aec       ??_C@_09EEKGDCPH@?$DMunknown?$DO?$AA@ 00567aec     LIBCMTD:undname.obj
 0003:00028af8       ??_C@_07CLGGIAMF@wchar_t?$AA@ 00567af8     LIBCMTD:undname.obj
 0003:00028b04       ??_C@_06GCICPBLB@__w64?5?$AA@ 00567b04     LIBCMTD:undname.obj
 0003:00028b0c       ??_C@_07NFANNNEC@UNKNOWN?$AA@ 00567b0c     LIBCMTD:undname.obj
 0003:00028b18       ??_C@_07EDHNAJHC@signed?5?$AA@ 00567b18     LIBCMTD:undname.obj
 0003:00028b24       ??_C@_05BNCCCJPP@const?$AA@ 00567b24     LIBCMTD:undname.obj
 0003:00028b2c       ??_C@_09EFNPDFFP@?5volatile?$AA@ 00567b2c     LIBCMTD:undname.obj
 0003:00028b38       ??_C@_0P@GCIFDJCJ@?$GAunknown?5ecsu?8?$AA@ 00567b38     LIBCMTD:undname.obj
 0003:00028b4c       ??_C@_06MOJHIBMG@union?5?$AA@ 00567b4c     LIBCMTD:undname.obj
 0003:00028b54       ??_C@_07DIBCDNGL@struct?5?$AA@ 00567b54     LIBCMTD:undname.obj
 0003:00028b60       ??_C@_06LJBABKPM@class?5?$AA@ 00567b60     LIBCMTD:undname.obj
 0003:00028b68       ??_C@_08KOFANOFK@coclass?5?$AA@ 00567b68     LIBCMTD:undname.obj
 0003:00028b74       ??_C@_0N@DLIEFKNA@cointerface?5?$AA@ 00567b74     LIBCMTD:undname.obj
 0003:00028b84       ??_C@_05LJGMCFOG@enum?5?$AA@ 00567b84     LIBCMTD:undname.obj
 0003:00028b8c       ??_C@_09GAIEOBLP@volatile?5?$AA@ 00567b8c     LIBCMTD:undname.obj
 0003:00028b98       ??_C@_06LIJLOJAG@const?5?$AA@ 00567b98     LIBCMTD:undname.obj
 0003:00028ba0       ??_C@_0M@EALIELKG@cli?3?3array?$DM?$AA@ 00567ba0     LIBCMTD:undname.obj
 0003:00028bb0       ??_C@_0O@GKABPPIF@cli?3?3pin_ptr?$DM?$AA@ 00567bb0     LIBCMTD:undname.obj
 0003:00028bc0       ??_C@_02GOGNNPBN@?$CJ?$FL?$AA@ 00567bc0     LIBCMTD:undname.obj
 0003:00028bc4       ??_C@_06EEGAIFAK@?$HLflat?$HN?$AA@ 00567bc4     LIBCMTD:undname.obj
 0003:00028bcc       ??_C@_05JIBOFOHK@?$HLfor?5?$AA@ 00567bcc     LIBCMTD:undname.obj
 0003:00028bd4       ??_C@_02MDINNEEG@s?5?$AA@  00567bd4     LIBCMTD:undname.obj
 0003:00028bdc       ??_7DNameNode@@6B@         00567bdc     LIBCMTD:undname.obj
 0003:00028bf0       ??_7charNode@@6B@          00567bf0     LIBCMTD:undname.obj
 0003:00028c04       ??_7pcharNode@@6B@         00567c04     LIBCMTD:undname.obj
 0003:00028c18       ??_7pDNameNode@@6B@        00567c18     LIBCMTD:undname.obj
 0003:00028c2c       ??_7DNameStatusNode@@6B@   00567c2c     LIBCMTD:undname.obj
 0003:00028c40       ??_7pairNode@@6B@          00567c40     LIBCMTD:undname.obj
 0003:00028c50       ??_C@_04OKOHEJBO@?5?$DP?$DP?5?$AA@ 00567c50     LIBCMTD:undname.obj
 0003:00028c58       ??_C@_1FE@LABOBFHJ@?$AAf?$AA?3?$AA?2?$AAd?$AAd?$AA?2?$AAv?$AAc?$AAt?$AAo?$AAo?$AAl?$AAs?$AA?2?$AAc?$AAr?$AAt?$AA?2?$AAc?$AAr?$AAt?$AAw?$AA3?$AA2?$AA?2?$AAc?$AAo?$AAn?$AAv?$AAe?$AAr?$AAt@ 00567c58     LIBCMTD:wcstod.obj
 0003:00028cbc       ??_C@_1BE@CIGDJHAJ@?$AA_?$AAw?$AAc?$AAs?$AAt?$AAo?$AAd?$AA_?$AAl?$AA?$AA@ 00567cbc     LIBCMTD:wcstod.obj
 0003:00028cd4       ??_C@_1CA@JGBKKNCE@?$AA_?$AA_?$AAw?$AAs?$AAt?$AAr?$AAg?$AAt?$AAo?$AAl?$AAd?$AA1?$AA2?$AA_?$AAl?$AA?$AA@ 00567cd4     LIBCMTD:wstrgtold.obj
 0003:00028d00       __load_config_used         00567d00     LIBCMTD:loadcfg.obj
 0003:00029944       ??_R4bad_exception@std@@6B@ 00568944     LIBCMTD:frame.obj
 0003:0002995c       ??_R3bad_exception@std@@8  0056895c     LIBCMTD:frame.obj
 0003:00029970       ??_R2bad_exception@std@@8  00568970     LIBCMTD:frame.obj
 0003:0002997c       ??_R1A@?0A@EA@bad_exception@std@@8 0056897c     LIBCMTD:frame.obj
 0003:000299a0       ??_R1A@?0A@EA@exception@std@@8 005689a0     LIBCMTD:frame.obj
 0003:000299c4       ??_R3exception@std@@8      005689c4     LIBCMTD:frame.obj
 0003:000299d8       ??_R2exception@std@@8      005689d8     LIBCMTD:frame.obj
 0003:000299e0       ??_R4type_info@@6B@        005689e0     LIBCMTD:typinfo.obj
 0003:000299f8       ??_R3type_info@@8          005689f8     LIBCMTD:typinfo.obj
 0003:00029a0c       ??_R2type_info@@8          00568a0c     LIBCMTD:typinfo.obj
 0003:00029a14       ??_R1A@?0A@EA@type_info@@8 00568a14     LIBCMTD:typinfo.obj
 0003:00029a38       ??_R4exception@std@@6B@    00568a38     LIBCMTD:stdexcpt.obj
 0003:00029a50       ??_R4bad_cast@std@@6B@     00568a50     LIBCMTD:stdexcpt.obj
 0003:00029a68       ??_R3bad_cast@std@@8       00568a68     LIBCMTD:stdexcpt.obj
 0003:00029a7c       ??_R2bad_cast@std@@8       00568a7c     LIBCMTD:stdexcpt.obj
 0003:00029a88       ??_R1A@?0A@EA@bad_cast@std@@8 00568a88     LIBCMTD:stdexcpt.obj
 0003:00029aac       ??_R4bad_typeid@std@@6B@   00568aac     LIBCMTD:stdexcpt.obj
 0003:00029ac4       ??_R3bad_typeid@std@@8     00568ac4     LIBCMTD:stdexcpt.obj
 0003:00029ad8       ??_R2bad_typeid@std@@8     00568ad8     LIBCMTD:stdexcpt.obj
 0003:00029ae4       ??_R1A@?0A@EA@bad_typeid@std@@8 00568ae4     LIBCMTD:stdexcpt.obj
 0003:00029b08       ??_R4__non_rtti_object@std@@6B@ 00568b08     LIBCMTD:stdexcpt.obj
 0003:00029b20       ??_R3__non_rtti_object@std@@8 00568b20     LIBCMTD:stdexcpt.obj
 0003:00029b34       ??_R2__non_rtti_object@std@@8 00568b34     LIBCMTD:stdexcpt.obj
 0003:00029b44       ??_R1A@?0A@EA@__non_rtti_object@std@@8 00568b44     LIBCMTD:stdexcpt.obj
 0003:00029b68       ??_R4DNameNode@@6B@        00568b68     LIBCMTD:undname.obj
 0003:00029b80       ??_R3DNameNode@@8          00568b80     LIBCMTD:undname.obj
 0003:00029b94       ??_R2DNameNode@@8          00568b94     LIBCMTD:undname.obj
 0003:00029b9c       ??_R1A@?0A@EA@DNameNode@@8 00568b9c     LIBCMTD:undname.obj
 0003:00029bc0       ??_R4charNode@@6B@         00568bc0     LIBCMTD:undname.obj
 0003:00029bd8       ??_R3charNode@@8           00568bd8     LIBCMTD:undname.obj
 0003:00029bec       ??_R2charNode@@8           00568bec     LIBCMTD:undname.obj
 0003:00029bf8       ??_R1A@?0A@EA@charNode@@8  00568bf8     LIBCMTD:undname.obj
 0003:00029c1c       ??_R4pcharNode@@6B@        00568c1c     LIBCMTD:undname.obj
 0003:00029c34       ??_R3pcharNode@@8          00568c34     LIBCMTD:undname.obj
 0003:00029c48       ??_R2pcharNode@@8          00568c48     LIBCMTD:undname.obj
 0003:00029c54       ??_R1A@?0A@EA@pcharNode@@8 00568c54     LIBCMTD:undname.obj
 0003:00029c78       ??_R4pDNameNode@@6B@       00568c78     LIBCMTD:undname.obj
 0003:00029c90       ??_R3pDNameNode@@8         00568c90     LIBCMTD:undname.obj
 0003:00029ca4       ??_R2pDNameNode@@8         00568ca4     LIBCMTD:undname.obj
 0003:00029cb0       ??_R1A@?0A@EA@pDNameNode@@8 00568cb0     LIBCMTD:undname.obj
 0003:00029cd4       ??_R4DNameStatusNode@@6B@  00568cd4     LIBCMTD:undname.obj
 0003:00029cec       ??_R3DNameStatusNode@@8    00568cec     LIBCMTD:undname.obj
 0003:00029d00       ??_R2DNameStatusNode@@8    00568d00     LIBCMTD:undname.obj
 0003:00029d0c       ??_R1A@?0A@EA@DNameStatusNode@@8 00568d0c     LIBCMTD:undname.obj
 0003:00029d30       ??_R4pairNode@@6B@         00568d30     LIBCMTD:undname.obj
 0003:00029d48       ??_R3pairNode@@8           00568d48     LIBCMTD:undname.obj
 0003:00029d5c       ??_R2pairNode@@8           00568d5c     LIBCMTD:undname.obj
 0003:00029d68       ??_R1A@?0A@EA@pairNode@@8  00568d68     LIBCMTD:undname.obj
 0003:00029ea8       ___rtc_iaa                 00568ea8     LIBCMTD:initsect.obj
 0003:00029fac       ___rtc_izz                 00568fac     LIBCMTD:initsect.obj
 0003:0002a0b0       ___rtc_taa                 005690b0     LIBCMTD:initsect.obj
 0003:0002a1b4       ___rtc_tzz                 005691b4     LIBCMTD:initsect.obj
 0003:0002ab98       __TI2?AVbad_exception@std@@ 00569b98     LIBCMTD:frame.obj
 0003:0002abac       __CTA2?AVbad_exception@std@@ 00569bac     LIBCMTD:frame.obj
 0003:0002abbc       __CT??_R0?AVbad_exception@std@@@8??0bad_exception@std@@QAE@ABV01@@Z12 00569bbc     LIBCMTD:frame.obj
 0003:0002abdc       __CT??_R0?AVexception@std@@@8??0exception@std@@QAE@ABV01@@Z12 00569bdc     LIBCMTD:frame.obj
 0004:00000a54       ?__LINE__Var@?1??inv_set_state@@9@9@bad55f8b 0056ba54     pjsip-ua-i386-win32-vc8-debug:sip_inv.obj
 0004:00000a58       ?__LINE__Var@?1??inv_send_ack@@9@9@bad55f8b 0056ba58     pjsip-ua-i386-win32-vc8-debug:sip_inv.obj
 0004:00000a5c       ?__LINE__Var@?1??mod_inv_on_rx_request@@9@9@bad55f8b 0056ba5c     pjsip-ua-i386-win32-vc8-debug:sip_inv.obj
 0004:00000a60       ?__LINE__Var@?1??pjsip_inv_usage_init@@9@9 0056ba60     pjsip-ua-i386-win32-vc8-debug:sip_inv.obj
 0004:00000a64       ?__LINE__Var@?1??pjsip_inv_state_name@@9@9 0056ba64     pjsip-ua-i386-win32-vc8-debug:sip_inv.obj
 0004:00000a68       ?__LINE__Var@?1??pjsip_inv_create_uac@@9@9 0056ba68     pjsip-ua-i386-win32-vc8-debug:sip_inv.obj
 0004:00000a6c       ?__LINE__Var@?1??pjsip_rdata_get_sdp_info@@9@9 0056ba6c     pjsip-ua-i386-win32-vc8-debug:sip_inv.obj
 0004:00000a70       ?__LINE__Var@?1??pjsip_inv_verify_request3@@9@9 0056ba70     pjsip-ua-i386-win32-vc8-debug:sip_inv.obj
 0004:00000a74       ?__LINE__Var@?1??pjsip_inv_create_uas@@9@9 0056ba74     pjsip-ua-i386-win32-vc8-debug:sip_inv.obj
 0004:00000a78       ?__LINE__Var@?1??pjsip_inv_terminate@@9@9 0056ba78     pjsip-ua-i386-win32-vc8-debug:sip_inv.obj
 0004:00000a7c       ?__LINE__Var@?1??pjsip_inv_uac_restart@@9@9 0056ba7c     pjsip-ua-i386-win32-vc8-debug:sip_inv.obj
 0004:00000a80       ?__LINE__Var@?1??pjsip_create_sdp_body@@9@9 0056ba80     pjsip-ua-i386-win32-vc8-debug:sip_inv.obj
 0004:00000a84       ?__LINE__Var@?1??pjsip_inv_invite@@9@9 0056ba84     pjsip-ua-i386-win32-vc8-debug:sip_inv.obj
 0004:00000a88       ?__LINE__Var@?1??inv_negotiate_sdp@@9@9@bad55f8b 0056ba88     pjsip-ua-i386-win32-vc8-debug:sip_inv.obj
 0004:00000a8c       ?__LINE__Var@?1??inv_check_sdp_in_incoming_msg@@9@9@bad55f8b 0056ba8c     pjsip-ua-i386-win32-vc8-debug:sip_inv.obj
 0004:00000a90       ?__LINE__Var@?1??process_answer@@9@9@bad55f8b 0056ba90     pjsip-ua-i386-win32-vc8-debug:sip_inv.obj
 0004:00000a94       ?__LINE__Var@?1??pjsip_inv_initial_answer@@9@9 0056ba94     pjsip-ua-i386-win32-vc8-debug:sip_inv.obj
 0004:00000a98       ?__LINE__Var@?1??pjsip_inv_answer@@9@9 0056ba98     pjsip-ua-i386-win32-vc8-debug:sip_inv.obj
 0004:00000a9c       ?__LINE__Var@?1??pjsip_inv_set_local_sdp@@9@9 0056ba9c     pjsip-ua-i386-win32-vc8-debug:sip_inv.obj
 0004:00000aa0       ?__LINE__Var@?1??pjsip_inv_set_sdp_answer@@9@9 0056baa0     pjsip-ua-i386-win32-vc8-debug:sip_inv.obj
 0004:00000aa4       ?__LINE__Var@?1??pjsip_inv_end_session@@9@9 0056baa4     pjsip-ua-i386-win32-vc8-debug:sip_inv.obj
 0004:00000aa8       ?__LINE__Var@?1??pjsip_inv_cancel_reinvite@@9@9 0056baa8     pjsip-ua-i386-win32-vc8-debug:sip_inv.obj
 0004:00000aac       ?__LINE__Var@?1??inv_uac_recurse@@9@9@bad55f8b 0056baac     pjsip-ua-i386-win32-vc8-debug:sip_inv.obj
 0004:00000ab0       ?__LINE__Var@?1??pjsip_inv_process_redirect@@9@9 0056bab0     pjsip-ua-i386-win32-vc8-debug:sip_inv.obj
 0004:00000ab4       ?__LINE__Var@?1??pjsip_inv_reinvite@@9@9 0056bab4     pjsip-ua-i386-win32-vc8-debug:sip_inv.obj
 0004:00000ab8       ?__LINE__Var@?1??pjsip_inv_update@@9@9 0056bab8     pjsip-ua-i386-win32-vc8-debug:sip_inv.obj
 0004:00000abc       ?__LINE__Var@?1??pjsip_inv_create_ack@@9@9 0056babc     pjsip-ua-i386-win32-vc8-debug:sip_inv.obj
 0004:00000ac0       ?__LINE__Var@?1??pjsip_inv_send_msg@@9@9 0056bac0     pjsip-ua-i386-win32-vc8-debug:sip_inv.obj
 0004:00000ac4       ?__LINE__Var@?1??inv_respond_incoming_cancel@@9@9@bad55f8b 0056bac4     pjsip-ua-i386-win32-vc8-debug:sip_inv.obj
 0004:00000ac8       ?__LINE__Var@?1??inv_handle_update_response@@9@9@bad55f8b 0056bac8     pjsip-ua-i386-win32-vc8-debug:sip_inv.obj
 0004:00000acc       ?__LINE__Var@?1??inv_on_state_null@@9@9@bad55f8b 0056bacc     pjsip-ua-i386-win32-vc8-debug:sip_inv.obj
 0004:00000ad0       ?__LINE__Var@?1??handle_uac_tsx_response@@9@9@bad55f8b 0056bad0     pjsip-ua-i386-win32-vc8-debug:sip_inv.obj
 0004:00000ad4       ?__LINE__Var@?1??inv_on_state_calling@@9@9@bad55f8b 0056bad4     pjsip-ua-i386-win32-vc8-debug:sip_inv.obj
 0004:00000ad8       ?__LINE__Var@?1??inv_on_state_incoming@@9@9@bad55f8b 0056bad8     pjsip-ua-i386-win32-vc8-debug:sip_inv.obj
 0004:00000adc       ?__LINE__Var@?1??inv_on_state_early@@9@9@bad55f8b 0056badc     pjsip-ua-i386-win32-vc8-debug:sip_inv.obj
 0004:00000ae0       ?__LINE__Var@?1??inv_on_state_connecting@@9@9@bad55f8b 0056bae0     pjsip-ua-i386-win32-vc8-debug:sip_inv.obj
 0004:00000ae4       ?__LINE__Var@?1??inv_on_state_confirmed@@9@9@bad55f8b 0056bae4     pjsip-ua-i386-win32-vc8-debug:sip_inv.obj
 0004:00000ae8       ?__LINE__Var@?1??inv_on_state_disconnected@@9@9@bad55f8b 0056bae8     pjsip-ua-i386-win32-vc8-debug:sip_inv.obj
 0004:00000b3c       ?__LINE__Var@?1??pjsip_100rel_attach@@9@9 0056bb3c     pjsip-ua-i386-win32-vc8-debug:sip_100rel.obj
 0004:00000b40       ?__LINE__Var@?1??pjsip_100rel_is_reliable@@9@9 0056bb40     pjsip-ua-i386-win32-vc8-debug:sip_100rel.obj
 0004:00000b44       ?__LINE__Var@?1??pjsip_100rel_create_prack@@9@9 0056bb44     pjsip-ua-i386-win32-vc8-debug:sip_100rel.obj
 0004:00000b48       ?__LINE__Var@?1??pjsip_100rel_send_prack@@9@9 0056bb48     pjsip-ua-i386-win32-vc8-debug:sip_100rel.obj
 0004:00000b4c       ?__LINE__Var@?1??pjsip_100rel_end_session@@9@9 0056bb4c     pjsip-ua-i386-win32-vc8-debug:sip_100rel.obj
 0004:00000b50       ?__LINE__Var@?1??pjsip_100rel_on_rx_prack@@9@9 0056bb50     pjsip-ua-i386-win32-vc8-debug:sip_100rel.obj
 0004:00000b54       ?__LINE__Var@?1??on_retransmit@@9@9@4c2b766f 0056bb54     pjsip-ua-i386-win32-vc8-debug:sip_100rel.obj
 0004:00000b58       ?__LINE__Var@?1??pjsip_100rel_tx_response@@9@9 0056bb58     pjsip-ua-i386-win32-vc8-debug:sip_100rel.obj
 0004:00000b78       ?__LINE__Var@?1??timer_cb@@9@9@a1d2f3a0 0056bb78     pjsip-ua-i386-win32-vc8-debug:sip_timer.obj
 0004:00000b7c       ?__LINE__Var@?1??start_timer@@9@9@a1d2f3a0 0056bb7c     pjsip-ua-i386-win32-vc8-debug:sip_timer.obj
 0004:00000b80       ?__LINE__Var@?1??pjsip_timer_init_module@@9@9 0056bb80     pjsip-ua-i386-win32-vc8-debug:sip_timer.obj
 0004:00000b84       ?__LINE__Var@?1??pjsip_timer_init_session@@9@9 0056bb84     pjsip-ua-i386-win32-vc8-debug:sip_timer.obj
 0004:00000b88       ?__LINE__Var@?1??pjsip_sess_expires_hdr_create@@9@9 0056bb88     pjsip-ua-i386-win32-vc8-debug:sip_timer.obj
 0004:00000b8c       ?__LINE__Var@?1??pjsip_min_se_hdr_create@@9@9 0056bb8c     pjsip-ua-i386-win32-vc8-debug:sip_timer.obj
 0004:00000b90       ?__LINE__Var@?1??pjsip_timer_update_req@@9@9 0056bb90     pjsip-ua-i386-win32-vc8-debug:sip_timer.obj
 0004:00000b94       ?__LINE__Var@?1??pjsip_timer_process_resp@@9@9 0056bb94     pjsip-ua-i386-win32-vc8-debug:sip_timer.obj
 0004:00000b98       ?__LINE__Var@?1??pjsip_timer_handle_refresh_error@@9@9 0056bb98     pjsip-ua-i386-win32-vc8-debug:sip_timer.obj
 0004:00000b9c       ?__LINE__Var@?1??pjsip_timer_process_req@@9@9 0056bb9c     pjsip-ua-i386-win32-vc8-debug:sip_timer.obj
 0004:00000ba0       ?__LINE__Var@?1??pjsip_timer_update_resp@@9@9 0056bba0     pjsip-ua-i386-win32-vc8-debug:sip_timer.obj
 0004:00000ba4       ?__LINE__Var@?1??pjsip_timer_end_session@@9@9 0056bba4     pjsip-ua-i386-win32-vc8-debug:sip_timer.obj
 0004:00000c64       ?__LINE__Var@?1??pjsip_method_set@@9@9 0056bc64     pjsip-core-i386-win32-vc8-debug:sip_msg.obj
 0004:00000c68       ?__LINE__Var@?1??pjsip_media_type_cmp@@9@9 0056bc68     pjsip-core-i386-win32-vc8-debug:sip_msg.obj
 0004:00000c6c       ?__LINE__Var@?1??pjsip_media_type_cp@@9@9 0056bc6c     pjsip-core-i386-win32-vc8-debug:sip_msg.obj
 0004:00000c70       ?__LINE__Var@?1??pjsip_routing_hdr_print@@9@9@128515a0 0056bc70     pjsip-core-i386-win32-vc8-debug:sip_msg.obj
 0004:00000c74       ?__LINE__Var@?1??pjsip_msg_body_copy@@9@9 0056bc74     pjsip-core-i386-win32-vc8-debug:sip_msg.obj
 0004:00000c78       ?__LINE__Var@?1??pjsip_msg_body_clone@@9@9 0056bc78     pjsip-core-i386-win32-vc8-debug:sip_msg.obj
 0004:00000c7c       ?__LINE__Var@?1??pjsip_msg_body_create@@9@9 0056bc7c     pjsip-core-i386-win32-vc8-debug:sip_msg.obj
 0004:00000fcc       ?__LINE__Var@?1??get_tpname@@9@9@2e2bf2da 0056bfcc     pjsip-core-i386-win32-vc8-debug:sip_transport.obj
 0004:00000fd0       ?__LINE__Var@?1??pjsip_transport_register_type@@9@9 0056bfd0     pjsip-core-i386-win32-vc8-debug:sip_transport.obj
 0004:00000fd4       ?__LINE__Var@?1??pjsip_transport_get_type_from_name@@9@9 0056bfd4     pjsip-core-i386-win32-vc8-debug:sip_transport.obj
 0004:00000fd8       ?__LINE__Var@?1??pjsip_transport_get_type_from_flag@@9@9 0056bfd8     pjsip-core-i386-win32-vc8-debug:sip_transport.obj
 0004:00000fdc       ?__LINE__Var@?1??pjsip_tx_data_create@@9@9 0056bfdc     pjsip-core-i386-win32-vc8-debug:sip_transport.obj
 0004:00000fe0       ?__LINE__Var@?1??pjsip_tx_data_dec_ref@@9@9 0056bfe0     pjsip-core-i386-win32-vc8-debug:sip_transport.obj
 0004:00000fe4       ?__LINE__Var@?1??pjsip_tx_data_encode@@9@9 0056bfe4     pjsip-core-i386-win32-vc8-debug:sip_transport.obj
 0004:00000fe8       ?__LINE__Var@?1??get_msg_info@@9@9@2e2bf2da 0056bfe8     pjsip-core-i386-win32-vc8-debug:sip_transport.obj
 0004:00000fec       ?__LINE__Var@?1??pjsip_tx_data_get_info@@9@9 0056bfec     pjsip-core-i386-win32-vc8-debug:sip_transport.obj
 0004:00000ff0       ?__LINE__Var@?1??pjsip_tx_data_set_transport@@9@9 0056bff0     pjsip-core-i386-win32-vc8-debug:sip_transport.obj
 0004:00000ff4       ?__LINE__Var@?1??pjsip_rx_data_get_info@@9@9 0056bff4     pjsip-core-i386-win32-vc8-debug:sip_transport.obj
 0004:00000ff8       ?__LINE__Var@?1??pjsip_rx_data_clone@@9@9 0056bff8     pjsip-core-i386-win32-vc8-debug:sip_transport.obj
 0004:00000ffc       ?__LINE__Var@?1??pjsip_rx_data_free_cloned@@9@9 0056bffc     pjsip-core-i386-win32-vc8-debug:sip_transport.obj
 0004:00001000       ?__LINE__Var@?1??pjsip_transport_send@@9@9 0056c000     pjsip-core-i386-win32-vc8-debug:sip_transport.obj
 0004:00001004       ?__LINE__Var@?1??transport_idle_callback@@9@9@2e2bf2da 0056c004     pjsip-core-i386-win32-vc8-debug:sip_transport.obj
 0004:00001008       ?__LINE__Var@?1??pjsip_transport_add_ref@@9@9 0056c008     pjsip-core-i386-win32-vc8-debug:sip_transport.obj
 0004:0000100c       ?__LINE__Var@?1??pjsip_transport_dec_ref@@9@9 0056c00c     pjsip-core-i386-win32-vc8-debug:sip_transport.obj
 0004:00001010       ?__LINE__Var@?1??pjsip_transport_destroy@@9@9 0056c010     pjsip-core-i386-win32-vc8-debug:sip_transport.obj
 0004:00001014       ?__LINE__Var@?1??pjsip_tpmgr_unregister_tpfactory@@9@9 0056c014     pjsip-core-i386-win32-vc8-debug:sip_transport.obj
 0004:00001018       ?__LINE__Var@?1??pjsip_tpmgr_create@@9@9 0056c018     pjsip-core-i386-win32-vc8-debug:sip_transport.obj
 0004:0000101c       ?__LINE__Var@?1??pjsip_tpmgr_find_local_addr2@@9@9 0056c01c     pjsip-core-i386-win32-vc8-debug:sip_transport.obj
 0004:00001020       ?__LINE__Var@?1??pjsip_tpmgr_receive_packet@@9@9 0056c020     pjsip-core-i386-win32-vc8-debug:sip_transport.obj
 0004:00001024       ?__LINE__Var@?1??pjsip_tpmgr_acquire_transport2@@9@9 0056c024     pjsip-core-i386-win32-vc8-debug:sip_transport.obj
 0004:00001028       ?__LINE__Var@?1??pjsip_tpmgr_set_state_cb@@9@9 0056c028     pjsip-core-i386-win32-vc8-debug:sip_transport.obj
 0004:0000102c       ?__LINE__Var@?1??pjsip_tpmgr_get_state_cb@@9@9 0056c02c     pjsip-core-i386-win32-vc8-debug:sip_transport.obj
 0004:00001030       ?__LINE__Var@?1??init_tp_data@@9@9@2e2bf2da 0056c030     pjsip-core-i386-win32-vc8-debug:sip_transport.obj
 0004:00001034       ?__LINE__Var@?1??pjsip_transport_add_state_listener@@9@9 0056c034     pjsip-core-i386-win32-vc8-debug:sip_transport.obj
 0004:00001038       ?__LINE__Var@?1??pjsip_transport_remove_state_listener@@9@9 0056c038     pjsip-core-i386-win32-vc8-debug:sip_transport.obj
 0004:0000103c       ?__LINE__Var@?1??pjsip_endpt_register_module@@9@9 0056c03c     pjsip-core-i386-win32-vc8-debug:sip_endpoint.obj
 0004:00001040       ?__LINE__Var@?1??pjsip_endpt_unregister_module@@9@9 0056c040     pjsip-core-i386-win32-vc8-debug:sip_endpoint.obj
 0004:00001044       ?__LINE__Var@?1??unload_module@@9@9@8f8a4d6d 0056c044     pjsip-core-i386-win32-vc8-debug:sip_endpoint.obj
 0004:00001048       ?__LINE__Var@?1??pjsip_endpt_get_capability@@9@9 0056c048     pjsip-core-i386-win32-vc8-debug:sip_endpoint.obj
 0004:0000104c       ?__LINE__Var@?1??pjsip_endpt_has_capability@@9@9 0056c04c     pjsip-core-i386-win32-vc8-debug:sip_endpoint.obj
 0004:00001050       ?__LINE__Var@?1??pjsip_endpt_add_capability@@9@9 0056c050     pjsip-core-i386-win32-vc8-debug:sip_endpoint.obj
 0004:00001054       ?__LINE__Var@?1??pjsip_endpt_create@@9@9 0056c054     pjsip-core-i386-win32-vc8-debug:sip_endpoint.obj
 0004:00001058       ?__LINE__Var@?1??pjsip_endpt_handle_events2@@9@9 0056c058     pjsip-core-i386-win32-vc8-debug:sip_endpoint.obj
 0004:0000105c       ?__LINE__Var@?1??pjsip_endpt_process_rx_data@@9@9 0056c05c     pjsip-core-i386-win32-vc8-debug:sip_endpoint.obj
 0004:00001060       ?__LINE__Var@?1??pjsip_endpt_create_resolver@@9@9 0056c060     pjsip-core-i386-win32-vc8-debug:sip_endpoint.obj
 0004:00001064       ?__LINE__Var@?1??pjsip_endpt_get_resolver@@9@9 0056c064     pjsip-core-i386-win32-vc8-debug:sip_endpoint.obj
 0004:00001068       ?__LINE__Var@?1??pjsip_endpt_atexit@@9@9 0056c068     pjsip-core-i386-win32-vc8-debug:sip_endpoint.obj
 0004:000010a0       ?__LINE__Var@?1??pjsip_target_set_add_uri@@9@9 0056c0a0     pjsip-core-i386-win32-vc8-debug:sip_util.obj
 0004:000010a4       ?__LINE__Var@?1??pjsip_target_set_add_from_msg@@9@9 0056c0a4     pjsip-core-i386-win32-vc8-debug:sip_util.obj
 0004:000010a8       ?__LINE__Var@?1??pjsip_target_set_set_current@@9@9 0056c0a8     pjsip-core-i386-win32-vc8-debug:sip_util.obj
 0004:000010ac       ?__LINE__Var@?1??pjsip_target_assign_status@@9@9 0056c0ac     pjsip-core-i386-win32-vc8-debug:sip_util.obj
 0004:000010b0       ?__LINE__Var@?1??pjsip_endpt_create_request_from_hdr@@9@9 0056c0b0     pjsip-core-i386-win32-vc8-debug:sip_util.obj
 0004:000010b4       ?__LINE__Var@?1??pjsip_endpt_create_response@@9@9 0056c0b4     pjsip-core-i386-win32-vc8-debug:sip_util.obj
 0004:000010b8       ?__LINE__Var@?1??pjsip_endpt_create_ack@@9@9 0056c0b8     pjsip-core-i386-win32-vc8-debug:sip_util.obj
 0004:000010bc       ?__LINE__Var@?1??pjsip_endpt_create_cancel@@9@9 0056c0bc     pjsip-core-i386-win32-vc8-debug:sip_util.obj
 0004:000010c0       ?__LINE__Var@?1??pjsip_get_request_dest@@9@9 0056c0c0     pjsip-core-i386-win32-vc8-debug:sip_util.obj
 0004:000010c4       ?__LINE__Var@?1??pjsip_process_route_set@@9@9 0056c0c4     pjsip-core-i386-win32-vc8-debug:sip_util.obj
 0004:000010c8       ?__LINE__Var@?1??pjsip_restore_strict_route_set@@9@9 0056c0c8     pjsip-core-i386-win32-vc8-debug:sip_util.obj
 0004:000010cc       ?__LINE__Var@?1??stateless_send_transport_cb@@9@9@89cc552c 0056c0cc     pjsip-core-i386-win32-vc8-debug:sip_util.obj
 0004:000010d0       ?__LINE__Var@?1??stateless_send_resolver_callback@@9@9@89cc552c 0056c0d0     pjsip-core-i386-win32-vc8-debug:sip_util.obj
 0004:000010d4       ?__LINE__Var@?1??pjsip_endpt_send_request_stateless@@9@9 0056c0d4     pjsip-core-i386-win32-vc8-debug:sip_util.obj
 0004:000010d8       ?__LINE__Var@?1??send_raw_resolver_callback@@9@9@89cc552c 0056c0d8     pjsip-core-i386-win32-vc8-debug:sip_util.obj
 0004:000010dc       ?__LINE__Var@?1??pjsip_get_response_addr@@9@9 0056c0dc     pjsip-core-i386-win32-vc8-debug:sip_util.obj
 0004:000010e0       ?__LINE__Var@?1??pjsip_endpt_respond_stateless@@9@9 0056c0e0     pjsip-core-i386-win32-vc8-debug:sip_util.obj
 0004:000010e4       _mod_stateful_util         0056c0e4     pjsip-core-i386-win32-vc8-debug:sip_util_statefull.obj
 0004:0000112c       ?__LINE__Var@?1??pjsip_endpt_send_request@@9@9 0056c12c     pjsip-core-i386-win32-vc8-debug:sip_util_statefull.obj
 0004:00001130       ?__LINE__Var@?1??pjsip_endpt_respond@@9@9 0056c130     pjsip-core-i386-win32-vc8-debug:sip_util_statefull.obj
 0004:00001134       ?__LINE__Var@?1??udp_on_read_complete@@9@9@45d88369 0056c134     pjsip-core-i386-win32-vc8-debug:sip_transport_udp.obj
 0004:00001138       ?__LINE__Var@?1??udp_send_msg@@9@9@45d88369 0056c138     pjsip-core-i386-win32-vc8-debug:sip_transport_udp.obj
 0004:0000113c       ?__LINE__Var@?1??udp_set_pub_name@@9@9@45d88369 0056c13c     pjsip-core-i386-win32-vc8-debug:sip_transport_udp.obj
 0004:00001140       ?__LINE__Var@?1??start_async_read@@9@9@45d88369 0056c140     pjsip-core-i386-win32-vc8-debug:sip_transport_udp.obj
 0004:00001144       ?__LINE__Var@?1??transport_attach@@9@9@45d88369 0056c144     pjsip-core-i386-win32-vc8-debug:sip_transport_udp.obj
 0004:00001148       ?__LINE__Var@?1??pjsip_udp_transport_start@@9@9 0056c148     pjsip-core-i386-win32-vc8-debug:sip_transport_udp.obj
 0004:0000114c       ?__LINE__Var@?1??pjsip_udp_transport_start6@@9@9 0056c14c     pjsip-core-i386-win32-vc8-debug:sip_transport_udp.obj
 0004:00001150       ?__LINE__Var@?1??pjsip_udp_transport_get_socket@@9@9 0056c150     pjsip-core-i386-win32-vc8-debug:sip_transport_udp.obj
 0004:00001154       ?__LINE__Var@?1??pjsip_udp_transport_pause@@9@9 0056c154     pjsip-core-i386-win32-vc8-debug:sip_transport_udp.obj
 0004:00001158       ?__LINE__Var@?1??pjsip_udp_transport_restart@@9@9 0056c158     pjsip-core-i386-win32-vc8-debug:sip_transport_udp.obj
 0004:0000115c       ?__LINE__Var@?1??pjsip_tcp_transport_start3@@9@9 0056c15c     pjsip-core-i386-win32-vc8-debug:sip_transport_tcp.obj
 0004:00001160       ?__LINE__Var@?1??tcp_create@@9@9@e56f9260 0056c160     pjsip-core-i386-win32-vc8-debug:sip_transport_tcp.obj
 0004:00001164       ?__LINE__Var@?1??lis_create_transport@@9@9@e56f9260 0056c164     pjsip-core-i386-win32-vc8-debug:sip_transport_tcp.obj
 0004:00001168       ?__LINE__Var@?1??on_accept_complete@@9@9@e56f9260 0056c168     pjsip-core-i386-win32-vc8-debug:sip_transport_tcp.obj
 0004:0000116c       ?__LINE__Var@?1??tcp_send_msg@@9@9@e56f9260 0056c16c     pjsip-core-i386-win32-vc8-debug:sip_transport_tcp.obj
 0004:00001170       ?__LINE__Var@?1??on_data_read@@9@9@e56f9260 0056c170     pjsip-core-i386-win32-vc8-debug:sip_transport_tcp.obj
 0004:00001280       ?__LINE__Var@?1??create_tsx_key_2543@@9@9@e530eea4 0056c280     pjsip-core-i386-win32-vc8-debug:sip_transaction.obj
 0004:00001284       ?__LINE__Var@?1??create_tsx_key_3261@@9@9@e530eea4 0056c284     pjsip-core-i386-win32-vc8-debug:sip_transaction.obj
 0004:00001288       ?__LINE__Var@?1??pjsip_tsx_layer_init_module@@9@9 0056c288     pjsip-core-i386-win32-vc8-debug:sip_transaction.obj
 0004:0000128c       ?__LINE__Var@?1??pjsip_tsx_layer_destroy@@9@9 0056c28c     pjsip-core-i386-win32-vc8-debug:sip_transaction.obj
 0004:00001290       ?__LINE__Var@?1??mod_tsx_layer_register_tsx@@9@9@e530eea4 0056c290     pjsip-core-i386-win32-vc8-debug:sip_transaction.obj
 0004:00001294       ?__LINE__Var@?1??mod_tsx_layer_unregister_tsx@@9@9@e530eea4 0056c294     pjsip-core-i386-win32-vc8-debug:sip_transaction.obj
 0004:00001298       ?__LINE__Var@?1??pjsip_tsx_layer_get_tsx_count@@9@9 0056c298     pjsip-core-i386-win32-vc8-debug:sip_transaction.obj
 0004:0000129c       ?__LINE__Var@?1??tsx_schedule_timer@@9@9@e530eea4 0056c29c     pjsip-core-i386-win32-vc8-debug:sip_transaction.obj
 0004:000012a0       ?__LINE__Var@?1??tsx_set_state@@9@9@e530eea4 0056c2a0     pjsip-core-i386-win32-vc8-debug:sip_transaction.obj
 0004:000012a4       ?__LINE__Var@?1??pjsip_tsx_create_uac2@@9@9 0056c2a4     pjsip-core-i386-win32-vc8-debug:sip_transaction.obj
 0004:000012a8       ?__LINE__Var@?1??pjsip_tsx_create_uas2@@9@9 0056c2a8     pjsip-core-i386-win32-vc8-debug:sip_transaction.obj
 0004:000012ac       ?__LINE__Var@?1??pjsip_tsx_set_transport@@9@9 0056c2ac     pjsip-core-i386-win32-vc8-debug:sip_transaction.obj
 0004:000012b0       ?__LINE__Var@?1??pjsip_tsx_terminate@@9@9 0056c2b0     pjsip-core-i386-win32-vc8-debug:sip_transaction.obj
 0004:000012b4       ?__LINE__Var@?1??pjsip_tsx_stop_retransmit@@9@9 0056c2b4     pjsip-core-i386-win32-vc8-debug:sip_transaction.obj
 0004:000012b8       ?__LINE__Var@?1??pjsip_tsx_set_timeout@@9@9 0056c2b8     pjsip-core-i386-win32-vc8-debug:sip_transaction.obj
 0004:000012bc       ?__LINE__Var@?1??pjsip_tsx_send_msg@@9@9 0056c2bc     pjsip-core-i386-win32-vc8-debug:sip_transaction.obj
 0004:000012c0       ?__LINE__Var@?1??send_msg_callback@@9@9@e530eea4 0056c2c0     pjsip-core-i386-win32-vc8-debug:sip_transaction.obj
 0004:000012c4       ?__LINE__Var@?1??tsx_tp_state_callback@@9@9@e530eea4 0056c2c4     pjsip-core-i386-win32-vc8-debug:sip_transaction.obj
 0004:000012c8       ?__LINE__Var@?1??tsx_send_msg@@9@9@e530eea4 0056c2c8     pjsip-core-i386-win32-vc8-debug:sip_transaction.obj
 0004:000012cc       ?__LINE__Var@?1??tsx_resched_retransmission@@9@9@e530eea4 0056c2cc     pjsip-core-i386-win32-vc8-debug:sip_transaction.obj
 0004:000012d0       ?__LINE__Var@?1??tsx_retransmit@@9@9@e530eea4 0056c2d0     pjsip-core-i386-win32-vc8-debug:sip_transaction.obj
 0004:000012d4       ?__LINE__Var@?1??tsx_update_transport@@9@9@e530eea4 0056c2d4     pjsip-core-i386-win32-vc8-debug:sip_transaction.obj
 0004:000012d8       ?__LINE__Var@?1??tsx_on_state_null@@9@9@e530eea4 0056c2d8     pjsip-core-i386-win32-vc8-debug:sip_transaction.obj
 0004:000012dc       ?__LINE__Var@?1??tsx_on_state_calling@@9@9@e530eea4 0056c2dc     pjsip-core-i386-win32-vc8-debug:sip_transaction.obj
 0004:000012e0       ?__LINE__Var@?1??tsx_on_state_trying@@9@9@e530eea4 0056c2e0     pjsip-core-i386-win32-vc8-debug:sip_transaction.obj
 0004:000012e4       ?__LINE__Var@?1??tsx_on_state_proceeding_uas@@9@9@e530eea4 0056c2e4     pjsip-core-i386-win32-vc8-debug:sip_transaction.obj
 0004:000012e8       ?__LINE__Var@?1??tsx_on_state_proceeding_uac@@9@9@e530eea4 0056c2e8     pjsip-core-i386-win32-vc8-debug:sip_transaction.obj
 0004:000012ec       ?__LINE__Var@?1??tsx_on_state_completed_uas@@9@9@e530eea4 0056c2ec     pjsip-core-i386-win32-vc8-debug:sip_transaction.obj
 0004:000012f0       ?__LINE__Var@?1??tsx_on_state_completed_uac@@9@9@e530eea4 0056c2f0     pjsip-core-i386-win32-vc8-debug:sip_transaction.obj
 0004:000012f4       ?__LINE__Var@?1??tsx_on_state_confirmed@@9@9@e530eea4 0056c2f4     pjsip-core-i386-win32-vc8-debug:sip_transaction.obj
 0004:000012f8       ?__LINE__Var@?1??tsx_on_state_terminated@@9@9@e530eea4 0056c2f8     pjsip-core-i386-win32-vc8-debug:sip_transaction.obj
 0004:0000138c       ?__LINE__Var@?1??pjsip_ua_init_module@@9@9 0056c38c     pjsip-core-i386-win32-vc8-debug:sip_ua_layer.obj
 0004:00001390       ?__LINE__Var@?1??pjsip_ua_get_endpt@@9@9 0056c390     pjsip-core-i386-win32-vc8-debug:sip_ua_layer.obj
 0004:00001394       ?__LINE__Var@?1??pjsip_ua_destroy@@9@9 0056c394     pjsip-core-i386-win32-vc8-debug:sip_ua_layer.obj
 0004:00001398       ?__LINE__Var@?1??pjsip_ua_register_dlg@@9@9 0056c398     pjsip-core-i386-win32-vc8-debug:sip_ua_layer.obj
 0004:0000139c       ?__LINE__Var@?1??pjsip_ua_unregister_dlg@@9@9 0056c39c     pjsip-core-i386-win32-vc8-debug:sip_ua_layer.obj
 0004:000013a0       ?__LINE__Var@?1??pjsip_ua_get_dlg_set_count@@9@9 0056c3a0     pjsip-core-i386-win32-vc8-debug:sip_ua_layer.obj
 0004:000013a4       ?__LINE__Var@?1??pjsip_ua_find_dialog@@9@9 0056c3a4     pjsip-core-i386-win32-vc8-debug:sip_ua_layer.obj
 0004:000013a8       ?__LINE__Var@?1??mod_ua_on_rx_response@@9@9@8622b784 0056c3a8     pjsip-core-i386-win32-vc8-debug:sip_ua_layer.obj
 0004:000013ac       _pjsip_include_allow_hdr_in_dlg 0056c3ac     pjsip-core-i386-win32-vc8-debug:sip_dialog.obj
 0004:000013b0       ?__LINE__Var@?1??create_dialog@@9@9@8366a785 0056c3b0     pjsip-core-i386-win32-vc8-debug:sip_dialog.obj
 0004:000013b4       ?__LINE__Var@?1??pjsip_dlg_create_uac@@9@9 0056c3b4     pjsip-core-i386-win32-vc8-debug:sip_dialog.obj
 0004:000013b8       ?__LINE__Var@?1??pjsip_dlg_create_uas@@9@9 0056c3b8     pjsip-core-i386-win32-vc8-debug:sip_dialog.obj
 0004:000013bc       ?__LINE__Var@?1??pjsip_dlg_set_transport@@9@9 0056c3bc     pjsip-core-i386-win32-vc8-debug:sip_dialog.obj
 0004:000013c0       ?__LINE__Var@?1??pjsip_dlg_set_via_sent_by@@9@9 0056c3c0     pjsip-core-i386-win32-vc8-debug:sip_dialog.obj
 0004:000013c4       ?__LINE__Var@?1??pjsip_dlg_fork@@9@9 0056c3c4     pjsip-core-i386-win32-vc8-debug:sip_dialog.obj
 0004:000013c8       ?__LINE__Var@?1??unregister_and_destroy_dialog@@9@9@8366a785 0056c3c8     pjsip-core-i386-win32-vc8-debug:sip_dialog.obj
 0004:000013cc       ?__LINE__Var@?1??pjsip_dlg_terminate@@9@9 0056c3cc     pjsip-core-i386-win32-vc8-debug:sip_dialog.obj
 0004:000013d0       ?__LINE__Var@?1??pjsip_dlg_set_route_set@@9@9 0056c3d0     pjsip-core-i386-win32-vc8-debug:sip_dialog.obj
 0004:000013d4       ?__LINE__Var@?1??pjsip_dlg_inc_session@@9@9 0056c3d4     pjsip-core-i386-win32-vc8-debug:sip_dialog.obj
 0004:000013d8       ?__LINE__Var@?1??pjsip_dlg_dec_lock@@9@9 0056c3d8     pjsip-core-i386-win32-vc8-debug:sip_dialog.obj
 0004:000013dc       ?__LINE__Var@?1??pjsip_dlg_dec_session@@9@9 0056c3dc     pjsip-core-i386-win32-vc8-debug:sip_dialog.obj
 0004:000013e0       ?__LINE__Var@?1??pjsip_dlg_add_usage@@9@9 0056c3e0     pjsip-core-i386-win32-vc8-debug:sip_dialog.obj
 0004:000013e4       ?__LINE__Var@?1??pjsip_dlg_set_mod_data@@9@9 0056c3e4     pjsip-core-i386-win32-vc8-debug:sip_dialog.obj
 0004:000013e8       ?__LINE__Var@?1??pjsip_dlg_get_mod_data@@9@9 0056c3e8     pjsip-core-i386-win32-vc8-debug:sip_dialog.obj
 0004:000013ec       ?__LINE__Var@?1??pjsip_dlg_create_request@@9@9 0056c3ec     pjsip-core-i386-win32-vc8-debug:sip_dialog.obj
 0004:000013f0       ?__LINE__Var@?1??pjsip_dlg_send_request@@9@9 0056c3f0     pjsip-core-i386-win32-vc8-debug:sip_dialog.obj
 0004:000013f4       ?__LINE__Var@?1??dlg_beautify_response@@9@9@8366a785 0056c3f4     pjsip-core-i386-win32-vc8-debug:sip_dialog.obj
 0004:000013f8       ?__LINE__Var@?1??pjsip_dlg_modify_response@@9@9 0056c3f8     pjsip-core-i386-win32-vc8-debug:sip_dialog.obj
 0004:000013fc       ?__LINE__Var@?1??pjsip_dlg_send_response@@9@9 0056c3fc     pjsip-core-i386-win32-vc8-debug:sip_dialog.obj
 0004:00001400       ?__LINE__Var@?1??pjsip_dlg_respond@@9@9 0056c400     pjsip-core-i386-win32-vc8-debug:sip_dialog.obj
 0004:00001404       ?__LINE__Var@?1??pjsip_dlg_on_rx_request@@9@9 0056c404     pjsip-core-i386-win32-vc8-debug:sip_dialog.obj
 0004:00001408       ?__LINE__Var@?1??dlg_update_routeset@@9@9@8366a785 0056c408     pjsip-core-i386-win32-vc8-debug:sip_dialog.obj
 0004:0000140c       ?__LINE__Var@?1??pjsip_dlg_on_rx_response@@9@9 0056c40c     pjsip-core-i386-win32-vc8-debug:sip_dialog.obj
 0004:00001410       ?__LINE__Var@?1??pjsip_dlg_on_tsx_state@@9@9 0056c410     pjsip-core-i386-win32-vc8-debug:sip_dialog.obj
 0004:00001414       ?__LINE__Var@?1??pjsip_dlg_remote_has_cap@@9@9 0056c414     pjsip-core-i386-win32-vc8-debug:sip_dialog.obj
 0004:00001418       ?__LINE__Var@?1??pjsip_dlg_update_remote_cap@@9@9 0056c418     pjsip-core-i386-win32-vc8-debug:sip_dialog.obj
 0004:0000141c       ?__LINE__Var@?1??pjsip_dlg_get_remote_cap_hdr@@9@9 0056c41c     pjsip-core-i386-win32-vc8-debug:sip_dialog.obj
 0004:00001420       ?__LINE__Var@?1??pjsip_dlg_set_remote_cap_hdr@@9@9 0056c420     pjsip-core-i386-win32-vc8-debug:sip_dialog.obj
 0004:00001424       ?__LINE__Var@?1??pjsip_dlg_remove_remote_cap_hdr@@9@9 0056c424     pjsip-core-i386-win32-vc8-debug:sip_dialog.obj
 0004:00001428       ?__LINE__Var@?1??pjsip_auth_create_digest@@9@9 0056c428     pjsip-core-i386-win32-vc8-debug:sip_auth_client.obj
 0004:0000142c       ?__LINE__Var@?1??pjsip_auth_clt_init@@9@9 0056c42c     pjsip-core-i386-win32-vc8-debug:sip_auth_client.obj
 0004:00001430       ?__LINE__Var@?1??pjsip_auth_clt_clone@@9@9 0056c430     pjsip-core-i386-win32-vc8-debug:sip_auth_client.obj
 0004:00001434       ?__LINE__Var@?1??pjsip_auth_clt_set_credentials@@9@9 0056c434     pjsip-core-i386-win32-vc8-debug:sip_auth_client.obj
 0004:00001438       ?__LINE__Var@?1??pjsip_auth_clt_set_prefs@@9@9 0056c438     pjsip-core-i386-win32-vc8-debug:sip_auth_client.obj
 0004:0000143c       ?__LINE__Var@?1??pjsip_auth_clt_get_prefs@@9@9 0056c43c     pjsip-core-i386-win32-vc8-debug:sip_auth_client.obj
 0004:00001440       ?__LINE__Var@?1??auth_respond@@9@9@e922b188 0056c440     pjsip-core-i386-win32-vc8-debug:sip_auth_client.obj
 0004:00001444       ?__LINE__Var@?1??pjsip_auth_clt_init_req@@9@9 0056c444     pjsip-core-i386-win32-vc8-debug:sip_auth_client.obj
 0004:00001448       ?__LINE__Var@?1??pjsip_auth_clt_reinit_req@@9@9 0056c448     pjsip-core-i386-win32-vc8-debug:sip_auth_client.obj
 0004:00001588       _PJSIP_SYN_ERR_EXCEPTION   0056c588     pjsip-core-i386-win32-vc8-debug:sip_parser.obj
 0004:000015cc       ?__LINE__Var@?1??init_parser@@9@9@5ada27aa 0056c5cc     pjsip-core-i386-win32-vc8-debug:sip_parser.obj
 0004:000015d0       ?__LINE__Var@?1??int_register_parser@@9@9@5ada27aa 0056c5d0     pjsip-core-i386-win32-vc8-debug:sip_parser.obj
 0004:000015d4       ?__LINE__Var@?1??pjsip_register_hdr_parser@@9@9 0056c5d4     pjsip-core-i386-win32-vc8-debug:sip_parser.obj
 0004:000015d8       ?__LINE__Var@?1??multipart_print_body@@9@9@79e6a4b8 0056c5d8     pjsip-core-i386-win32-vc8-debug:sip_multipart.obj
 0004:000015dc       ?__LINE__Var@?1??pjsip_multipart_create@@9@9 0056c5dc     pjsip-core-i386-win32-vc8-debug:sip_multipart.obj
 0004:000015e0       ?__LINE__Var@?1??pjsip_multipart_add_part@@9@9 0056c5e0     pjsip-core-i386-win32-vc8-debug:sip_multipart.obj
 0004:000015e4       ?__LINE__Var@?1??pjsip_multipart_get_first_part@@9@9 0056c5e4     pjsip-core-i386-win32-vc8-debug:sip_multipart.obj
 0004:000015e8       ?__LINE__Var@?1??pjsip_multipart_get_next_part@@9@9 0056c5e8     pjsip-core-i386-win32-vc8-debug:sip_multipart.obj
 0004:000015ec       ?__LINE__Var@?1??pjsip_multipart_find_part@@9@9 0056c5ec     pjsip-core-i386-win32-vc8-debug:sip_multipart.obj
 0004:000015f0       ?__LINE__Var@?1??pjsip_multipart_parse@@9@9 0056c5f0     pjsip-core-i386-win32-vc8-debug:sip_multipart.obj
 0004:000015f4       _pjsip_sip_cfg_var         0056c5f4     pjsip-core-i386-win32-vc8-debug:sip_config.obj
 0004:000016b0       ?__LINE__Var@?1??pjsip_url_print@@9@9@f037838c 0056c6b0     pjsip-core-i386-win32-vc8-debug:sip_uri.obj
 0004:000016b4       ?__LINE__Var@?1??pjsip_name_addr_get_scheme@@9@9@f037838c 0056c6b4     pjsip-core-i386-win32-vc8-debug:sip_uri.obj
 0004:000016b8       ?__LINE__Var@?1??pjsip_name_addr_print@@9@9@f037838c 0056c6b8     pjsip-core-i386-win32-vc8-debug:sip_uri.obj
 0004:000016bc       ?__LINE__Var@?1??pjsip_name_addr_compare@@9@9@f037838c 0056c6bc     pjsip-core-i386-win32-vc8-debug:sip_uri.obj
 0004:000016c0       ?__LINE__Var@?1??pjsip_resolver_create@@9@9 0056c6c0     pjsip-core-i386-win32-vc8-debug:sip_resolve.obj
 0004:000016c4       ?__LINE__Var@?1??pjsip_resolve@@9@9 0056c6c4     pjsip-core-i386-win32-vc8-debug:sip_resolve.obj
 0004:000016fc       ?__LINE__Var@?1??pjsip_tel_uri_subsys_init@@9@9 0056c6fc     pjsip-core-i386-win32-vc8-debug:sip_tel_uri.obj
 0004:0000171c       ?__LINE__Var@?1??pjsip_authorization_hdr_print@@9@9@cd97e13f 0056c71c     pjsip-core-i386-win32-vc8-debug:sip_auth_msg.obj
 0004:00001720       ?__LINE__Var@?1??pjsip_authorization_hdr_clone@@9@9@cd97e13f 0056c720     pjsip-core-i386-win32-vc8-debug:sip_auth_msg.obj
 0004:00001724       ?__LINE__Var@?1??pjsip_www_authenticate_hdr_print@@9@9@cd97e13f 0056c724     pjsip-core-i386-win32-vc8-debug:sip_auth_msg.obj
 0004:00001728       ?__LINE__Var@?1??pjsip_www_authenticate_hdr_clone@@9@9@cd97e13f 0056c728     pjsip-core-i386-win32-vc8-debug:sip_auth_msg.obj
 0004:0000172c       ?__LINE__Var@?1??pjsip_auth_init_parser@@9@9 0056c72c     pjsip-core-i386-win32-vc8-debug:sip_auth_parser.obj
 0004:00001730       ?__LINE__Var@?1??pjmedia_sdp_attr_create@@9@9 0056c730     pjmedia-i386-win32-vc8-debug:sdp.obj
 0004:00001734       ?__LINE__Var@?1??pjmedia_sdp_attr_clone@@9@9 0056c734     pjmedia-i386-win32-vc8-debug:sdp.obj
 0004:00001738       ?__LINE__Var@?1??pjmedia_sdp_attr_add@@9@9 0056c738     pjmedia-i386-win32-vc8-debug:sdp.obj
 0004:0000173c       ?__LINE__Var@?1??pjmedia_sdp_attr_remove_all@@9@9 0056c73c     pjmedia-i386-win32-vc8-debug:sdp.obj
 0004:00001740       ?__LINE__Var@?1??pjmedia_sdp_attr_remove@@9@9 0056c740     pjmedia-i386-win32-vc8-debug:sdp.obj
 0004:00001744       ?__LINE__Var@?1??pjmedia_sdp_attr_get_rtpmap@@9@9 0056c744     pjmedia-i386-win32-vc8-debug:sdp.obj
 0004:00001748       ?__LINE__Var@?1??pjmedia_sdp_attr_get_fmtp@@9@9 0056c748     pjmedia-i386-win32-vc8-debug:sdp.obj
 0004:0000174c       ?__LINE__Var@?1??pjmedia_sdp_attr_get_rtcp@@9@9 0056c74c     pjmedia-i386-win32-vc8-debug:sdp.obj
 0004:00001750       ?__LINE__Var@?1??pjmedia_sdp_attr_create_rtcp@@9@9 0056c750     pjmedia-i386-win32-vc8-debug:sdp.obj
 0004:00001754       ?__LINE__Var@?1??pjmedia_sdp_attr_to_rtpmap@@9@9 0056c754     pjmedia-i386-win32-vc8-debug:sdp.obj
 0004:00001758       ?__LINE__Var@?1??pjmedia_sdp_rtpmap_to_attr@@9@9 0056c758     pjmedia-i386-win32-vc8-debug:sdp.obj
 0004:0000175c       ?__LINE__Var@?1??pjmedia_sdp_media_clone@@9@9 0056c75c     pjmedia-i386-win32-vc8-debug:sdp.obj
 0004:00001760       ?__LINE__Var@?1??pjmedia_sdp_media_find_attr@@9@9 0056c760     pjmedia-i386-win32-vc8-debug:sdp.obj
 0004:00001764       ?__LINE__Var@?1??pjmedia_sdp_media_find_attr2@@9@9 0056c764     pjmedia-i386-win32-vc8-debug:sdp.obj
 0004:00001768       ?__LINE__Var@?1??pjmedia_sdp_parse@@9@9 0056c768     pjmedia-i386-win32-vc8-debug:sdp.obj
 0004:0000176c       ?__LINE__Var@?1??pjmedia_sdp_session_clone@@9@9 0056c76c     pjmedia-i386-win32-vc8-debug:sdp.obj
 0004:00001770       ?__LINE__Var@?1??pjmedia_sdp_media_deactivate@@9@9 0056c770     pjmedia-i386-win32-vc8-debug:sdp.obj
 0004:00001774       ?__LINE__Var@?1??pjmedia_sdp_media_clone_deactivate@@9@9 0056c774     pjmedia-i386-win32-vc8-debug:sdp.obj
 0004:00001790       ?__LINE__Var@?1??pjmedia_sdp_neg_create_w_local_offer@@9@9 0056c790     pjmedia-i386-win32-vc8-debug:sdp_neg.obj
 0004:00001794       ?__LINE__Var@?1??pjmedia_sdp_neg_create_w_remote_offer@@9@9 0056c794     pjmedia-i386-win32-vc8-debug:sdp_neg.obj
 0004:00001798       ?__LINE__Var@?1??pjmedia_sdp_neg_set_prefer_remote_codec_order@@9@9 0056c798     pjmedia-i386-win32-vc8-debug:sdp_neg.obj
 0004:0000179c       ?__LINE__Var@?1??pjmedia_sdp_neg_set_answer_multiple_codecs@@9@9 0056c79c     pjmedia-i386-win32-vc8-debug:sdp_neg.obj
 0004:000017a0       ?__LINE__Var@?1??pjmedia_sdp_neg_get_state@@9@9 0056c7a0     pjmedia-i386-win32-vc8-debug:sdp_neg.obj
 0004:000017a4       ?__LINE__Var@?1??pjmedia_sdp_neg_get_active_local@@9@9 0056c7a4     pjmedia-i386-win32-vc8-debug:sdp_neg.obj
 0004:000017a8       ?__LINE__Var@?1??pjmedia_sdp_neg_get_active_remote@@9@9 0056c7a8     pjmedia-i386-win32-vc8-debug:sdp_neg.obj
 0004:000017ac       ?__LINE__Var@?1??pjmedia_sdp_neg_was_answer_remote@@9@9 0056c7ac     pjmedia-i386-win32-vc8-debug:sdp_neg.obj
 0004:000017b0       ?__LINE__Var@?1??pjmedia_sdp_neg_get_neg_remote@@9@9 0056c7b0     pjmedia-i386-win32-vc8-debug:sdp_neg.obj
 0004:000017b4       ?__LINE__Var@?1??pjmedia_sdp_neg_get_neg_local@@9@9 0056c7b4     pjmedia-i386-win32-vc8-debug:sdp_neg.obj
 0004:000017b8       ?__LINE__Var@?1??pjmedia_sdp_neg_modify_local_offer2@@9@9 0056c7b8     pjmedia-i386-win32-vc8-debug:sdp_neg.obj
 0004:000017bc       ?__LINE__Var@?1??pjmedia_sdp_neg_send_local_offer@@9@9 0056c7bc     pjmedia-i386-win32-vc8-debug:sdp_neg.obj
 0004:000017c0       ?__LINE__Var@?1??pjmedia_sdp_neg_set_remote_answer@@9@9 0056c7c0     pjmedia-i386-win32-vc8-debug:sdp_neg.obj
 0004:000017c4       ?__LINE__Var@?1??pjmedia_sdp_neg_set_remote_offer@@9@9 0056c7c4     pjmedia-i386-win32-vc8-debug:sdp_neg.obj
 0004:000017c8       ?__LINE__Var@?1??pjmedia_sdp_neg_set_local_answer@@9@9 0056c7c8     pjmedia-i386-win32-vc8-debug:sdp_neg.obj
 0004:000017cc       ?__LINE__Var@?1??pjmedia_sdp_neg_has_local_answer@@9@9 0056c7cc     pjmedia-i386-win32-vc8-debug:sdp_neg.obj
 0004:000017d0       ?__LINE__Var@?1??process_m_answer@@9@9@c1fbfd35 0056c7d0     pjmedia-i386-win32-vc8-debug:sdp_neg.obj
 0004:000017d4       ?__LINE__Var@?1??process_answer@@9@9@c1fbfd35 0056c7d4     pjmedia-i386-win32-vc8-debug:sdp_neg.obj
 0004:000017d8       ?__LINE__Var@?1??match_offer@@9@9@c1fbfd35 0056c7d8     pjmedia-i386-win32-vc8-debug:sdp_neg.obj
 0004:000017dc       ?__LINE__Var@?1??create_answer@@9@9@c1fbfd35 0056c7dc     pjmedia-i386-win32-vc8-debug:sdp_neg.obj
 0004:000017e0       ?__LINE__Var@?1??pjmedia_sdp_neg_cancel_offer@@9@9 0056c7e0     pjmedia-i386-win32-vc8-debug:sdp_neg.obj
 0004:000017e4       ?__LINE__Var@?1??pjmedia_sdp_neg_negotiate@@9@9 0056c7e4     pjmedia-i386-win32-vc8-debug:sdp_neg.obj
 0004:000017e8       ?__LINE__Var@?1??custom_fmt_match@@9@9@c1fbfd35 0056c7e8     pjmedia-i386-win32-vc8-debug:sdp_neg.obj
 0004:000017ec       ?__LINE__Var@?1??pjmedia_sdp_neg_register_fmt_match_cb@@9@9 0056c7ec     pjmedia-i386-win32-vc8-debug:sdp_neg.obj
 0004:000017f0       ?__LINE__Var@?1??pjmedia_sdp_neg_fmt_match@@9@9 0056c7f0     pjmedia-i386-win32-vc8-debug:sdp_neg.obj
 0004:000017f4       ?__LINE__Var@?1??pjlib_util_init@@9@9 0056c7f4     pjlib-util-i386-win32-vc8-debug:errno.obj
 0004:000017f8       _pj_optind                 0056c7f8     pjlib-util-i386-win32-vc8-debug:getopt.obj
 0004:000017fc       _pj_optopt                 0056c7fc     pjlib-util-i386-win32-vc8-debug:getopt.obj
 0004:00001804       ?__LINE__Var@?1??pj_cis_add_range@@9@9 0056c804     pjlib-util-i386-win32-vc8-debug:scanner.obj
 0004:00001808       ?__LINE__Var@?1??pj_scan_init@@9@9 0056c808     pjlib-util-i386-win32-vc8-debug:scanner.obj
 0004:0000180c       ?__LINE__Var@?1??pj_scan_fini@@9@9 0056c80c     pjlib-util-i386-win32-vc8-debug:scanner.obj
 0004:00001810       ?__LINE__Var@?1??pj_scan_get@@9@9 0056c810     pjlib-util-i386-win32-vc8-debug:scanner.obj
 0004:00001814       ?__LINE__Var@?1??pj_scan_get_unescape@@9@9 0056c814     pjlib-util-i386-win32-vc8-debug:scanner.obj
 0004:00001818       ?__LINE__Var@?1??pj_scan_get_quotes@@9@9 0056c818     pjlib-util-i386-win32-vc8-debug:scanner.obj
 0004:0000182c       ?__LINE__Var@?1??pj_dns_resolver_create@@9@9 0056c82c     pjlib-util-i386-win32-vc8-debug:resolver.obj
 0004:00001830       ?__LINE__Var@?1??pj_dns_resolver_destroy@@9@9 0056c830     pjlib-util-i386-win32-vc8-debug:resolver.obj
 0004:00001834       ?__LINE__Var@?1??pj_dns_resolver_set_ns@@9@9 0056c834     pjlib-util-i386-win32-vc8-debug:resolver.obj
 0004:00001838       ?__LINE__Var@?1??pj_dns_resolver_set_settings@@9@9 0056c838     pjlib-util-i386-win32-vc8-debug:resolver.obj
 0004:0000183c       ?__LINE__Var@?1??pj_dns_resolver_get_settings@@9@9 0056c83c     pjlib-util-i386-win32-vc8-debug:resolver.obj
 0004:00001840       ?__LINE__Var@?1??pj_dns_resolver_handle_events@@9@9 0056c840     pjlib-util-i386-win32-vc8-debug:resolver.obj
 0004:00001844       ?__LINE__Var@?1??transmit_query@@9@9@8525b829 0056c844     pjlib-util-i386-win32-vc8-debug:resolver.obj
 0004:00001848       ?__LINE__Var@?1??pj_dns_resolver_start_query@@9@9 0056c848     pjlib-util-i386-win32-vc8-debug:resolver.obj
 0004:0000184c       ?__LINE__Var@?1??pj_dns_resolver_cancel_query@@9@9 0056c84c     pjlib-util-i386-win32-vc8-debug:resolver.obj
 0004:00001850       ?__LINE__Var@?1??pj_dns_parse_a_response@@9@9 0056c850     pjlib-util-i386-win32-vc8-debug:resolver.obj
 0004:00001854       ?__LINE__Var@?1??select_nameservers@@9@9@8525b829 0056c854     pjlib-util-i386-win32-vc8-debug:resolver.obj
 0004:00001858       ?__LINE__Var@?1??on_read_complete@@9@9@8525b829 0056c858     pjlib-util-i386-win32-vc8-debug:resolver.obj
 0004:0000185c       ?__LINE__Var@?1??pj_dns_resolver_add_entry@@9@9 0056c85c     pjlib-util-i386-win32-vc8-debug:resolver.obj
 0004:00001860       ?__LINE__Var@?1??pj_dns_resolver_get_cached_count@@9@9 0056c860     pjlib-util-i386-win32-vc8-debug:resolver.obj
 0004:00001864       ?__LINE__Var@?1??pj_dns_make_query@@9@9 0056c864     pjlib-util-i386-win32-vc8-debug:dns.obj
 0004:00001868       ?__LINE__Var@?1??pj_dns_parse_packet@@9@9 0056c868     pjlib-util-i386-win32-vc8-debug:dns.obj
 0004:0000186c       ?__LINE__Var@?1??pj_dns_packet_dup@@9@9 0056c86c     pjlib-util-i386-win32-vc8-debug:dns.obj
 0004:00001870       ?__LINE__Var@?1??pj_dns_srv_resolve@@9@9 0056c870     pjlib-util-i386-win32-vc8-debug:srv_resolver.obj
 0004:00001874       ?__LINE__Var@?1??build_server_entries@@9@9@f9b2aeb5 0056c874     pjlib-util-i386-win32-vc8-debug:srv_resolver.obj
 0004:00001878       ?__LINE__Var@?1??dns_callback@@9@9@f9b2aeb5 0056c878     pjlib-util-i386-win32-vc8-debug:srv_resolver.obj
 0004:00001880       ?__LINE__Var@?1??pj_init@@9@9 0056c880     pjlib-i386-win32-vc8-debug:os_core_win32.obj
 0004:00001884       ?__LINE__Var@?1??pj_shutdown@@9@9 0056c884     pjlib-i386-win32-vc8-debug:os_core_win32.obj
 0004:00001888       ?__LINE__Var@?1??pj_getpid@@9@9 0056c888     pjlib-i386-win32-vc8-debug:os_core_win32.obj
 0004:0000188c       ?__LINE__Var@?1??pj_thread_set_prio@@9@9 0056c88c     pjlib-i386-win32-vc8-debug:os_core_win32.obj
 0004:00001890       ?__LINE__Var@?1??pj_thread_get_os_handle@@9@9 0056c890     pjlib-i386-win32-vc8-debug:os_core_win32.obj
 0004:00001894       ?__LINE__Var@?1??pj_thread_register@@9@9 0056c894     pjlib-i386-win32-vc8-debug:os_core_win32.obj
 0004:00001898       ?__LINE__Var@?1??thread_main@@9@9@b13400cf 0056c898     pjlib-i386-win32-vc8-debug:os_core_win32.obj
 0004:0000189c       ?__LINE__Var@?1??pj_thread_create@@9@9 0056c89c     pjlib-i386-win32-vc8-debug:os_core_win32.obj
 0004:000018a0       ?__LINE__Var@?1??pj_thread_get_name@@9@9 0056c8a0     pjlib-i386-win32-vc8-debug:os_core_win32.obj
 0004:000018a4       ?__LINE__Var@?1??pj_thread_resume@@9@9 0056c8a4     pjlib-i386-win32-vc8-debug:os_core_win32.obj
 0004:000018a8       ?__LINE__Var@?1??pj_thread_this@@9@9 0056c8a8     pjlib-i386-win32-vc8-debug:os_core_win32.obj
 0004:000018ac       ?__LINE__Var@?1??pj_thread_join@@9@9 0056c8ac     pjlib-i386-win32-vc8-debug:os_core_win32.obj
 0004:000018b0       ?__LINE__Var@?1??pj_thread_destroy@@9@9 0056c8b0     pjlib-i386-win32-vc8-debug:os_core_win32.obj
 0004:000018b4       ?__LINE__Var@?1??pj_thread_sleep@@9@9 0056c8b4     pjlib-i386-win32-vc8-debug:os_core_win32.obj
 0004:000018b8       ?__LINE__Var@?1??pj_thread_check_stack@@9@9 0056c8b8     pjlib-i386-win32-vc8-debug:os_core_win32.obj
 0004:000018bc       ?__LINE__Var@?1??pj_thread_get_stack_info@@9@9 0056c8bc     pjlib-i386-win32-vc8-debug:os_core_win32.obj
 0004:000018c0       ?__LINE__Var@?1??pj_atomic_destroy@@9@9 0056c8c0     pjlib-i386-win32-vc8-debug:os_core_win32.obj
 0004:000018c4       ?__LINE__Var@?1??pj_atomic_set@@9@9 0056c8c4     pjlib-i386-win32-vc8-debug:os_core_win32.obj
 0004:000018c8       ?__LINE__Var@?1??pj_atomic_get@@9@9 0056c8c8     pjlib-i386-win32-vc8-debug:os_core_win32.obj
 0004:000018cc       ?__LINE__Var@?1??pj_atomic_inc_and_get@@9@9 0056c8cc     pjlib-i386-win32-vc8-debug:os_core_win32.obj
 0004:000018d0       ?__LINE__Var@?1??pj_atomic_dec_and_get@@9@9 0056c8d0     pjlib-i386-win32-vc8-debug:os_core_win32.obj
 0004:000018d4       ?__LINE__Var@?1??pj_thread_local_alloc@@9@9 0056c8d4     pjlib-i386-win32-vc8-debug:os_core_win32.obj
 0004:000018d8       ?__LINE__Var@?1??pj_thread_local_free@@9@9 0056c8d8     pjlib-i386-win32-vc8-debug:os_core_win32.obj
 0004:000018dc       ?__LINE__Var@?1??init_mutex@@9@9@b13400cf 0056c8dc     pjlib-i386-win32-vc8-debug:os_core_win32.obj
 0004:000018e0       ?__LINE__Var@?1??pj_mutex_create@@9@9 0056c8e0     pjlib-i386-win32-vc8-debug:os_core_win32.obj
 0004:000018e4       ?__LINE__Var@?1??pj_mutex_lock@@9@9 0056c8e4     pjlib-i386-win32-vc8-debug:os_core_win32.obj
 0004:000018e8       ?__LINE__Var@?1??pj_mutex_unlock@@9@9 0056c8e8     pjlib-i386-win32-vc8-debug:os_core_win32.obj
 0004:000018ec       ?__LINE__Var@?1??pj_mutex_trylock@@9@9 0056c8ec     pjlib-i386-win32-vc8-debug:os_core_win32.obj
 0004:000018f0       ?__LINE__Var@?1??pj_mutex_destroy@@9@9 0056c8f0     pjlib-i386-win32-vc8-debug:os_core_win32.obj
 0004:000018f4       ?__LINE__Var@?1??pj_rwmutex_create@@9@9 0056c8f4     pjlib-i386-win32-vc8-debug:os_core_win32.obj
 0004:000018f8       ?__LINE__Var@?1??pj_rwmutex_lock_read@@9@9 0056c8f8     pjlib-i386-win32-vc8-debug:os_core_win32.obj
 0004:000018fc       ?__LINE__Var@?1??pj_rwmutex_lock_write@@9@9 0056c8fc     pjlib-i386-win32-vc8-debug:os_core_win32.obj
 0004:00001900       ?__LINE__Var@?1??pj_rwmutex_unlock_read@@9@9 0056c900     pjlib-i386-win32-vc8-debug:os_core_win32.obj
 0004:00001904       ?__LINE__Var@?1??pj_rwmutex_unlock_write@@9@9 0056c904     pjlib-i386-win32-vc8-debug:os_core_win32.obj
 0004:00001908       ?__LINE__Var@?1??pj_rwmutex_destroy@@9@9 0056c908     pjlib-i386-win32-vc8-debug:os_core_win32.obj
 0004:0000190c       ?__LINE__Var@?1??pj_sem_create@@9@9 0056c90c     pjlib-i386-win32-vc8-debug:os_core_win32.obj
 0004:00001910       ?__LINE__Var@?1??pj_sem_wait_for@@9@9@b13400cf 0056c910     pjlib-i386-win32-vc8-debug:os_core_win32.obj
 0004:00001914       ?__LINE__Var@?1??pj_sem_wait@@9@9 0056c914     pjlib-i386-win32-vc8-debug:os_core_win32.obj
 0004:00001918       ?__LINE__Var@?1??pj_sem_trywait@@9@9 0056c918     pjlib-i386-win32-vc8-debug:os_core_win32.obj
 0004:0000191c       ?__LINE__Var@?1??pj_sem_post@@9@9 0056c91c     pjlib-i386-win32-vc8-debug:os_core_win32.obj
 0004:00001920       ?__LINE__Var@?1??pj_sem_destroy@@9@9 0056c920     pjlib-i386-win32-vc8-debug:os_core_win32.obj
 0004:00001924       ?__LINE__Var@?1??pj_event_create@@9@9 0056c924     pjlib-i386-win32-vc8-debug:os_core_win32.obj
 0004:00001928       ?__LINE__Var@?1??pj_event_wait_for@@9@9@b13400cf 0056c928     pjlib-i386-win32-vc8-debug:os_core_win32.obj
 0004:0000192c       ?__LINE__Var@?1??pj_event_wait@@9@9 0056c92c     pjlib-i386-win32-vc8-debug:os_core_win32.obj
 0004:00001930       ?__LINE__Var@?1??pj_event_trywait@@9@9 0056c930     pjlib-i386-win32-vc8-debug:os_core_win32.obj
 0004:00001934       ?__LINE__Var@?1??pj_event_set@@9@9 0056c934     pjlib-i386-win32-vc8-debug:os_core_win32.obj
 0004:00001938       ?__LINE__Var@?1??pj_event_pulse@@9@9 0056c938     pjlib-i386-win32-vc8-debug:os_core_win32.obj
 0004:0000193c       ?__LINE__Var@?1??pj_event_reset@@9@9 0056c93c     pjlib-i386-win32-vc8-debug:os_core_win32.obj
 0004:00001940       ?__LINE__Var@?1??pj_event_destroy@@9@9 0056c940     pjlib-i386-win32-vc8-debug:os_core_win32.obj
 0004:00001944       ?__LINE__Var@?1??pj_term_set_color@@9@9 0056c944     pjlib-i386-win32-vc8-debug:os_core_win32.obj
 0004:00001948       ?__LINE__Var@?1??pj_term_get_color@@9@9 0056c948     pjlib-i386-win32-vc8-debug:os_core_win32.obj
 0004:0000194c       ?__LINE__Var@?1??pj_register_strerror@@9@9 0056c94c     pjlib-i386-win32-vc8-debug:errno.obj
 0004:00001950       ?__LINE__Var@?1??pj_strerror@@9@9 0056c950     pjlib-i386-win32-vc8-debug:errno.obj
 0004:00001954       ?__LINE__Var@?1??pj_sockaddr_in_set_str_addr@@9@9 0056c954     pjlib-i386-win32-vc8-debug:sock_common.obj
 0004:00001958       ?__LINE__Var@?1??pj_sockaddr_set_str_addr@@9@9 0056c958     pjlib-i386-win32-vc8-debug:sock_common.obj
 0004:0000195c       ?__LINE__Var@?1??pj_sockaddr_in_init@@9@9 0056c95c     pjlib-i386-win32-vc8-debug:sock_common.obj
 0004:00001960       ?__LINE__Var@?1??pj_sockaddr_init@@9@9 0056c960     pjlib-i386-win32-vc8-debug:sock_common.obj
 0004:00001964       ?__LINE__Var@?1??pj_sockaddr_get_addr@@9@9 0056c964     pjlib-i386-win32-vc8-debug:sock_common.obj
 0004:00001968       ?__LINE__Var@?1??pj_sockaddr_get_port@@9@9 0056c968     pjlib-i386-win32-vc8-debug:sock_common.obj
 0004:0000196c       ?__LINE__Var@?1??pj_sockaddr_get_addr_len@@9@9 0056c96c     pjlib-i386-win32-vc8-debug:sock_common.obj
 0004:00001970       ?__LINE__Var@?1??pj_sockaddr_get_len@@9@9 0056c970     pjlib-i386-win32-vc8-debug:sock_common.obj
 0004:00001974       ?__LINE__Var@?1??pj_sockaddr_set_port@@9@9 0056c974     pjlib-i386-win32-vc8-debug:sock_common.obj
 0004:00001978       ?__LINE__Var@?1??pj_sockaddr_parse2@@9@9 0056c978     pjlib-i386-win32-vc8-debug:sock_common.obj
 0004:0000197c       ?__LINE__Var@?1??pj_sockaddr_parse@@9@9 0056c97c     pjlib-i386-win32-vc8-debug:sock_common.obj
 0004:00001980       ?__LINE__Var@?1??pj_gethostip@@9@9 0056c980     pjlib-i386-win32-vc8-debug:sock_common.obj
 0004:00001984       ?__LINE__Var@?1??pj_sock_bind_random@@9@9 0056c984     pjlib-i386-win32-vc8-debug:sock_common.obj
 0004:00001988       ?__LINE__Var@?1??pj_sock_setsockopt_sobuf@@9@9 0056c988     pjlib-i386-win32-vc8-debug:sock_common.obj
 0004:0000198c       ?__LINE__Var@?1??pj_pool_create_block@@9@9@ce85eb17 0056c98c     pjlib-i386-win32-vc8-debug:pool.obj
 0004:00001990       ?__LINE__Var@?1??pj_pool_allocate_find@@9@9 0056c990     pjlib-i386-win32-vc8-debug:pool.obj
 0004:00001994       ?__LINE__Var@?1??pj_pool_init_int@@9@9 0056c994     pjlib-i386-win32-vc8-debug:pool.obj
 0004:00001998       ?__LINE__Var@?1??pj_pool_create_int@@9@9 0056c998     pjlib-i386-win32-vc8-debug:pool.obj
 0004:0000199c       ?__LINE__Var@?1??reset_pool@@9@9@ce85eb17 0056c99c     pjlib-i386-win32-vc8-debug:pool.obj
 0004:000019ec       ?__LINE__Var@?1??pj_caching_pool_init@@9@9 0056c9ec     pjlib-i386-win32-vc8-debug:pool_caching.obj
 0004:000019f0       ?__LINE__Var@?1??pj_caching_pool_destroy@@9@9 0056c9f0     pjlib-i386-win32-vc8-debug:pool_caching.obj
 0004:000019f4       ?__LINE__Var@?1??cpool_create_pool@@9@9@e94dfda5 0056c9f4     pjlib-i386-win32-vc8-debug:pool_caching.obj
 0004:000019f8       ?__LINE__Var@?1??cpool_release_pool@@9@9@e94dfda5 0056c9f8     pjlib-i386-win32-vc8-debug:pool_caching.obj
 0004:000019fc       ?__LINE__Var@?1??pj_create_random_string@@9@9 0056c9fc     pjlib-i386-win32-vc8-debug:string.obj
 0004:00001a00       ?__LINE__Var@?1??pj_strtol@@9@9 0056ca00     pjlib-i386-win32-vc8-debug:string.obj
 0004:00001a04       ?__LINE__Var@?1??pj_strtoul@@9@9 0056ca04     pjlib-i386-win32-vc8-debug:string.obj
 0004:00001a08       ?__LINE__Var@?1??pj_strtoul2@@9@9 0056ca08     pjlib-i386-win32-vc8-debug:string.obj
 0004:00001a0c       ?__LINE__Var@?1??pj_utoa_pad@@9@9 0056ca0c     pjlib-i386-win32-vc8-debug:string.obj
 0004:00001a10       ?__LINE__Var@?1??pj_array_erase@@9@9 0056ca10     pjlib-i386-win32-vc8-debug:array.obj
 0004:00001a98       ?__LINE__Var@?1??pj_log@@9@9 0056ca98     pjlib-i386-win32-vc8-debug:log.obj
 0004:00001a9c       ?__LINE__Var@?1??pj_inet_aton@@9@9 0056ca9c     pjlib-i386-win32-vc8-debug:sock_bsd.obj
 0004:00001aa0       ?__LINE__Var@?1??pj_inet_pton@@9@9 0056caa0     pjlib-i386-win32-vc8-debug:sock_bsd.obj
 0004:00001aa4       ?__LINE__Var@?1??pj_inet_ntop@@9@9 0056caa4     pjlib-i386-win32-vc8-debug:sock_bsd.obj
 0004:00001aa8       ?__LINE__Var@?1??pj_gethostname@@9@9 0056caa8     pjlib-i386-win32-vc8-debug:sock_bsd.obj
 0004:00001aac       ?__LINE__Var@?1??pj_sock_socket@@9@9 0056caac     pjlib-i386-win32-vc8-debug:sock_bsd.obj
 0004:00001ab0       ?__LINE__Var@?1??pj_sock_bind@@9@9 0056cab0     pjlib-i386-win32-vc8-debug:sock_bsd.obj
 0004:00001ab4       ?__LINE__Var@?1??pj_sock_bind_in@@9@9 0056cab4     pjlib-i386-win32-vc8-debug:sock_bsd.obj
 0004:00001ab8       ?__LINE__Var@?1??pj_sock_close@@9@9 0056cab8     pjlib-i386-win32-vc8-debug:sock_bsd.obj
 0004:00001abc       ?__LINE__Var@?1??pj_sock_getpeername@@9@9 0056cabc     pjlib-i386-win32-vc8-debug:sock_bsd.obj
 0004:00001ac0       ?__LINE__Var@?1??pj_sock_getsockname@@9@9 0056cac0     pjlib-i386-win32-vc8-debug:sock_bsd.obj
 0004:00001ac4       ?__LINE__Var@?1??pj_sock_send@@9@9 0056cac4     pjlib-i386-win32-vc8-debug:sock_bsd.obj
 0004:00001ac8       ?__LINE__Var@?1??pj_sock_sendto@@9@9 0056cac8     pjlib-i386-win32-vc8-debug:sock_bsd.obj
 0004:00001acc       ?__LINE__Var@?1??pj_sock_recv@@9@9 0056cacc     pjlib-i386-win32-vc8-debug:sock_bsd.obj
 0004:00001ad0       ?__LINE__Var@?1??pj_sock_recvfrom@@9@9 0056cad0     pjlib-i386-win32-vc8-debug:sock_bsd.obj
 0004:00001ad4       ?__LINE__Var@?1??pj_sock_getsockopt@@9@9 0056cad4     pjlib-i386-win32-vc8-debug:sock_bsd.obj
 0004:00001ad8       ?__LINE__Var@?1??pj_sock_setsockopt@@9@9 0056cad8     pjlib-i386-win32-vc8-debug:sock_bsd.obj
 0004:00001adc       ?__LINE__Var@?1??pj_sock_connect@@9@9 0056cadc     pjlib-i386-win32-vc8-debug:sock_bsd.obj
 0004:00001ae0       ?__LINE__Var@?1??pj_sock_shutdown@@9@9 0056cae0     pjlib-i386-win32-vc8-debug:sock_bsd.obj
 0004:00001ae4       ?__LINE__Var@?1??pj_sock_listen@@9@9 0056cae4     pjlib-i386-win32-vc8-debug:sock_bsd.obj
 0004:00001ae8       ?__LINE__Var@?1??pj_sock_accept@@9@9 0056cae8     pjlib-i386-win32-vc8-debug:sock_bsd.obj
 0004:00001b34       ?__LINE__Var@?1??create_mutex_lock@@9@9@f50880ca 0056cb34     pjlib-i386-win32-vc8-debug:lock.obj
 0004:00001b38       ?__LINE__Var@?1??pj_lock_create_null_mutex@@9@9 0056cb38     pjlib-i386-win32-vc8-debug:lock.obj
 0004:00001b3c       ?__LINE__Var@?1??pj_lock_create_semaphore@@9@9 0056cb3c     pjlib-i386-win32-vc8-debug:lock.obj
 0004:00001b40       ?__LINE__Var@?1??pj_lock_acquire@@9@9 0056cb40     pjlib-i386-win32-vc8-debug:lock.obj
 0004:00001b44       ?__LINE__Var@?1??pj_lock_tryacquire@@9@9 0056cb44     pjlib-i386-win32-vc8-debug:lock.obj
 0004:00001b48       ?__LINE__Var@?1??pj_lock_release@@9@9 0056cb48     pjlib-i386-win32-vc8-debug:lock.obj
 0004:00001b4c       ?__LINE__Var@?1??pj_lock_destroy@@9@9 0056cb4c     pjlib-i386-win32-vc8-debug:lock.obj
 0004:00001b50       ?__LINE__Var@?1??grp_lock_set_owner_thread@@9@9@f50880ca 0056cb50     pjlib-i386-win32-vc8-debug:lock.obj
 0004:00001b54       ?__LINE__Var@?1??grp_lock_unset_owner_thread@@9@9@f50880ca 0056cb54     pjlib-i386-win32-vc8-debug:lock.obj
 0004:00001b58       ?__LINE__Var@?1??grp_lock_acquire@@9@9@f50880ca 0056cb58     pjlib-i386-win32-vc8-debug:lock.obj
 0004:00001b5c       ?__LINE__Var@?1??grp_lock_tryacquire@@9@9@f50880ca 0056cb5c     pjlib-i386-win32-vc8-debug:lock.obj
 0004:00001b60       ?__LINE__Var@?1??pj_grp_lock_create@@9@9 0056cb60     pjlib-i386-win32-vc8-debug:lock.obj
 0004:00001b64       ?__LINE__Var@?1??grp_lock_dec_ref@@9@9@f50880ca 0056cb64     pjlib-i386-win32-vc8-debug:lock.obj
 0004:00001b68       ?__LINE__Var@?1??pj_srand@@9@9 0056cb68     pjlib-i386-win32-vc8-debug:rand.obj
 0004:00001b6c       ?__LINE__Var@?1??pj_rand@@9@9 0056cb6c     pjlib-i386-win32-vc8-debug:rand.obj
 0004:00001b70       ?__LINE__Var@?1??pj_time_val_normalize@@9@9 0056cb70     pjlib-i386-win32-vc8-debug:types.obj
 0004:00001b74       ?__LINE__Var@?1??copy_node@@9@9@52090db6 0056cb74     pjlib-i386-win32-vc8-debug:timer.obj
 0004:00001b78       ?__LINE__Var@?1??pop_freelist@@9@9@52090db6 0056cb78     pjlib-i386-win32-vc8-debug:timer.obj
 0004:00001b7c       ?__LINE__Var@?1??push_freelist@@9@9@52090db6 0056cb7c     pjlib-i386-win32-vc8-debug:timer.obj
 0004:00001b80       ?__LINE__Var@?1??reheap_down@@9@9@52090db6 0056cb80     pjlib-i386-win32-vc8-debug:timer.obj
 0004:00001b84       ?__LINE__Var@?1??cancel@@9@9@52090db6 0056cb84     pjlib-i386-win32-vc8-debug:timer.obj
 0004:00001b88       ?__LINE__Var@?1??pj_timer_heap_create@@9@9 0056cb88     pjlib-i386-win32-vc8-debug:timer.obj
 0004:00001b8c       ?__LINE__Var@?1??pj_timer_entry_init@@9@9 0056cb8c     pjlib-i386-win32-vc8-debug:timer.obj
 0004:00001b90       ?__LINE__Var@?1??schedule_w_grp_lock@@9@9@52090db6 0056cb90     pjlib-i386-win32-vc8-debug:timer.obj
 0004:00001b94       ?__LINE__Var@?1??cancel_timer@@9@9@52090db6 0056cb94     pjlib-i386-win32-vc8-debug:timer.obj
 0004:00001b98       ?__LINE__Var@?1??pj_timer_heap_poll@@9@9 0056cb98     pjlib-i386-win32-vc8-debug:timer.obj
 0004:00001b9c       ?__LINE__Var@?1??pj_timer_heap_count@@9@9 0056cb9c     pjlib-i386-win32-vc8-debug:timer.obj
 0004:00001ba0       ?__LINE__Var@?1??pj_timer_heap_earliest_time@@9@9 0056cba0     pjlib-i386-win32-vc8-debug:timer.obj
 0004:00001ba4       ?__LINE__Var@?1??pj_ioqueue_set_lock@@9@9 0056cba4     pjlib-i386-win32-vc8-debug:ioqueue_select.obj
 0004:00001ba8       ?__LINE__Var@?1??ioqueue_init_key@@9@9@b2fa2036 0056cba8     pjlib-i386-win32-vc8-debug:ioqueue_select.obj
 0004:00001bac       ?__LINE__Var@?1??pj_ioqueue_get_user_data@@9@9 0056cbac     pjlib-i386-win32-vc8-debug:ioqueue_select.obj
 0004:00001bb0       ?__LINE__Var@?1??pj_ioqueue_set_user_data@@9@9 0056cbb0     pjlib-i386-win32-vc8-debug:ioqueue_select.obj
 0004:00001bb4       ?__LINE__Var@?1??ioqueue_dispatch_write_event@@9@9 0056cbb4     pjlib-i386-win32-vc8-debug:ioqueue_select.obj
 0004:00001bb8       ?__LINE__Var@?1??ioqueue_dispatch_read_event@@9@9 0056cbb8     pjlib-i386-win32-vc8-debug:ioqueue_select.obj
 0004:00001bbc       ?__LINE__Var@?1??pj_ioqueue_recv@@9@9 0056cbbc     pjlib-i386-win32-vc8-debug:ioqueue_select.obj
 0004:00001bc0       ?__LINE__Var@?1??pj_ioqueue_recvfrom@@9@9 0056cbc0     pjlib-i386-win32-vc8-debug:ioqueue_select.obj
 0004:00001bc4       ?__LINE__Var@?1??pj_ioqueue_send@@9@9 0056cbc4     pjlib-i386-win32-vc8-debug:ioqueue_select.obj
 0004:00001bc8       ?__LINE__Var@?1??pj_ioqueue_sendto@@9@9 0056cbc8     pjlib-i386-win32-vc8-debug:ioqueue_select.obj
 0004:00001bcc       ?__LINE__Var@?1??pj_ioqueue_accept@@9@9 0056cbcc     pjlib-i386-win32-vc8-debug:ioqueue_select.obj
 0004:00001bd0       ?__LINE__Var@?1??pj_ioqueue_connect@@9@9 0056cbd0     pjlib-i386-win32-vc8-debug:ioqueue_select.obj
 0004:00001bd4       ?__LINE__Var@?1??pj_ioqueue_set_default_concurrency@@9@9 0056cbd4     pjlib-i386-win32-vc8-debug:ioqueue_select.obj
 0004:00001bd8       ?__LINE__Var@?1??pj_ioqueue_set_concurrency@@9@9 0056cbd8     pjlib-i386-win32-vc8-debug:ioqueue_select.obj
 0004:00001bdc       ?__LINE__Var@?1??pj_ioqueue_create@@9@9 0056cbdc     pjlib-i386-win32-vc8-debug:ioqueue_select.obj
 0004:00001be0       ?__LINE__Var@?1??pj_ioqueue_destroy@@9@9 0056cbe0     pjlib-i386-win32-vc8-debug:ioqueue_select.obj
 0004:00001be4       ?__LINE__Var@?1??pj_ioqueue_register_sock2@@9@9 0056cbe4     pjlib-i386-win32-vc8-debug:ioqueue_select.obj
 0004:00001be8       ?__LINE__Var@?1??decrement_counter@@9@9@b2fa2036 0056cbe8     pjlib-i386-win32-vc8-debug:ioqueue_select.obj
 0004:00001bec       ?__LINE__Var@?1??pj_ioqueue_unregister@@9@9 0056cbec     pjlib-i386-win32-vc8-debug:ioqueue_select.obj
 0004:00001bf0       ?__LINE__Var@?1??ioqueue_remove_from_set@@9@9@b2fa2036 0056cbf0     pjlib-i386-win32-vc8-debug:ioqueue_select.obj
 0004:00001bf4       ?__LINE__Var@?1??ioqueue_add_to_set@@9@9@b2fa2036 0056cbf4     pjlib-i386-win32-vc8-debug:ioqueue_select.obj
 0004:00001bf8       ?__LINE__Var@?1??scan_closing_keys@@9@9@b2fa2036 0056cbf8     pjlib-i386-win32-vc8-debug:ioqueue_select.obj
 0004:00001bfc       ?__LINE__Var@?1??pj_ioqueue_poll@@9@9 0056cbfc     pjlib-i386-win32-vc8-debug:ioqueue_select.obj
 0004:00001c04       ?__LINE__Var@?1??pj_throw_exception_@@9@9 0056cc04     pjlib-i386-win32-vc8-debug:except.obj
 0004:00001c08       ?__LINE__Var@?1??pj_push_exception_handler_@@9@9 0056cc08     pjlib-i386-win32-vc8-debug:except.obj
 0004:00001c0c       ?__LINE__Var@?1??pj_exception_id_free@@9@9 0056cc0c     pjlib-i386-win32-vc8-debug:except.obj
 0004:00001c10       ?__LINE__Var@?1??pj_exception_id_name@@9@9 0056cc10     pjlib-i386-win32-vc8-debug:except.obj
 0004:00001c14       ?__LINE__Var@?1??pj_hash_calc@@9@9 0056cc14     pjlib-i386-win32-vc8-debug:hash.obj
 0004:00001c18       ?__LINE__Var@?1??find_entry@@9@9@83f6957b 0056cc18     pjlib-i386-win32-vc8-debug:hash.obj
 0004:00001c1c       ?__LINE__Var@?1??pj_hash_this@@9@9 0056cc1c     pjlib-i386-win32-vc8-debug:hash.obj
 0004:00001c20       ?__LINE__Var@?1??platform_strerror@@9@9 0056cc20     pjlib-i386-win32-vc8-debug:os_error_win32.obj
 0004:00001c38       ?__LINE__Var@?1??pj_generate_unique_string@@9@9 0056cc38     pjlib-i386-win32-vc8-debug:guid_win32.obj
 0004:00001c3c       ?__LINE__Var@?1??pj_qos_get_params@@9@9 0056cc3c     pjlib-i386-win32-vc8-debug:sock_qos_common.obj
 0004:00001c40       ?__LINE__Var@?1??pj_qos_get_type@@9@9 0056cc40     pjlib-i386-win32-vc8-debug:sock_qos_common.obj
 0004:00001c44       ?__LINE__Var@?1??pj_activesock_create@@9@9 0056cc44     pjlib-i386-win32-vc8-debug:activesock.obj
 0004:00001c48       ?__LINE__Var@?1??pj_activesock_close@@9@9 0056cc48     pjlib-i386-win32-vc8-debug:activesock.obj
 0004:00001c4c       ?__LINE__Var@?1??pj_activesock_set_user_data@@9@9 0056cc4c     pjlib-i386-win32-vc8-debug:activesock.obj
 0004:00001c50       ?__LINE__Var@?1??pj_activesock_get_user_data@@9@9 0056cc50     pjlib-i386-win32-vc8-debug:activesock.obj
 0004:00001c54       ?__LINE__Var@?1??pj_activesock_start_read@@9@9 0056cc54     pjlib-i386-win32-vc8-debug:activesock.obj
 0004:00001c58       ?__LINE__Var@?1??pj_activesock_start_read2@@9@9 0056cc58     pjlib-i386-win32-vc8-debug:activesock.obj
 0004:00001c5c       ?__LINE__Var@?1??pj_activesock_start_recvfrom@@9@9 0056cc5c     pjlib-i386-win32-vc8-debug:activesock.obj
 0004:00001c60       ?__LINE__Var@?1??pj_activesock_start_recvfrom2@@9@9 0056cc60     pjlib-i386-win32-vc8-debug:activesock.obj
 0004:00001c64       ?__LINE__Var@?1??pj_activesock_send@@9@9 0056cc64     pjlib-i386-win32-vc8-debug:activesock.obj
 0004:00001c68       ?__LINE__Var@?1??pj_activesock_sendto@@9@9 0056cc68     pjlib-i386-win32-vc8-debug:activesock.obj
 0004:00001c6c       ?__LINE__Var@?1??pj_activesock_start_accept@@9@9 0056cc6c     pjlib-i386-win32-vc8-debug:activesock.obj
 0004:00001c70       ?__LINE__Var@?1??pj_gethostbyname@@9@9 0056cc70     pjlib-i386-win32-vc8-debug:addr_resolv_sock.obj
 0004:00001c74       ?__LINE__Var@?1??pj_getaddrinfo@@9@9 0056cc74     pjlib-i386-win32-vc8-debug:addr_resolv_sock.obj
 0004:00001c7c       ?__LINE__Var@?1??stack_alloc@@9@9@6048faf8 0056cc7c     pjlib-i386-win32-vc8-debug:pool_buf.obj
 0004:00001c80       ?__LINE__Var@?1??pj_pool_create_on_buf@@9@9 0056cc80     pjlib-i386-win32-vc8-debug:pool_buf.obj
 0004:00001c88       _PJ_VERSION                0056cc88     pjlib-i386-win32-vc8-debug:config.obj
 0004:00001c90       ?__LINE__Var@?1??enum_ipv4_interface@@9@9@49945de6 0056cc90     pjlib-i386-win32-vc8-debug:ip_helper_win32.obj
 0004:00001c94       ?__LINE__Var@?1??pj_enum_ip_interface@@9@9 0056cc94     pjlib-i386-win32-vc8-debug:ip_helper_win32.obj
 0004:00001c98       ?__LINE__Var@?1??pj_enum_ip_route@@9@9 0056cc98     pjlib-i386-win32-vc8-debug:ip_helper_win32.obj
 0004:00001c9c       _pj_pool_factory_default_policy 0056cc9c     pjlib-i386-win32-vc8-debug:pool_policy_malloc.obj
 0004:00001cb0       ?__LINE__Var@?1??default_block_alloc@@9@9@434ccce5 0056ccb0     pjlib-i386-win32-vc8-debug:pool_policy_malloc.obj
 0004:00001cb4       ?__LINE__Var@?1??default_block_free@@9@9@434ccce5 0056ccb4     pjlib-i386-win32-vc8-debug:pool_policy_malloc.obj
 0004:00001cb8       ?__LINE__Var@?1??default_pool_callback@@9@9@434ccce5 0056ccb8     pjlib-i386-win32-vc8-debug:pool_policy_malloc.obj
 0004:00001cbc       ?__LINE__Var@?1??pj_log_write@@9@9 0056ccbc     pjlib-i386-win32-vc8-debug:log_writer_stdout.obj
 0004:00001cc0       ?__LINE__Var@?1??PJ_FD_ZERO@@9@9 0056ccc0     pjlib-i386-win32-vc8-debug:sock_select.obj
 0004:00001cc4       ?__LINE__Var@?1??PJ_FD_SET@@9@9 0056ccc4     pjlib-i386-win32-vc8-debug:sock_select.obj
 0004:00001cc8       ?__LINE__Var@?1??PJ_FD_CLR@@9@9 0056ccc8     pjlib-i386-win32-vc8-debug:sock_select.obj
 0004:00001ccc       ?__LINE__Var@?1??PJ_FD_ISSET@@9@9 0056cccc     pjlib-i386-win32-vc8-debug:sock_select.obj
 0004:00001cd0       ?__LINE__Var@?1??pj_sock_select@@9@9 0056ccd0     pjlib-i386-win32-vc8-debug:sock_select.obj
 0004:00001ce0       __iob                      0056cce0     LIBCMTD:_file.obj
 0004:00001fe0       ___security_cookie         0056cfe0     LIBCMTD:gs_cookie.obj
 0004:00001fe4       ___security_cookie_complement 0056cfe4     LIBCMTD:gs_cookie.obj
 0004:00002060       __fltused                  0056d060     LIBCMTD:fpinit.obj
 0004:00002064       __ldused                   0056d064     LIBCMTD:fpinit.obj
 0004:00002070       ___isa_enabled             0056d070     LIBCMTD:cpu_disp.obj
 0004:000021d4       __crtBreakAlloc            0056d1d4     LIBCMTD:dbgheap.obj
 0004:000021d8       ___crtDebugFillThreshold   0056d1d8     LIBCMTD:dbgheap.obj
 0004:000021dc       __crtDbgFlag               0056d1dc     LIBCMTD:dbgheap.obj
 0004:000023b0       ___badioinfo               0056d3b0     LIBCMTD:ioinit.obj
 0004:000023fc       ___nullstring              0056d3fc     LIBCMTD:output.obj
 0004:00002400       ___wnullstring             0056d400     LIBCMTD:output.obj
 0004:00002408       __mbctype                  0056d408     LIBCMTD:mbctype.obj
 0004:00002510       __mbcasemap                0056d510     LIBCMTD:mbctype.obj
 0004:00002610       ___initialmbcinfo          0056d610     LIBCMTD:mbctype.obj
 0004:00002834       ___ptmbcinfo               0056d834     LIBCMTD:mbctype.obj
 0004:00002a30       ___flsindex                0056da30     LIBCMTD:tidtable.obj
 0004:00002a34       ___mb_cur_max              0056da34     LIBCMTD:nlsdata.obj
 0004:00002a38       ___wclocalestr             0056da38     LIBCMTD:nlsdata.obj
 0004:00002a40       ___lc_time_c               0056da40     LIBCMTD:nlsdata.obj
 0004:00002bec       ___ptlocinfo               0056dbec     LIBCMTD:nlsdata.obj
 0004:00002bf0       ___initiallocinfo          0056dbf0     LIBCMTD:nlsdata.obj
 0004:00002ccc       ___initiallocalestructinfo 0056dccc     LIBCMTD:nlsdata.obj
 0004:00002cd8       ___globallocalestatus      0056dcd8     LIBCMTD:glstatus.obj
 0004:00002ce0       ___abort_behavior          0056dce0     LIBCMTD:abort.obj
 0004:00002cf0       __NLG_Destination          0056dcf0     LIBCMTD:exsup.obj
 0004:00002d04       __pfnAllocHook             0056dd04     LIBCMTD:dbghook.obj
 0004:00002d10       __cfltcvt_tab              0056dd10     LIBCMTD:cmiscdat.obj
 0004:00002e60       __lookuptrailbytes         0056de60     LIBCMTD:read.obj
 0004:00002f94       __CrtDbgMode               0056df94     LIBCMTD:dbgrptt.obj
 0004:00002fa0       __CrtDbgFile               0056dfa0     LIBCMTD:dbgrptt.obj
 0004:00002fac       __crtAssertBusy            0056dfac     LIBCMTD:dbgrptt.obj
 0004:00002fc0       ___lconv                   0056dfc0     LIBCMTD:lconv.obj
 0004:00002fc4       ___lconv_static_decimal    0056dfc4     LIBCMTD:lconv.obj
 0004:00002fc8       ___lconv_c                 0056dfc8     LIBCMTD:lconv.obj
 0004:00003018       ___lconv_static_W_decimal  0056e018     LIBCMTD:lconv.obj
 0004:00003030       __pctype                   0056e030     LIBCMTD:ctype.obj
 0004:00003034       __pwctype                  0056e034     LIBCMTD:ctype.obj
 0004:00003040       __d_inf                    0056e040     LIBCMTD:util.obj
 0004:00003048       __d_ind                    0056e048     LIBCMTD:util.obj
 0004:00003050       __d_max                    0056e050     LIBCMTD:util.obj
 0004:00003058       __d_min                    0056e058     LIBCMTD:util.obj
 0004:00003060       __d_mzero                  0056e060     LIBCMTD:util.obj
 0004:00003094       __matherr_flag             0056e094     LIBCMTD:matherr.obj
 0004:000030a0       __HUGE                     0056e0a0     LIBCMTD:huge.obj
 0004:000030e8       __confh                    0056e0e8     LIBCMTD:initcon.obj
 0004:000030f0       __pow10pos                 0056e0f0     LIBCMTD:constpow.obj
 0004:00003250       __pow10neg                 0056e250     LIBCMTD:constpow.obj
 0004:00003710       ??_R0?AVbad_exception@std@@@8 0056e710     LIBCMTD:frame.obj
 0004:00003738       ??_R0?AVexception@std@@@8  0056e738     LIBCMTD:frame.obj
 0004:0000375c       ??_R0?AVtype_info@@@8      0056e75c     LIBCMTD:typinfo.obj
 0004:00003778       ??_R0?AVbad_cast@std@@@8   0056e778     LIBCMTD:stdexcpt.obj
 0004:00003798       ??_R0?AVbad_typeid@std@@@8 0056e798     LIBCMTD:stdexcpt.obj
 0004:000037bc       ??_R0?AV__non_rtti_object@std@@@8 0056e7bc     LIBCMTD:stdexcpt.obj
 0004:000037e8       ??_R0?AVDNameNode@@@8      0056e7e8     LIBCMTD:undname.obj
 0004:00003804       ??_R0?AVcharNode@@@8       0056e804     LIBCMTD:undname.obj
 0004:00003820       ??_R0?AVpcharNode@@@8      0056e820     LIBCMTD:undname.obj
 0004:0000383c       ??_R0?AVpDNameNode@@@8     0056e83c     LIBCMTD:undname.obj
 0004:0000385c       ??_R0?AVDNameStatusNode@@@8 0056e85c     LIBCMTD:undname.obj
 0004:00003880       ??_R0?AVpairNode@@@8       0056e880     LIBCMTD:undname.obj
 0004:00003c30       _pjsip_use_compact_form    0056ec30     pjsip-core-i386-win32-vc8-debug:sip_msg.obj
 0004:000081a8       _pj_optarg                 005731a8     pjlib-util-i386-win32-vc8-debug:getopt.obj
 0004:00008604       __cflush                   00573604     LIBCMTD:_file.obj
 0004:0000860c       __aenvptr                  0057360c     LIBCMTD:crt0.obj
 0004:00008610       __wenvptr                  00573610     LIBCMTD:crt0.obj
 0004:000089d8       ___fastflag                005739d8     LIBCMTD:fpinit.obj
 0004:000089dc       ___isa_available           005739dc     LIBCMTD:cpu_disp.obj
 0004:000089e0       ___favor                   005739e0     LIBCMTD:cpu_disp.obj
 0004:00008b98       ___crtDebugCheckCount      00573b98     LIBCMTD:dbgheap.obj
 0004:00008ba0       ?_pfnDumpClient@@3P6AXPAXI@ZA 00573ba0     LIBCMTD:dbgheap.obj
 0004:00008bc4       __umaskval                 00573bc4     LIBCMTD:crt0dat.obj
 0004:00008bc8       __exitflag                 00573bc8     LIBCMTD:crt0dat.obj
 0004:00008bcc       __C_Termination_Done       00573bcc     LIBCMTD:crt0dat.obj
 0004:00008bd0       ___winitenv                00573bd0     LIBCMTD:crt0dat.obj
 0004:00008bd4       ___initenv                 00573bd4     LIBCMTD:crt0dat.obj
 0004:00008bd8       ___argc                    00573bd8     LIBCMTD:crt0dat.obj
 0004:00008bdc       ___argv                    00573bdc     LIBCMTD:crt0dat.obj
 0004:00008be0       ___wargv                   00573be0     LIBCMTD:crt0dat.obj
 0004:00008be4       __environ                  00573be4     LIBCMTD:crt0dat.obj
 0004:00008be8       __wenviron                 00573be8     LIBCMTD:crt0dat.obj
 0004:00008bec       __pgmptr                   00573bec     LIBCMTD:crt0dat.obj
 0004:00008bf0       __wpgmptr                  00573bf0     LIBCMTD:crt0dat.obj
 0004:00008bf4       __C_Exit_Done              00573bf4     LIBCMTD:crt0dat.obj
 0004:00008c04       ___pInvalidArgHandler      00573c04     LIBCMTD:invarg.obj
 0004:00008c08       ___pioinfo                 00573c08     LIBCMTD:ioinit.obj
 0004:00008d3c       __stdbuf                   00573d3c     LIBCMTD:_sftbuf.obj
 0004:00008d48       ___mbcodepage              00573d48     LIBCMTD:mbctype.obj
 0004:00008d4c       ___ismbcodepage            00573d4c     LIBCMTD:mbctype.obj
 0004:00008d50       ___mbulinfo                00573d50     LIBCMTD:mbctype.obj
 0004:00008d5c       ___mblocalename            00573d5c     LIBCMTD:mbctype.obj
 0004:00008d6c       ___locale_changed          00573d6c     LIBCMTD:wsetloca.obj
 0004:00008d70       __crtheap                  00573d70     LIBCMTD:heapinit.obj
 0004:00008eb8       ___app_type                00573eb8     LIBCMTD:crt0msg.obj
 0004:00009624       ___error_mode              00574624     LIBCMTD:errmode.obj
 0004:00009658       __newmode                  00574658     LIBCMTD:_newmode.obj
 0004:0000965c       ?_pnhHeap@@3P6AHI@ZA       0057465c     LIBCMTD:handler.obj
 0004:00009660       ?__pInconsistency@@3P6AXXZA 00574660     LIBCMTD:hooks.obj
 0004:00009664       ___pPurecall               00574664     LIBCMTD:inithelp.obj
 0004:0000966c       ___lconv_static_null       0057466c     LIBCMTD:lconv.obj
 0004:00009670       ___lconv_static_W_null     00574670     LIBCMTD:lconv.obj
 0004:00009674       ?g_OutOfMemoryExceptionCallback@@3P6GPAXXZA 00574674     LIBCMTD:frame.obj
 0004:0000967c       __outputformat             0057467c     LIBCMTD:outputformat.obj
 0004:0000968c       ?pArgList@UnDecorator@@0PAVReplicator@@A 0057468c     LIBCMTD:undname.obj
 0004:00009690       ?pZNameList@UnDecorator@@0PAVReplicator@@A 00574690     LIBCMTD:undname.obj
 0004:00009694       ?pTemplateArgList@UnDecorator@@0PAVReplicator@@A 00574694     LIBCMTD:undname.obj
 0004:00009698       ?gName@UnDecorator@@0PBDB  00574698     LIBCMTD:undname.obj
 0004:0000969c       ?name@UnDecorator@@0PBDB   0057469c     LIBCMTD:undname.obj
 0004:000096a0       ?outputString@UnDecorator@@0PADA 005746a0     LIBCMTD:undname.obj
 0004:000096a4       ?maxStringLength@UnDecorator@@0HA 005746a4     LIBCMTD:undname.obj
 0004:000096a8       ?disableFlags@UnDecorator@@0KA 005746a8     LIBCMTD:undname.obj
 0004:000096ac       ?fExplicitTemplateParams@UnDecorator@@0_NA 005746ac     LIBCMTD:undname.obj
 0004:000096ad       ?fGetTemplateArgumentList@UnDecorator@@0_NA 005746ad     LIBCMTD:undname.obj
 0004:000096b0       ?m_pGetParameter@UnDecorator@@0P6APADJ@ZA 005746b0     LIBCMTD:undname.obj
 0004:00009738       ?nodes@?1??make@DNameStatusNode@@SAPAV2@W4DNameStatus@@@Z@4PAV2@A 00574738     LIBCMTD:undname.obj
 0004:00009774       ??_B?1??make@DNameStatusNode@@SAPAV1@W4DNameStatus@@@Z@51 00574774     LIBCMTD:undname.obj
 0004:00009778       _pjsip_dlg_lock_tls_id     00574778     <common>
 0004:00009784       _PJ_NO_MEMORY_EXCEPTION    00574784     <common>
 0004:00009790       __pReportHookListW         00574790     <common>
 0004:000097a0       __pReportHookList          005747a0     <common>
 0004:000097a4       __pfnReportHook            005747a4     <common>
 0004:000097c0       _encodedKERNEL32Functions  005747c0     <common>
 0004:00009868       __debugger_hook_dummy      00574868     <common>
 0004:00009874       ___unguarded_readlc_active 00574874     <common>
 0004:00009884       ___setlc_active            00574884     <common>
 0004:00009888       __nhandle                  00574888     <common>
 0004:00009894       ___dyn_tls_init_callback   00574894     <common>
 0004:000098a4       ___onexitend               005748a4     <common>
 0004:000098a8       ___onexitbegin             005748a8     <common>
 0004:000098ac       ___mbctype_initialized     005748ac     <common>
 0004:000098b0       ___env_initialized         005748b0     <common>
 0004:000098b4       __setjmpexused             005748b4     <common>
 0004:000098c0       __acmdln                   005748c0     <common>
 0004:000098e0       __bufin                    005748e0     <common>
 0004:0000ac1c       ___piob                    00575c1c     <common>
 0004:0000ac20       __nstream                  00575c20     <common>
 0005:00000000       __imp__SetLastError@4      00576000     kernel32:KERNEL32.dll
 0005:00000004       __imp__CreateFileW@28      00576004     kernel32:KERNEL32.dll
 0005:00000008       __imp__SetStdHandle@8      00576008     kernel32:KERNEL32.dll
 0005:0000000c       __imp__LCMapStringW@24     0057600c     kernel32:KERNEL32.dll
 0005:00000010       __imp__CompareStringW@24   00576010     kernel32:KERNEL32.dll
 0005:00000014       __imp__GetTimeFormatW@24   00576014     kernel32:KERNEL32.dll
 0005:00000018       __imp__GetDateFormatW@24   00576018     kernel32:KERNEL32.dll
 0005:0000001c       __imp__EnumSystemLocalesW@8 0057601c     kernel32:KERNEL32.dll
 0005:00000020       __imp__GetUserDefaultLCID@0 00576020     kernel32:KERNEL32.dll
 0005:00000024       __imp__IsValidLocale@8     00576024     kernel32:KERNEL32.dll
 0005:00000028       __imp__GetLocaleInfoW@16   00576028     kernel32:KERNEL32.dll
 0005:0000002c       __imp__GetStringTypeW@16   0057602c     kernel32:KERNEL32.dll
 0005:00000030       __imp__SetFilePointerEx@20 00576030     kernel32:KERNEL32.dll
 0005:00000034       __imp__OutputDebugStringA@4 00576034     kernel32:KERNEL32.dll
 0005:00000038       __imp__ReadConsoleW@20     00576038     kernel32:KERNEL32.dll
 0005:0000003c       __imp__ReadFile@20         0057603c     kernel32:KERNEL32.dll
 0005:00000040       __imp__HeapAlloc@12        00576040     kernel32:KERNEL32.dll
 0005:00000044       __imp__HeapQueryInformation@20 00576044     kernel32:KERNEL32.dll
 0005:00000048       __imp__HeapSize@12         00576048     kernel32:KERNEL32.dll
 0005:0000004c       __imp__HeapReAlloc@16      0057604c     kernel32:KERNEL32.dll
 0005:00000050       __imp__HeapFree@12         00576050     kernel32:KERNEL32.dll
 0005:00000054       __imp__GetConsoleMode@8    00576054     kernel32:KERNEL32.dll
 0005:00000058       __imp__GetConsoleCP@0      00576058     kernel32:KERNEL32.dll
 0005:0000005c       __imp__FlushFileBuffers@4  0057605c     kernel32:KERNEL32.dll
 0005:00000060       __imp__RaiseException@16   00576060     kernel32:KERNEL32.dll
 0005:00000064       __imp__CreateSemaphoreW@16 00576064     kernel32:KERNEL32.dll
 0005:00000068       __imp__GetModuleHandleW@4  00576068     kernel32:KERNEL32.dll
 0005:0000006c       __imp__GetTickCount@0      0057606c     kernel32:KERNEL32.dll
 0005:00000070       __imp__TerminateProcess@8  00576070     kernel32:KERNEL32.dll
 0005:00000074       __imp__GetCurrentProcess@0 00576074     kernel32:KERNEL32.dll
 0005:00000078       __imp__CreateEventW@16     00576078     kernel32:KERNEL32.dll
 0005:0000007c       __imp__InitializeCriticalSectionAndSpinCount@8 0057607c     kernel32:KERNEL32.dll
 0005:00000080       __imp__SetUnhandledExceptionFilter@4 00576080     kernel32:KERNEL32.dll
 0005:00000084       __imp__UnhandledExceptionFilter@4 00576084     kernel32:KERNEL32.dll
 0005:00000088       __imp__LoadLibraryExW@12   00576088     kernel32:KERNEL32.dll
 0005:0000008c       __imp__WaitForSingleObjectEx@12 0057608c     kernel32:KERNEL32.dll
 0005:00000090       __imp__GetStdHandle@4      00576090     kernel32:KERNEL32.dll
 0005:00000094       __imp__CloseHandle@4       00576094     kernel32:KERNEL32.dll
 0005:00000098       __imp__GetLastError@0      00576098     kernel32:KERNEL32.dll
 0005:0000009c       __imp__InitializeCriticalSection@4 0057609c     kernel32:KERNEL32.dll
 0005:000000a0       __imp__EnterCriticalSection@4 005760a0     kernel32:KERNEL32.dll
 0005:000000a4       __imp__LeaveCriticalSection@4 005760a4     kernel32:KERNEL32.dll
 0005:000000a8       __imp__TryEnterCriticalSection@4 005760a8     kernel32:KERNEL32.dll
 0005:000000ac       __imp__DeleteCriticalSection@4 005760ac     kernel32:KERNEL32.dll
 0005:000000b0       __imp__SetEvent@4          005760b0     kernel32:KERNEL32.dll
 0005:000000b4       __imp__ResetEvent@4        005760b4     kernel32:KERNEL32.dll
 0005:000000b8       __imp__ReleaseSemaphore@12 005760b8     kernel32:KERNEL32.dll
 0005:000000bc       __imp__WaitForSingleObject@8 005760bc     kernel32:KERNEL32.dll
 0005:000000c0       __imp__CreateEventA@16     005760c0     kernel32:KERNEL32.dll
 0005:000000c4       __imp__Sleep@4             005760c4     kernel32:KERNEL32.dll
 0005:000000c8       __imp__GetCurrentProcessId@0 005760c8     kernel32:KERNEL32.dll
 0005:000000cc       __imp__CreateThread@24     005760cc     kernel32:KERNEL32.dll
 0005:000000d0       __imp__GetCurrentThread@0  005760d0     kernel32:KERNEL32.dll
 0005:000000d4       __imp__GetCurrentThreadId@0 005760d4     kernel32:KERNEL32.dll
 0005:000000d8       __imp__SetThreadPriority@8 005760d8     kernel32:KERNEL32.dll
 0005:000000dc       __imp__GetThreadPriority@4 005760dc     kernel32:KERNEL32.dll
 0005:000000e0       __imp__ResumeThread@4      005760e0     kernel32:KERNEL32.dll
 0005:000000e4       __imp__TlsAlloc@0          005760e4     kernel32:KERNEL32.dll
 0005:000000e8       __imp__TlsGetValue@4       005760e8     kernel32:KERNEL32.dll
 0005:000000ec       __imp__TlsSetValue@8       005760ec     kernel32:KERNEL32.dll
 0005:000000f0       __imp__TlsFree@4           005760f0     kernel32:KERNEL32.dll
 0005:000000f4       __imp__PulseEvent@4        005760f4     kernel32:KERNEL32.dll
 0005:000000f8       __imp__CreateSemaphoreA@16 005760f8     kernel32:KERNEL32.dll
 0005:000000fc       __imp__GetConsoleScreenBufferInfo@8 005760fc     kernel32:KERNEL32.dll
 0005:00000100       __imp__SetConsoleTextAttribute@8 00576100     kernel32:KERNEL32.dll
 0005:00000104       __imp__GetLocalTime@4      00576104     kernel32:KERNEL32.dll
 0005:00000108       __imp__FileTimeToSystemTime@8 00576108     kernel32:KERNEL32.dll
 0005:0000010c       __imp__SystemTimeToFileTime@8 0057610c     kernel32:KERNEL32.dll
 0005:00000110       __imp__QueryPerformanceCounter@4 00576110     kernel32:KERNEL32.dll
 0005:00000114       __imp__QueryPerformanceFrequency@4 00576114     kernel32:KERNEL32.dll
 0005:00000118       __imp__FormatMessageA@28   00576118     kernel32:KERNEL32.dll
 0005:0000011c       __imp__FreeLibrary@4       0057611c     kernel32:KERNEL32.dll
 0005:00000120       __imp__GetProcAddress@8    00576120     kernel32:KERNEL32.dll
 0005:00000124       __imp__LoadLibraryA@4      00576124     kernel32:KERNEL32.dll
 0005:00000128       __imp__GetCommandLineA@0   00576128     kernel32:KERNEL32.dll
 0005:0000012c       __imp__GetFileType@4       0057612c     kernel32:KERNEL32.dll
 0005:00000130       __imp__GetModuleFileNameW@12 00576130     kernel32:KERNEL32.dll
 0005:00000134       __imp__GetModuleHandleExW@12 00576134     kernel32:KERNEL32.dll
 0005:00000138       __imp__WriteConsoleW@20    00576138     kernel32:KERNEL32.dll
 0005:0000013c       __imp__IsDebuggerPresent@0 0057613c     kernel32:KERNEL32.dll
 0005:00000140       __imp__IsProcessorFeaturePresent@4 00576140     kernel32:KERNEL32.dll
 0005:00000144       __imp__RtlUnwind@16        00576144     kernel32:KERNEL32.dll
 0005:00000148       __imp__FatalAppExitA@8     00576148     kernel32:KERNEL32.dll
 0005:0000014c       __imp__HeapValidate@12     0057614c     kernel32:KERNEL32.dll
 0005:00000150       __imp__GetSystemInfo@4     00576150     kernel32:KERNEL32.dll
 0005:00000154       __imp__EncodePointer@4     00576154     kernel32:KERNEL32.dll
 0005:00000158       __imp__DecodePointer@4     00576158     kernel32:KERNEL32.dll
 0005:0000015c       __imp__ExitProcess@4       0057615c     kernel32:KERNEL32.dll
 0005:00000160       __imp__AreFileApisANSI@0   00576160     kernel32:KERNEL32.dll
 0005:00000164       __imp__MultiByteToWideChar@24 00576164     kernel32:KERNEL32.dll
 0005:00000168       __imp__WideCharToMultiByte@32 00576168     kernel32:KERNEL32.dll
 0005:0000016c       __imp__GetStartupInfoW@4   0057616c     kernel32:KERNEL32.dll
 0005:00000170       __imp__IsValidCodePage@4   00576170     kernel32:KERNEL32.dll
 0005:00000174       __imp__GetACP@0            00576174     kernel32:KERNEL32.dll
 0005:00000178       __imp__GetOEMCP@0          00576178     kernel32:KERNEL32.dll
 0005:0000017c       __imp__GetCPInfo@8         0057617c     kernel32:KERNEL32.dll
 0005:00000180       __imp__GetProcessHeap@0    00576180     kernel32:KERNEL32.dll
 0005:00000184       __imp__GetModuleFileNameA@12 00576184     kernel32:KERNEL32.dll
 0005:00000188       __imp__WriteFile@20        00576188     kernel32:KERNEL32.dll
 0005:0000018c       __imp__GetSystemTimeAsFileTime@4 0057618c     kernel32:KERNEL32.dll
 0005:00000190       __imp__GetEnvironmentStringsW@0 00576190     kernel32:KERNEL32.dll
 0005:00000194       __imp__FreeEnvironmentStringsW@4 00576194     kernel32:KERNEL32.dll
 0005:00000198       __imp__SetConsoleCtrlHandler@8 00576198     kernel32:KERNEL32.dll
 0005:0000019c       __imp__OutputDebugStringW@4 0057619c     kernel32:KERNEL32.dll
 0005:000001a0       \177KERNEL32_NULL_THUNK_DATA 005761a0     kernel32:KERNEL32.dll
 0005:0000021c       __imp__select@20           0057621c     ws2_32:WS2_32.dll
 0005:00000220       __imp____WSAFDIsSet@8      00576220     ws2_32:WS2_32.dll
 0005:00000224       __imp__gethostbyname@4     00576224     ws2_32:WS2_32.dll
 0005:00000228       __imp__WSASetLastError@4   00576228     ws2_32:WS2_32.dll
 0005:0000022c       __imp__ioctlsocket@12      0057622c     ws2_32:WS2_32.dll
 0005:00000230       __imp__WSAStringToAddressA@20 00576230     ws2_32:WS2_32.dll
 0005:00000234       __imp__WSAAddressToStringA@20 00576234     ws2_32:WS2_32.dll
 0005:00000238       __imp__WSASocketA@24       00576238     ws2_32:WS2_32.dll
 0005:0000023c       __imp__WSAIoctl@36         0057623c     ws2_32:WS2_32.dll
 0005:00000240       __imp__gethostname@8       00576240     ws2_32:WS2_32.dll
 0005:00000244       __imp__shutdown@8          00576244     ws2_32:WS2_32.dll
 0005:00000248       __imp__setsockopt@20       00576248     ws2_32:WS2_32.dll
 0005:0000024c       __imp__sendto@24           0057624c     ws2_32:WS2_32.dll
 0005:00000250       __imp__send@16             00576250     ws2_32:WS2_32.dll
 0005:00000254       __imp__recvfrom@24         00576254     ws2_32:WS2_32.dll
 0005:00000258       __imp__recv@16             00576258     ws2_32:WS2_32.dll
 0005:0000025c       __imp__ntohs@4             0057625c     ws2_32:WS2_32.dll
 0005:00000260       __imp__ntohl@4             00576260     ws2_32:WS2_32.dll
 0005:00000264       __imp__listen@8            00576264     ws2_32:WS2_32.dll
 0005:00000268       __imp__inet_ntoa@4         00576268     ws2_32:WS2_32.dll
 0005:0000026c       __imp__inet_addr@4         0057626c     ws2_32:WS2_32.dll
 0005:00000270       __imp__htons@4             00576270     ws2_32:WS2_32.dll
 0005:00000274       __imp__htonl@4             00576274     ws2_32:WS2_32.dll
 0005:00000278       __imp__getsockopt@20       00576278     ws2_32:WS2_32.dll
 0005:0000027c       __imp__getsockname@12      0057627c     ws2_32:WS2_32.dll
 0005:00000280       __imp__getpeername@12      00576280     ws2_32:WS2_32.dll
 0005:00000284       __imp__connect@12          00576284     ws2_32:WS2_32.dll
 0005:00000288       __imp__closesocket@4       00576288     ws2_32:WS2_32.dll
 0005:0000028c       __imp__bind@12             0057628c     ws2_32:WS2_32.dll
 0005:00000290       __imp__accept@12           00576290     ws2_32:WS2_32.dll
 0005:00000294       __imp__WSAGetLastError@0   00576294     ws2_32:WS2_32.dll
 0005:00000298       __imp__WSACleanup@0        00576298     ws2_32:WS2_32.dll
 0005:0000029c       __imp__WSAStartup@8        0057629c     ws2_32:WS2_32.dll
 0005:000002a0       \177WS2_32_NULL_THUNK_DATA 005762a0     ws2_32:WS2_32.dll
 0005:000002e4       __imp__CoCreateGuid@4      005762e4     ole32:ole32.dll
 0005:000002e8       \177ole32_NULL_THUNK_DATA  005762e8     ole32:ole32.dll
 0005:00000314       __IMPORT_DESCRIPTOR_ole32  00576314     ole32:ole32.dll
 0005:00000328       __IMPORT_DESCRIPTOR_WS2_32 00576328     ws2_32:WS2_32.dll
 0005:0000033c       __IMPORT_DESCRIPTOR_KERNEL32 0057633c     kernel32:KERNEL32.dll
 0005:00000350       __NULL_IMPORT_DESCRIPTOR   00576350     ole32:ole32.dll
